
/raid/spring2026/fwu44/research/fault2assertion/build/cv32e40p/crc32/crc32.elf:     file format elf32-littleriscv


Disassembly of section .vectors:

00000000 <__vector_start>:
*/

.section .vectors, "ax"
.option norvc
vector_table:
	j sw_irq_handler
   0:	3380006f          	j	338 <sw_irq_handler>
	j __no_irq_handler
   4:	3240006f          	j	328 <__no_irq_handler>
	j __no_irq_handler
   8:	3200006f          	j	328 <__no_irq_handler>
	j __no_irq_handler
   c:	31c0006f          	j	328 <__no_irq_handler>
	j __no_irq_handler
  10:	3180006f          	j	328 <__no_irq_handler>
	j __no_irq_handler
  14:	3140006f          	j	328 <__no_irq_handler>
	j __no_irq_handler
  18:	3100006f          	j	328 <__no_irq_handler>
	j __no_irq_handler
  1c:	30c0006f          	j	328 <__no_irq_handler>
	j __no_irq_handler
  20:	3080006f          	j	328 <__no_irq_handler>
	j __no_irq_handler
  24:	3040006f          	j	328 <__no_irq_handler>
	j __no_irq_handler
  28:	3000006f          	j	328 <__no_irq_handler>
	j __no_irq_handler
  2c:	2fc0006f          	j	328 <__no_irq_handler>
	j __no_irq_handler
  30:	2f80006f          	j	328 <__no_irq_handler>
	j __no_irq_handler
  34:	2f40006f          	j	328 <__no_irq_handler>
	j __no_irq_handler
  38:	2f00006f          	j	328 <__no_irq_handler>
	j __no_irq_handler
  3c:	2ec0006f          	j	328 <__no_irq_handler>
	j __no_irq_handler
  40:	2e80006f          	j	328 <__no_irq_handler>
	j __no_irq_handler
  44:	2e40006f          	j	328 <__no_irq_handler>
	j __no_irq_handler
  48:	2e00006f          	j	328 <__no_irq_handler>
	j __no_irq_handler
  4c:	2dc0006f          	j	328 <__no_irq_handler>
	j __no_irq_handler
  50:	2d80006f          	j	328 <__no_irq_handler>
	j __no_irq_handler
  54:	2d40006f          	j	328 <__no_irq_handler>
	j __no_irq_handler
  58:	2d00006f          	j	328 <__no_irq_handler>
	j __no_irq_handler
  5c:	2cc0006f          	j	328 <__no_irq_handler>
	j __no_irq_handler
  60:	2c80006f          	j	328 <__no_irq_handler>
	j __no_irq_handler
  64:	2c40006f          	j	328 <__no_irq_handler>
	j __no_irq_handler
  68:	2c00006f          	j	328 <__no_irq_handler>
	j __no_irq_handler
  6c:	2bc0006f          	j	328 <__no_irq_handler>
	j __no_irq_handler
  70:	2b80006f          	j	328 <__no_irq_handler>
	j __no_irq_handler
  74:	2b40006f          	j	328 <__no_irq_handler>
	j __no_irq_handler
  78:	2b00006f          	j	328 <__no_irq_handler>
	j verification_irq_handler
  7c:	3340006f          	j	3b0 <verification_irq_handler>
	j __no_irq_handler
  80:	2a80006f          	j	328 <__no_irq_handler>
	j __no_irq_handler
  84:	2a40006f          	j	328 <__no_irq_handler>
	j __no_irq_handler
  88:	2a00006f          	j	328 <__no_irq_handler>
	j __no_irq_handler
  8c:	29c0006f          	j	328 <__no_irq_handler>
	j __no_irq_handler
  90:	2980006f          	j	328 <__no_irq_handler>
	j __no_irq_handler
  94:	2940006f          	j	328 <__no_irq_handler>
	j __no_irq_handler
  98:	2900006f          	j	328 <__no_irq_handler>
	j __no_irq_handler
  9c:	28c0006f          	j	328 <__no_irq_handler>
	j __no_irq_handler
  a0:	2880006f          	j	328 <__no_irq_handler>
	j __no_irq_handler
  a4:	2840006f          	j	328 <__no_irq_handler>
	j __no_irq_handler
  a8:	2800006f          	j	328 <__no_irq_handler>
	j __no_irq_handler
  ac:	27c0006f          	j	328 <__no_irq_handler>
	j __no_irq_handler
  b0:	2780006f          	j	328 <__no_irq_handler>
	j __no_irq_handler
  b4:	2740006f          	j	328 <__no_irq_handler>
	j __no_irq_handler
  b8:	2700006f          	j	328 <__no_irq_handler>
	j __no_irq_handler
  bc:	26c0006f          	j	328 <__no_irq_handler>
	j __no_irq_handler
  c0:	2680006f          	j	328 <__no_irq_handler>
	j __no_irq_handler
  c4:	2640006f          	j	328 <__no_irq_handler>
	j __no_irq_handler
  c8:	2600006f          	j	328 <__no_irq_handler>
	j __no_irq_handler
  cc:	25c0006f          	j	328 <__no_irq_handler>
	j __no_irq_handler
  d0:	2580006f          	j	328 <__no_irq_handler>
	j __no_irq_handler
  d4:	2540006f          	j	328 <__no_irq_handler>
	j __no_irq_handler
  d8:	2500006f          	j	328 <__no_irq_handler>
	j __no_irq_handler
  dc:	24c0006f          	j	328 <__no_irq_handler>
	j __no_irq_handler
  e0:	2480006f          	j	328 <__no_irq_handler>
	j __no_irq_handler
  e4:	2440006f          	j	328 <__no_irq_handler>
	j __no_irq_handler
  e8:	2400006f          	j	328 <__no_irq_handler>
	j __no_irq_handler
  ec:	23c0006f          	j	328 <__no_irq_handler>
	j __no_irq_handler
  f0:	2380006f          	j	328 <__no_irq_handler>
	j __no_irq_handler
  f4:	2340006f          	j	328 <__no_irq_handler>
	j __no_irq_handler
  f8:	2300006f          	j	328 <__no_irq_handler>
	j __no_irq_handler
  fc:	22c0006f          	j	328 <__no_irq_handler>

Disassembly of section .init:

00000180 <_start>:

_start:
/* initialize global pointer */
.option push
.option norelax
1:	auipc gp, %pcrel_hi(__global_pointer$)
 180:	00009197          	auipc	gp,0x9
	addi  gp, gp, %pcrel_lo(1b)
 184:	26018193          	addi	gp,gp,608 # 93e0 <__global_pointer$>
.option pop

/* initialize stack pointer */
	la sp, _sp
 188:	0000c117          	auipc	sp,0xc
 18c:	de810113          	addi	sp,sp,-536 # bf70 <_sp>

/* set vector table address and vectored mode */
	la a0, __vector_start
 190:	00000517          	auipc	a0,0x0
 194:	e7050513          	addi	a0,a0,-400 # 0 <__vector_start>
        ori a0, a0, 0x1
 198:	00156513          	ori	a0,a0,1
	csrw mtvec, a0
 19c:	30551073          	csrw	mtvec,a0

/* clear the bss segment */
	la a0, __bss_start
 1a0:	00009517          	auipc	a0,0x9
 1a4:	ab850513          	addi	a0,a0,-1352 # 8c58 <g_crc32_status>
	la a2, __bss_end
 1a8:	0000a617          	auipc	a2,0xa
 1ac:	dc460613          	addi	a2,a2,-572 # 9f6c <__BSS_END__>
	sub a2, a2, a0
 1b0:	8e09                	sub	a2,a2,a0
	li a1, 0
 1b2:	4581                	li	a1,0
	call memset
 1b4:	7f8000ef          	jal	9ac <memset>

/* new-style constructors and destructors */
	la a0, __libc_fini_array
 1b8:	00000517          	auipc	a0,0x0
 1bc:	7c250513          	addi	a0,a0,1986 # 97a <__libc_fini_array>
	call atexit
 1c0:	2c6d                	jal	47a <atexit>
	call __libc_init_array
 1c2:	278d                	jal	924 <__libc_init_array>

/* call main */
	lw a0, 0(sp)                    /* a0 = argc */
 1c4:	4502                	lw	a0,0(sp)
	addi a1, sp, __SIZEOF_POINTER__ /* a1 = argv */
 1c6:	004c                	addi	a1,sp,4
	li a2, 0                        /* a2 = envp = NULL */
 1c8:	4601                	li	a2,0
	call main
 1ca:	2019                	jal	1d0 <main>
	tail exit
 1cc:	ac65                	j	484 <exit>

000001ce <_fini>:
.type   _fini, @function
_init:
_fini:
 /* These don't have to do anything since we use init_array/fini_array. Prevent
    missing symbol error */
	ret
 1ce:	8082                	ret

Disassembly of section .text:

000001d0 <main>:
     1d0:	7139                	addi	sp,sp,-64
     1d2:	343336b7          	lui	a3,0x34333
     1d6:	38373737          	lui	a4,0x38373
     1da:	435247b7          	lui	a5,0x43524
     1de:	03900613          	li	a2,57
     1e2:	dc22                	sw	s0,56(sp)
     1e4:	23168693          	addi	a3,a3,561 # 34333231 <_sp+0x343272c1>
     1e8:	63570713          	addi	a4,a4,1589 # 38373635 <_sp+0x383676c5>

int main(void)
{
    char standard_vector[] = "123456789";

    g_crc32_status = CRC32_STATUS_RUNNING;
     1ec:	30078793          	addi	a5,a5,768 # 43524300 <_sp+0x43518390>

    /*
     * Standard IEEE CRC-32 check:
     * CRC32("123456789") must be 0xCBF43926.
     */
    uint32_t vector_crc = (uint32_t)crc32buf(
     1f0:	45a5                	li	a1,9
     1f2:	0048                	addi	a0,sp,4
    char standard_vector[] = "123456789";
     1f4:	00c11623          	sh	a2,12(sp)
{
     1f8:	de06                	sw	ra,60(sp)
    char standard_vector[] = "123456789";
     1fa:	c236                	sw	a3,4(sp)
     1fc:	c43a                	sw	a4,8(sp)
    g_crc32_status = CRC32_STATUS_RUNNING;
     1fe:	86f1ac23          	sw	a5,-1928(gp) # 8c58 <g_crc32_status>
    uint32_t vector_crc = (uint32_t)crc32buf(
     202:	2499                	jal	448 <crc32buf>
        standard_vector,
        sizeof(standard_vector) - 1u
    );

    if (vector_crc != CRC32_VECTOR_EXPECTED)
     204:	cbf44637          	lui	a2,0xcbf44
     208:	92660613          	addi	a2,a2,-1754 # cbf43926 <_sp+0xcbf379b6>
     20c:	02c50463          	beq	a0,a2,234 <main+0x64>
    {
        g_crc32_last = vector_crc;
        g_crc32_status = CRC32_STATUS_FAIL_VECTOR;

        printf(
     210:	6721                	lui	a4,0x8
        g_crc32_status = CRC32_STATUS_FAIL_VECTOR;
     212:	435247b7          	lui	a5,0x43524
        g_crc32_last = vector_crc;
     216:	88a1a023          	sw	a0,-1920(gp) # 8c60 <g_crc32_last>
        printf(
     21a:	85aa                	mv	a1,a0
        g_crc32_status = CRC32_STATUS_FAIL_VECTOR;
     21c:	60178793          	addi	a5,a5,1537 # 43524601 <_sp+0x43518691>
        printf(
     220:	c5870513          	addi	a0,a4,-936 # 7c58 <crc_32_tab+0x400>
        g_crc32_status = CRC32_STATUS_FAIL_VECTOR;
     224:	86f1ac23          	sw	a5,-1928(gp) # 8c58 <g_crc32_status>
        printf(
     228:	29e1                	jal	700 <printf>
            "CRC32 FAIL: vector=%08lx expected=%08lx\n",
            (unsigned long)vector_crc,
            (unsigned long)CRC32_VECTOR_EXPECTED
        );

        return 1;
     22a:	4505                	li	a0,1
        (unsigned long)signature,
        (unsigned long)g_crc32_last
    );

    return 0;
}
     22c:	50f2                	lw	ra,60(sp)
     22e:	5462                	lw	s0,56(sp)
     230:	6121                	addi	sp,sp,64
     232:	8082                	ret
     234:	d64e                	sw	s3,44(sp)
     236:	69a5                	lui	s3,0x9
     238:	ce5e                	sw	s7,28(sp)
     23a:	6605                	lui	a2,0x1
     23c:	c7c98b93          	addi	s7,s3,-900 # 8c7c <g_crc32_data>
    uint32_t state = 0x12345678u;
     240:	12345737          	lui	a4,0x12345
     244:	da26                	sw	s1,52(sp)
     246:	d84a                	sw	s2,48(sp)
     248:	d452                	sw	s4,40(sp)
     24a:	d256                	sw	s5,36(sp)
     24c:	d05a                	sw	s6,32(sp)
     24e:	965e                	add	a2,a2,s7
    if (vector_crc != CRC32_VECTOR_EXPECTED)
     250:	86de                	mv	a3,s7
    uint32_t state = 0x12345678u;
     252:	67870713          	addi	a4,a4,1656 # 12345678 <_sp+0x12339708>
        state ^= state << 13;
     256:	00d71793          	slli	a5,a4,0xd
     25a:	8fb9                	xor	a5,a5,a4
        state ^= state >> 17;
     25c:	0117d713          	srli	a4,a5,0x11
     260:	8fb9                	xor	a5,a5,a4
        state ^= state << 5;
     262:	00579713          	slli	a4,a5,0x5
     266:	8f3d                	xor	a4,a4,a5
        g_crc32_data[i] = (uint8_t)(state >> 24);
     268:	01875793          	srli	a5,a4,0x18
     26c:	00f68023          	sb	a5,0(a3)
    for (uint32_t i = 0u; i < CRC32_DATA_SIZE; ++i)
     270:	0685                	addi	a3,a3,1
     272:	fec692e3          	bne	a3,a2,256 <main+0x86>
    uint32_t signature = 0x13579BDFu;
     276:	1357a937          	lui	s2,0x1357a
        signature ^= crc + 0x9E3779B9u + round;
     27a:	9e378a37          	lui	s4,0x9e378
        uint32_t crc = (uint32_t)crc32buf(
     27e:	c7c98993          	addi	s3,s3,-900
    uint32_t signature = 0x13579BDFu;
     282:	bdf90913          	addi	s2,s2,-1057 # 13579bdf <_sp+0x1356dc6f>
        signature ^= crc + 0x9E3779B9u + round;
     286:	9b9a0a13          	addi	s4,s4,-1607 # 9e3779b9 <_sp+0x9e36ba49>
    for (uint32_t round = 0u; round < CRC32_ROUNDS; ++round)
     28a:	4481                	li	s1,0
     28c:	4b41                	li	s6,16
        uint32_t crc = (uint32_t)crc32buf(
     28e:	6585                	lui	a1,0x1
     290:	854e                	mv	a0,s3
     292:	2a5d                	jal	448 <crc32buf>
        g_crc32_data[index] ^= (uint8_t)(crc >> shift);
     294:	000bc703          	lbu	a4,0(s7)
        uint32_t shift = (round & 3u) * 8u;
     298:	0034f793          	andi	a5,s1,3
     29c:	078e                	slli	a5,a5,0x3
        g_crc32_data[index] ^= (uint8_t)(crc >> shift);
     29e:	00f557b3          	srl	a5,a0,a5
     2a2:	8fb9                	xor	a5,a5,a4
        signature ^= crc + 0x9E3779B9u + round;
     2a4:	009506b3          	add	a3,a0,s1
    return (value << shift) | (value >> (32u - shift));
     2a8:	01b95613          	srli	a2,s2,0x1b
     2ac:	00591713          	slli	a4,s2,0x5
        g_crc32_data[index] ^= (uint8_t)(crc >> shift);
     2b0:	00fb8023          	sb	a5,0(s7)
        signature ^= crc + 0x9E3779B9u + round;
     2b4:	96d2                	add	a3,a3,s4
    return (value << shift) | (value >> (32u - shift));
     2b6:	9732                	add	a4,a4,a2
        g_crc32_last = crc;
     2b8:	88a1a023          	sw	a0,-1920(gp) # 8c60 <g_crc32_last>
    for (uint32_t round = 0u; round < CRC32_ROUNDS; ++round)
     2bc:	0485                	addi	s1,s1,1
     2be:	101b8b93          	addi	s7,s7,257
        signature ^= crc + 0x9E3779B9u + round;
     2c2:	00e6c933          	xor	s2,a3,a4
    for (uint32_t round = 0u; round < CRC32_ROUNDS; ++round)
     2c6:	fd6494e3          	bne	s1,s6,28e <main+0xbe>
    if (signature != CRC32_SIGNATURE_EXPECTED)
     2ca:	2d635637          	lui	a2,0x2d635
    g_crc32_signature = signature;
     2ce:	8721ae23          	sw	s2,-1924(gp) # 8c5c <g_crc32_signature>
    if (signature != CRC32_SIGNATURE_EXPECTED)
     2d2:	2b360613          	addi	a2,a2,691 # 2d6352b3 <_sp+0x2d629343>
        g_crc32_status = CRC32_STATUS_FAIL_RESULT;
     2d6:	435247b7          	lui	a5,0x43524
    if (signature != CRC32_SIGNATURE_EXPECTED)
     2da:	02c91a63          	bne	s2,a2,30e <main+0x13e>
    g_crc32_status = CRC32_STATUS_PASS;
     2de:	35078793          	addi	a5,a5,848 # 43524350 <_sp+0x435183e0>
     2e2:	86f1ac23          	sw	a5,-1928(gp) # 8c58 <g_crc32_status>
    printf(
     2e6:	8801a683          	lw	a3,-1920(gp) # 8c60 <g_crc32_last>
     2ea:	6521                	lui	a0,0x8
     2ec:	cbf445b7          	lui	a1,0xcbf44
     2f0:	864a                	mv	a2,s2
     2f2:	92658593          	addi	a1,a1,-1754 # cbf43926 <_sp+0xcbf379b6>
     2f6:	cbc50513          	addi	a0,a0,-836 # 7cbc <crc_32_tab+0x464>
     2fa:	2119                	jal	700 <printf>
    return 0;
     2fc:	4501                	li	a0,0
     2fe:	54d2                	lw	s1,52(sp)
     300:	5942                	lw	s2,48(sp)
     302:	59b2                	lw	s3,44(sp)
     304:	5a22                	lw	s4,40(sp)
     306:	5a92                	lw	s5,36(sp)
     308:	5b02                	lw	s6,32(sp)
     30a:	4bf2                	lw	s7,28(sp)
     30c:	b705                	j	22c <main+0x5c>
        g_crc32_status = CRC32_STATUS_FAIL_RESULT;
     30e:	60278793          	addi	a5,a5,1538
     312:	86f1ac23          	sw	a5,-1928(gp) # 8c58 <g_crc32_status>
        printf(
     316:	8801a683          	lw	a3,-1920(gp) # 8c60 <g_crc32_last>
     31a:	6521                	lui	a0,0x8
     31c:	85ca                	mv	a1,s2
     31e:	c8450513          	addi	a0,a0,-892 # 7c84 <crc_32_tab+0x42c>
     322:	2ef9                	jal	700 <printf>
        return 2;
     324:	4509                	li	a0,2
     326:	bfe1                	j	2fe <main+0x12e>

00000328 <__no_irq_handler>:
/*	j __no_irq_handler */

.section .text.vecs
/* exception handling */
__no_irq_handler:
	la a0, no_exception_handler_msg
     328:	00007517          	auipc	a0,0x7
     32c:	50d50513          	addi	a0,a0,1293 # 7835 <no_exception_handler_msg>
	jal ra, puts
     330:	47a000ef          	jal	7aa <puts>
	j __no_irq_handler
     334:	ff5ff06f          	j	328 <__no_irq_handler>

00000338 <sw_irq_handler>:


sw_irq_handler:
	csrr t0, mcause
     338:	342022f3          	csrr	t0,mcause
	slli t0, t0, 1  /* shift off the high bit */
     33c:	00129293          	slli	t0,t0,0x1
	srli t0, t0, 1
     340:	0012d293          	srli	t0,t0,0x1
	li t1, 2
     344:	00200313          	li	t1,2
	beq t0, t1, handle_illegal_insn
     348:	02628c63          	beq	t0,t1,380 <handle_illegal_insn>
	li t1, 11
     34c:	00b00313          	li	t1,11
	beq t0, t1, handle_ecall
     350:	00628863          	beq	t0,t1,360 <handle_ecall>
	li t1, 3
     354:	00300313          	li	t1,3
	beq t0, t1, handle_ebreak
     358:	00628c63          	beq	t0,t1,370 <handle_ebreak>
	j handle_unknown
     35c:	0340006f          	j	390 <handle_unknown>

00000360 <handle_ecall>:

handle_ecall:
	la a0, ecall_msg
     360:	00007517          	auipc	a0,0x7
     364:	46f50513          	addi	a0,a0,1135 # 77cf <ecall_msg>
	jal ra, puts
     368:	442000ef          	jal	7aa <puts>
	j end_handler
     36c:	0340006f          	j	3a0 <end_handler>

00000370 <handle_ebreak>:

handle_ebreak:
	la a0, ebreak_msg
     370:	00007517          	auipc	a0,0x7
     374:	48050513          	addi	a0,a0,1152 # 77f0 <ebreak_msg>
	jal ra, puts
     378:	432000ef          	jal	7aa <puts>
	j end_handler
     37c:	0240006f          	j	3a0 <end_handler>

00000380 <handle_illegal_insn>:

handle_illegal_insn:
	la a0, illegal_insn_msg
     380:	00007517          	auipc	a0,0x7
     384:	42050513          	addi	a0,a0,1056 # 77a0 <illegal_insn_msg>
	jal ra, puts
     388:	422000ef          	jal	7aa <puts>
	j end_handler
     38c:	0140006f          	j	3a0 <end_handler>

00000390 <handle_unknown>:

handle_unknown:
	la a0, unknown_msg
     390:	00007517          	auipc	a0,0x7
     394:	48250513          	addi	a0,a0,1154 # 7812 <unknown_msg>
	jal ra, puts
     398:	412000ef          	jal	7aa <puts>
	j end_handler
     39c:	0040006f          	j	3a0 <end_handler>

000003a0 <end_handler>:

end_handler:
	csrr a0, mepc
     3a0:	34102573          	csrr	a0,mepc
	addi a0, a0, 4
     3a4:	00450513          	addi	a0,a0,4
	csrw mepc, a0
     3a8:	34151073          	csrw	mepc,a0
	mret
     3ac:	30200073          	mret

000003b0 <verification_irq_handler>:
/* this interrupt can be generated for verification purposes, random or when the PC is equal to a given value*/
verification_irq_handler:
	mret
     3b0:	30200073          	mret

000003b4 <_close>:
}

int _close(int file)
{
    return -1;
}
     3b4:	557d                	li	a0,-1
     3b6:	8082                	ret

000003b8 <_exit>:
    return -1;
}

void _exit(int exit_status)
{
    *(volatile int *)EXIT_REG = exit_status;
     3b8:	200007b7          	lui	a5,0x20000
     3bc:	c3c8                	sw	a0,4(a5)
    asm volatile("wfi");
     3be:	10500073          	wfi

000003c2 <_fstat>:
    return -1;
}

int _fstat(int file, struct stat *st)
{
    st->st_mode = S_IFCHR;
     3c2:	6789                	lui	a5,0x2
     3c4:	c1dc                	sw	a5,4(a1)
    return 0;
    // errno = -ENOSYS;
    // return -1;
}
     3c6:	4501                	li	a0,0
     3c8:	8082                	ret

000003ca <_getpid>:
}

int _getpid()
{
    return 1;
}
     3ca:	4505                	li	a0,1
     3cc:	8082                	ret

000003ce <_isatty>:
    return -1;
}

int _isatty(int file)
{
    return (file == STDOUT_FILENO);
     3ce:	157d                	addi	a0,a0,-1
}
     3d0:	00153513          	seqz	a0,a0
     3d4:	8082                	ret

000003d6 <_kill>:

int _kill(int pid, int sig)
{
    errno = EINVAL;
     3d6:	4759                	li	a4,22
     3d8:	88e1a423          	sw	a4,-1912(gp) # 8c68 <errno>
    return -1;
}
     3dc:	557d                	li	a0,-1
     3de:	8082                	ret

000003e0 <_lseek>:
}

off_t _lseek(int file, off_t ptr, int dir)
{
    return 0;
}
     3e0:	4501                	li	a0,0
     3e2:	8082                	ret

000003e4 <_read>:
}

ssize_t _read(int file, void *ptr, size_t len)
{
    return 0;
}
     3e4:	4501                	li	a0,0
     3e6:	8082                	ret

000003e8 <_write>:
    return -1;
}

ssize_t _write(int file, const void *ptr, size_t len)
{
    if (file != STDOUT_FILENO) {
     3e8:	4785                	li	a5,1
     3ea:	02f51063          	bne	a0,a5,40a <_write+0x22>
        errno = ENOSYS;
        return -1;
    }

    const void *eptr = ptr + len;
     3ee:	00c58733          	add	a4,a1,a2
    while (ptr != eptr)
     3f2:	00e58a63          	beq	a1,a4,406 <_write+0x1e>
        *(volatile int *)STDOUT_REG = *(char *)(ptr++);
     3f6:	100006b7          	lui	a3,0x10000
     3fa:	0005c783          	lbu	a5,0(a1)
     3fe:	0585                	addi	a1,a1,1
     400:	c29c                	sw	a5,0(a3)
    while (ptr != eptr)
     402:	feb71ce3          	bne	a4,a1,3fa <_write+0x12>
    return len;
     406:	8532                	mv	a0,a2
}
     408:	8082                	ret
        errno = ENOSYS;
     40a:	05800713          	li	a4,88
     40e:	88e1a423          	sw	a4,-1912(gp) # 8c68 <errno>
        return -1;
     412:	557d                	li	a0,-1
     414:	8082                	ret

00000416 <_sbrk>:

void *_sbrk(ptrdiff_t incr)
{
    char *old_brk = brk;

    if (__heap_start == __heap_end) {
     416:	6729                	lui	a4,0xa
     418:	67ad                	lui	a5,0xb
     41a:	f6c70713          	addi	a4,a4,-148 # 9f6c <__BSS_END__>
     41e:	f6c78793          	addi	a5,a5,-148 # af6c <__heap_end>
     422:	02f70163          	beq	a4,a5,444 <_sbrk+0x2e>
    char *old_brk = brk;
     426:	8681a683          	lw	a3,-1944(gp) # 8c48 <brk>
        return NULL;
    }

    if ((brk += incr) < __heap_end) {
     42a:	00a68733          	add	a4,a3,a0
     42e:	00f76663          	bltu	a4,a5,43a <_sbrk+0x24>
        brk += incr;
    } else {
        brk = __heap_end;
     432:	86f1a423          	sw	a5,-1944(gp) # 8c48 <brk>
    }
    return old_brk;
}
     436:	8536                	mv	a0,a3
     438:	8082                	ret
        brk += incr;
     43a:	972a                	add	a4,a4,a0
     43c:	86e1a423          	sw	a4,-1944(gp) # 8c48 <brk>
}
     440:	8536                	mv	a0,a3
     442:	8082                	ret
        return NULL;
     444:	4681                	li	a3,0
     446:	bfc5                	j	436 <_sbrk+0x20>

00000448 <crc32buf>:
{
      register DWORD oldcrc32;

      oldcrc32 = 0xFFFFFFFF;

      for ( ; len; --len, ++buf)
     448:	c59d                	beqz	a1,476 <crc32buf+0x2e>
     44a:	6621                	lui	a2,0x8
     44c:	95aa                	add	a1,a1,a0
     44e:	85860613          	addi	a2,a2,-1960 # 7858 <crc_32_tab>
      oldcrc32 = 0xFFFFFFFF;
     452:	577d                	li	a4,-1
      {
            oldcrc32 = UPDC32(*buf, oldcrc32);
     454:	00054783          	lbu	a5,0(a0)
     458:	00875693          	srli	a3,a4,0x8
      for ( ; len; --len, ++buf)
     45c:	0505                	addi	a0,a0,1
            oldcrc32 = UPDC32(*buf, oldcrc32);
     45e:	8fb9                	xor	a5,a5,a4
     460:	0ff7f793          	zext.b	a5,a5
     464:	078a                	slli	a5,a5,0x2
     466:	97b2                	add	a5,a5,a2
     468:	4398                	lw	a4,0(a5)
     46a:	8f35                	xor	a4,a4,a3
      for ( ; len; --len, ++buf)
     46c:	feb514e3          	bne	a0,a1,454 <crc32buf+0xc>
      }

      return ~oldcrc32;
     470:	fff74513          	not	a0,a4
     474:	8082                	ret
      for ( ; len; --len, ++buf)
     476:	4501                	li	a0,0
      
}
     478:	8082                	ret

0000047a <atexit>:
     47a:	85aa                	mv	a1,a0
     47c:	4681                	li	a3,0
     47e:	4601                	li	a2,0
     480:	4501                	li	a0,0
     482:	a3b1                	j	9ce <__register_exitproc>

00000484 <exit>:
     484:	1141                	addi	sp,sp,-16
     486:	4581                	li	a1,0
     488:	c422                	sw	s0,8(sp)
     48a:	c606                	sw	ra,12(sp)
     48c:	842a                	mv	s0,a0
     48e:	2b79                	jal	a2c <__call_exitprocs>
     490:	8841a783          	lw	a5,-1916(gp) # 8c64 <__stdio_exit_handler>
     494:	c391                	beqz	a5,498 <exit+0x14>
     496:	9782                	jalr	a5
     498:	8522                	mv	a0,s0
     49a:	3f39                	jal	3b8 <_exit>

0000049c <__fp_lock>:
     49c:	4501                	li	a0,0
     49e:	8082                	ret

000004a0 <std>:
     4a0:	1141                	addi	sp,sp,-16
     4a2:	c422                	sw	s0,8(sp)
     4a4:	c606                	sw	ra,12(sp)
     4a6:	842a                	mv	s0,a0
     4a8:	00b51623          	sh	a1,12(a0)
     4ac:	00c51723          	sh	a2,14(a0)
     4b0:	00052023          	sw	zero,0(a0)
     4b4:	00052223          	sw	zero,4(a0)
     4b8:	00052423          	sw	zero,8(a0)
     4bc:	06052223          	sw	zero,100(a0)
     4c0:	00052823          	sw	zero,16(a0)
     4c4:	00052a23          	sw	zero,20(a0)
     4c8:	00052c23          	sw	zero,24(a0)
     4cc:	4621                	li	a2,8
     4ce:	4581                	li	a1,0
     4d0:	05c50513          	addi	a0,a0,92
     4d4:	29e1                	jal	9ac <memset>
     4d6:	4781                	li	a5,0
     4d8:	7b200793          	li	a5,1970
     4dc:	d01c                	sw	a5,32(s0)
     4de:	4781                	li	a5,0
     4e0:	7e600793          	li	a5,2022
     4e4:	d05c                	sw	a5,36(s0)
     4e6:	6785                	lui	a5,0x1
     4e8:	83478793          	addi	a5,a5,-1996 # 834 <__sseek>
     4ec:	d41c                	sw	a5,40(s0)
     4ee:	6785                	lui	a5,0x1
     4f0:	86a78793          	addi	a5,a5,-1942 # 86a <__sclose>
     4f4:	40b2                	lw	ra,12(sp)
     4f6:	cc40                	sw	s0,28(s0)
     4f8:	d45c                	sw	a5,44(s0)
     4fa:	4422                	lw	s0,8(sp)
     4fc:	0141                	addi	sp,sp,16
     4fe:	8082                	ret

00000500 <stdio_exit_handler>:
     500:	6621                	lui	a2,0x8
     502:	6589                	lui	a1,0x2
     504:	6521                	lui	a0,0x8
     506:	53860613          	addi	a2,a2,1336 # 8538 <__sglue>
     50a:	71c58593          	addi	a1,a1,1820 # 271c <_fclose_r>
     50e:	54850513          	addi	a0,a0,1352 # 8548 <_impure_data>
     512:	a2b5                	j	67e <_fwalk_sglue>

00000514 <cleanup_stdio>:
     514:	1141                	addi	sp,sp,-16
     516:	414c                	lw	a1,4(a0)
     518:	c422                	sw	s0,8(sp)
     51a:	6429                	lui	s0,0xa
     51c:	c226                	sw	s1,4(sp)
     51e:	c606                	sw	ra,12(sp)
     520:	c7c40413          	addi	s0,s0,-900 # 9c7c <__sf>
     524:	84aa                	mv	s1,a0
     526:	00858463          	beq	a1,s0,52e <cleanup_stdio+0x1a>
     52a:	1f2020ef          	jal	271c <_fclose_r>
     52e:	448c                	lw	a1,8(s1)
     530:	06840793          	addi	a5,s0,104
     534:	00f58563          	beq	a1,a5,53e <cleanup_stdio+0x2a>
     538:	8526                	mv	a0,s1
     53a:	1e2020ef          	jal	271c <_fclose_r>
     53e:	44cc                	lw	a1,12(s1)
     540:	0d040413          	addi	s0,s0,208
     544:	00858963          	beq	a1,s0,556 <cleanup_stdio+0x42>
     548:	4422                	lw	s0,8(sp)
     54a:	40b2                	lw	ra,12(sp)
     54c:	8526                	mv	a0,s1
     54e:	4492                	lw	s1,4(sp)
     550:	0141                	addi	sp,sp,16
     552:	1ca0206f          	j	271c <_fclose_r>
     556:	40b2                	lw	ra,12(sp)
     558:	4422                	lw	s0,8(sp)
     55a:	4492                	lw	s1,4(sp)
     55c:	0141                	addi	sp,sp,16
     55e:	8082                	ret

00000560 <global_stdio_init.part.0>:
     560:	1141                	addi	sp,sp,-16
     562:	c422                	sw	s0,8(sp)
     564:	6429                	lui	s0,0xa
     566:	c7c40413          	addi	s0,s0,-900 # 9c7c <__sf>
     56a:	50000793          	li	a5,1280
     56e:	8522                	mv	a0,s0
     570:	4601                	li	a2,0
     572:	4591                	li	a1,4
     574:	c606                	sw	ra,12(sp)
     576:	88f1a223          	sw	a5,-1916(gp) # 8c64 <__stdio_exit_handler>
     57a:	371d                	jal	4a0 <std>
     57c:	06840513          	addi	a0,s0,104
     580:	4605                	li	a2,1
     582:	45a5                	li	a1,9
     584:	3f31                	jal	4a0 <std>
     586:	0d040513          	addi	a0,s0,208
     58a:	4422                	lw	s0,8(sp)
     58c:	40b2                	lw	ra,12(sp)
     58e:	4609                	li	a2,2
     590:	45c9                	li	a1,18
     592:	0141                	addi	sp,sp,16
     594:	b731                	j	4a0 <std>

00000596 <__fp_unlock>:
     596:	4501                	li	a0,0
     598:	8082                	ret

0000059a <__sfp>:
     59a:	8841a783          	lw	a5,-1916(gp) # 8c64 <__stdio_exit_handler>
     59e:	1141                	addi	sp,sp,-16
     5a0:	c04a                	sw	s2,0(sp)
     5a2:	c606                	sw	ra,12(sp)
     5a4:	c422                	sw	s0,8(sp)
     5a6:	c226                	sw	s1,4(sp)
     5a8:	892a                	mv	s2,a0
     5aa:	e391                	bnez	a5,5ae <__sfp+0x14>
     5ac:	3f55                	jal	560 <global_stdio_init.part.0>
     5ae:	64a1                	lui	s1,0x8
     5b0:	53848493          	addi	s1,s1,1336 # 8538 <__sglue>
     5b4:	4480                	lw	s0,8(s1)
     5b6:	40dc                	lw	a5,4(s1)
     5b8:	17fd                	addi	a5,a5,-1
     5ba:	0207d063          	bgez	a5,5da <__sfp+0x40>
     5be:	4080                	lw	s0,0(s1)
     5c0:	e059                	bnez	s0,646 <__sfp+0xac>
     5c2:	1ac00593          	li	a1,428
     5c6:	854a                	mv	a0,s2
     5c8:	2fa9                	jal	d22 <_malloc_r>
     5ca:	842a                	mv	s0,a0
     5cc:	e135                	bnez	a0,630 <__sfp+0x96>
     5ce:	0004a023          	sw	zero,0(s1)
     5d2:	47b1                	li	a5,12
     5d4:	00f92023          	sw	a5,0(s2)
     5d8:	a091                	j	61c <__sfp+0x82>
     5da:	00c41703          	lh	a4,12(s0)
     5de:	e731                	bnez	a4,62a <__sfp+0x90>
     5e0:	77c1                	lui	a5,0xffff0
     5e2:	0785                	addi	a5,a5,1 # ffff0001 <_sp+0xfffe4091>
     5e4:	06042223          	sw	zero,100(s0)
     5e8:	00042023          	sw	zero,0(s0)
     5ec:	00042223          	sw	zero,4(s0)
     5f0:	00042423          	sw	zero,8(s0)
     5f4:	c45c                	sw	a5,12(s0)
     5f6:	00042823          	sw	zero,16(s0)
     5fa:	00042a23          	sw	zero,20(s0)
     5fe:	00042c23          	sw	zero,24(s0)
     602:	4621                	li	a2,8
     604:	4581                	li	a1,0
     606:	05c40513          	addi	a0,s0,92
     60a:	264d                	jal	9ac <memset>
     60c:	02042823          	sw	zero,48(s0)
     610:	02042a23          	sw	zero,52(s0)
     614:	04042223          	sw	zero,68(s0)
     618:	04042423          	sw	zero,72(s0)
     61c:	40b2                	lw	ra,12(sp)
     61e:	8522                	mv	a0,s0
     620:	4422                	lw	s0,8(sp)
     622:	4492                	lw	s1,4(sp)
     624:	4902                	lw	s2,0(sp)
     626:	0141                	addi	sp,sp,16
     628:	8082                	ret
     62a:	06840413          	addi	s0,s0,104
     62e:	b769                	j	5b8 <__sfp+0x1e>
     630:	4791                	li	a5,4
     632:	00052023          	sw	zero,0(a0)
     636:	c15c                	sw	a5,4(a0)
     638:	0531                	addi	a0,a0,12
     63a:	c408                	sw	a0,8(s0)
     63c:	1a000613          	li	a2,416
     640:	4581                	li	a1,0
     642:	26ad                	jal	9ac <memset>
     644:	c080                	sw	s0,0(s1)
     646:	84a2                	mv	s1,s0
     648:	b7b5                	j	5b4 <__sfp+0x1a>

0000064a <__sinit>:
     64a:	595c                	lw	a5,52(a0)
     64c:	eb81                	bnez	a5,65c <__sinit+0x12>
     64e:	51400793          	li	a5,1300
     652:	d95c                	sw	a5,52(a0)
     654:	8841a783          	lw	a5,-1916(gp) # 8c64 <__stdio_exit_handler>
     658:	e391                	bnez	a5,65c <__sinit+0x12>
     65a:	b719                	j	560 <global_stdio_init.part.0>
     65c:	8082                	ret

0000065e <__sfp_lock_acquire>:
     65e:	8082                	ret

00000660 <__sfp_lock_release>:
     660:	8082                	ret

00000662 <__fp_lock_all>:
     662:	6621                	lui	a2,0x8
     664:	53860613          	addi	a2,a2,1336 # 8538 <__sglue>
     668:	49c00593          	li	a1,1180
     66c:	4501                	li	a0,0
     66e:	a801                	j	67e <_fwalk_sglue>

00000670 <__fp_unlock_all>:
     670:	6621                	lui	a2,0x8
     672:	53860613          	addi	a2,a2,1336 # 8538 <__sglue>
     676:	59600593          	li	a1,1430
     67a:	4501                	li	a0,0
     67c:	a009                	j	67e <_fwalk_sglue>

0000067e <_fwalk_sglue>:
     67e:	7179                	addi	sp,sp,-48
     680:	d422                	sw	s0,40(sp)
     682:	d04a                	sw	s2,32(sp)
     684:	ce4e                	sw	s3,28(sp)
     686:	cc52                	sw	s4,24(sp)
     688:	ca56                	sw	s5,20(sp)
     68a:	d606                	sw	ra,44(sp)
     68c:	d226                	sw	s1,36(sp)
     68e:	8a2a                	mv	s4,a0
     690:	8aae                	mv	s5,a1
     692:	4401                	li	s0,0
     694:	4905                	li	s2,1
     696:	59fd                	li	s3,-1
     698:	460c                	lw	a1,8(a2)
     69a:	4244                	lw	s1,4(a2)
     69c:	14fd                	addi	s1,s1,-1
     69e:	0004de63          	bgez	s1,6ba <_fwalk_sglue+0x3c>
     6a2:	4210                	lw	a2,0(a2)
     6a4:	fa75                	bnez	a2,698 <_fwalk_sglue+0x1a>
     6a6:	50b2                	lw	ra,44(sp)
     6a8:	8522                	mv	a0,s0
     6aa:	5422                	lw	s0,40(sp)
     6ac:	5492                	lw	s1,36(sp)
     6ae:	5902                	lw	s2,32(sp)
     6b0:	49f2                	lw	s3,28(sp)
     6b2:	4a62                	lw	s4,24(sp)
     6b4:	4ad2                	lw	s5,20(sp)
     6b6:	6145                	addi	sp,sp,48
     6b8:	8082                	ret
     6ba:	00c5d783          	lhu	a5,12(a1)
     6be:	00f97d63          	bgeu	s2,a5,6d8 <_fwalk_sglue+0x5a>
     6c2:	00e59783          	lh	a5,14(a1)
     6c6:	01378963          	beq	a5,s3,6d8 <_fwalk_sglue+0x5a>
     6ca:	8552                	mv	a0,s4
     6cc:	c632                	sw	a2,12(sp)
     6ce:	c42e                	sw	a1,8(sp)
     6d0:	9a82                	jalr	s5
     6d2:	4632                	lw	a2,12(sp)
     6d4:	45a2                	lw	a1,8(sp)
     6d6:	8c49                	or	s0,s0,a0
     6d8:	06858593          	addi	a1,a1,104
     6dc:	b7c1                	j	69c <_fwalk_sglue+0x1e>

000006de <_printf_r>:
     6de:	7139                	addi	sp,sp,-64
     6e0:	d432                	sw	a2,40(sp)
     6e2:	d636                	sw	a3,44(sp)
     6e4:	d83a                	sw	a4,48(sp)
     6e6:	da3e                	sw	a5,52(sp)
     6e8:	dc42                	sw	a6,56(sp)
     6ea:	de46                	sw	a7,60(sp)
     6ec:	862e                	mv	a2,a1
     6ee:	450c                	lw	a1,8(a0)
     6f0:	1034                	addi	a3,sp,40
     6f2:	ce06                	sw	ra,28(sp)
     6f4:	c636                	sw	a3,12(sp)
     6f6:	2bd000ef          	jal	11b2 <_vfprintf_r>
     6fa:	40f2                	lw	ra,28(sp)
     6fc:	6121                	addi	sp,sp,64
     6fe:	8082                	ret

00000700 <printf>:
     700:	7139                	addi	sp,sp,-64
     702:	da3e                	sw	a5,52(sp)
     704:	86c1a783          	lw	a5,-1940(gp) # 8c4c <_impure_ptr>
     708:	d432                	sw	a2,40(sp)
     70a:	d636                	sw	a3,44(sp)
     70c:	d22e                	sw	a1,36(sp)
     70e:	d83a                	sw	a4,48(sp)
     710:	dc42                	sw	a6,56(sp)
     712:	de46                	sw	a7,60(sp)
     714:	478c                	lw	a1,8(a5)
     716:	1054                	addi	a3,sp,36
     718:	862a                	mv	a2,a0
     71a:	853e                	mv	a0,a5
     71c:	ce06                	sw	ra,28(sp)
     71e:	c636                	sw	a3,12(sp)
     720:	293000ef          	jal	11b2 <_vfprintf_r>
     724:	40f2                	lw	ra,28(sp)
     726:	6121                	addi	sp,sp,64
     728:	8082                	ret

0000072a <_puts_r>:
     72a:	7139                	addi	sp,sp,-64
     72c:	dc22                	sw	s0,56(sp)
     72e:	842a                	mv	s0,a0
     730:	852e                	mv	a0,a1
     732:	c62e                	sw	a1,12(sp)
     734:	de06                	sw	ra,60(sp)
     736:	2459                	jal	9bc <strlen>
     738:	67a1                	lui	a5,0x8
     73a:	cf478793          	addi	a5,a5,-780 # 7cf4 <crc_32_tab+0x49c>
     73e:	d43e                	sw	a5,40(sp)
     740:	4785                	li	a5,1
     742:	d22a                	sw	a0,36(sp)
     744:	d63e                	sw	a5,44(sp)
     746:	953e                	add	a0,a0,a5
     748:	101c                	addi	a5,sp,32
     74a:	45b2                	lw	a1,12(sp)
     74c:	ca3e                	sw	a5,20(sp)
     74e:	4789                	li	a5,2
     750:	cc3e                	sw	a5,24(sp)
     752:	585c                	lw	a5,52(s0)
     754:	d02e                	sw	a1,32(sp)
     756:	ce2a                	sw	a0,28(sp)
     758:	440c                	lw	a1,8(s0)
     75a:	e789                	bnez	a5,764 <_puts_r+0x3a>
     75c:	8522                	mv	a0,s0
     75e:	c62e                	sw	a1,12(sp)
     760:	35ed                	jal	64a <__sinit>
     762:	45b2                	lw	a1,12(sp)
     764:	00c59703          	lh	a4,12(a1)
     768:	51fc                	lw	a5,100(a1)
     76a:	01271693          	slli	a3,a4,0x12
     76e:	0206c563          	bltz	a3,798 <_puts_r+0x6e>
     772:	6689                	lui	a3,0x2
     774:	8f55                	or	a4,a4,a3
     776:	00e59623          	sh	a4,12(a1)
     77a:	7779                	lui	a4,0xffffe
     77c:	177d                	addi	a4,a4,-1 # ffffdfff <_sp+0xffff208f>
     77e:	8ff9                	and	a5,a5,a4
     780:	d1fc                	sw	a5,100(a1)
     782:	0850                	addi	a2,sp,20
     784:	8522                	mv	a0,s0
     786:	1da020ef          	jal	2960 <__sfvwrite_r>
     78a:	00a03533          	snez	a0,a0
     78e:	40a00533          	neg	a0,a0
     792:	00a56513          	ori	a0,a0,10
     796:	a031                	j	7a2 <_puts_r+0x78>
     798:	01279713          	slli	a4,a5,0x12
     79c:	557d                	li	a0,-1
     79e:	fe0752e3          	bgez	a4,782 <_puts_r+0x58>
     7a2:	50f2                	lw	ra,60(sp)
     7a4:	5462                	lw	s0,56(sp)
     7a6:	6121                	addi	sp,sp,64
     7a8:	8082                	ret

000007aa <puts>:
     7aa:	85aa                	mv	a1,a0
     7ac:	86c1a503          	lw	a0,-1940(gp) # 8c4c <_impure_ptr>
     7b0:	bfad                	j	72a <_puts_r>

000007b2 <__sread>:
     7b2:	1141                	addi	sp,sp,-16
     7b4:	c422                	sw	s0,8(sp)
     7b6:	842e                	mv	s0,a1
     7b8:	00e59583          	lh	a1,14(a1)
     7bc:	c606                	sw	ra,12(sp)
     7be:	2229                	jal	8c8 <_read_r>
     7c0:	00054963          	bltz	a0,7d2 <__sread+0x20>
     7c4:	483c                	lw	a5,80(s0)
     7c6:	97aa                	add	a5,a5,a0
     7c8:	c83c                	sw	a5,80(s0)
     7ca:	40b2                	lw	ra,12(sp)
     7cc:	4422                	lw	s0,8(sp)
     7ce:	0141                	addi	sp,sp,16
     7d0:	8082                	ret
     7d2:	00c45783          	lhu	a5,12(s0)
     7d6:	777d                	lui	a4,0xfffff
     7d8:	177d                	addi	a4,a4,-1 # ffffefff <_sp+0xffff308f>
     7da:	8ff9                	and	a5,a5,a4
     7dc:	00f41623          	sh	a5,12(s0)
     7e0:	b7ed                	j	7ca <__sread+0x18>

000007e2 <__seofread>:
     7e2:	4501                	li	a0,0
     7e4:	8082                	ret

000007e6 <__swrite>:
     7e6:	00c5d783          	lhu	a5,12(a1)
     7ea:	1101                	addi	sp,sp,-32
     7ec:	cc22                	sw	s0,24(sp)
     7ee:	ca26                	sw	s1,20(sp)
     7f0:	c84a                	sw	s2,16(sp)
     7f2:	c64e                	sw	s3,12(sp)
     7f4:	ce06                	sw	ra,28(sp)
     7f6:	1007f793          	andi	a5,a5,256
     7fa:	84aa                	mv	s1,a0
     7fc:	842e                	mv	s0,a1
     7fe:	8932                	mv	s2,a2
     800:	89b6                	mv	s3,a3
     802:	c791                	beqz	a5,80e <__swrite+0x28>
     804:	00e59583          	lh	a1,14(a1)
     808:	4689                	li	a3,2
     80a:	4601                	li	a2,0
     80c:	2079                	jal	89a <_lseek_r>
     80e:	00c45783          	lhu	a5,12(s0)
     812:	777d                	lui	a4,0xfffff
     814:	177d                	addi	a4,a4,-1 # ffffefff <_sp+0xffff308f>
     816:	8ff9                	and	a5,a5,a4
     818:	00e41583          	lh	a1,14(s0)
     81c:	00f41623          	sh	a5,12(s0)
     820:	4462                	lw	s0,24(sp)
     822:	40f2                	lw	ra,28(sp)
     824:	86ce                	mv	a3,s3
     826:	864a                	mv	a2,s2
     828:	49b2                	lw	s3,12(sp)
     82a:	4942                	lw	s2,16(sp)
     82c:	8526                	mv	a0,s1
     82e:	44d2                	lw	s1,20(sp)
     830:	6105                	addi	sp,sp,32
     832:	a0d1                	j	8f6 <_write_r>

00000834 <__sseek>:
     834:	1141                	addi	sp,sp,-16
     836:	c422                	sw	s0,8(sp)
     838:	842e                	mv	s0,a1
     83a:	00e59583          	lh	a1,14(a1)
     83e:	c606                	sw	ra,12(sp)
     840:	28a9                	jal	89a <_lseek_r>
     842:	577d                	li	a4,-1
     844:	00c41783          	lh	a5,12(s0)
     848:	00e51b63          	bne	a0,a4,85e <__sseek+0x2a>
     84c:	777d                	lui	a4,0xfffff
     84e:	972a                	add	a4,a4,a0
     850:	8ff9                	and	a5,a5,a4
     852:	00f41623          	sh	a5,12(s0)
     856:	40b2                	lw	ra,12(sp)
     858:	4422                	lw	s0,8(sp)
     85a:	0141                	addi	sp,sp,16
     85c:	8082                	ret
     85e:	6705                	lui	a4,0x1
     860:	8fd9                	or	a5,a5,a4
     862:	00f41623          	sh	a5,12(s0)
     866:	c828                	sw	a0,80(s0)
     868:	b7fd                	j	856 <__sseek+0x22>

0000086a <__sclose>:
     86a:	00e59583          	lh	a1,14(a1)
     86e:	a009                	j	870 <_close_r>

00000870 <_close_r>:
     870:	1141                	addi	sp,sp,-16
     872:	c422                	sw	s0,8(sp)
     874:	c226                	sw	s1,4(sp)
     876:	84aa                	mv	s1,a0
     878:	852e                	mv	a0,a1
     87a:	c606                	sw	ra,12(sp)
     87c:	8801a423          	sw	zero,-1912(gp) # 8c68 <errno>
     880:	3e15                	jal	3b4 <_close>
     882:	57fd                	li	a5,-1
     884:	00f51663          	bne	a0,a5,890 <_close_r+0x20>
     888:	8881a783          	lw	a5,-1912(gp) # 8c68 <errno>
     88c:	c391                	beqz	a5,890 <_close_r+0x20>
     88e:	c09c                	sw	a5,0(s1)
     890:	40b2                	lw	ra,12(sp)
     892:	4422                	lw	s0,8(sp)
     894:	4492                	lw	s1,4(sp)
     896:	0141                	addi	sp,sp,16
     898:	8082                	ret

0000089a <_lseek_r>:
     89a:	1141                	addi	sp,sp,-16
     89c:	c422                	sw	s0,8(sp)
     89e:	c226                	sw	s1,4(sp)
     8a0:	84aa                	mv	s1,a0
     8a2:	852e                	mv	a0,a1
     8a4:	85b2                	mv	a1,a2
     8a6:	8636                	mv	a2,a3
     8a8:	c606                	sw	ra,12(sp)
     8aa:	8801a423          	sw	zero,-1912(gp) # 8c68 <errno>
     8ae:	3e0d                	jal	3e0 <_lseek>
     8b0:	57fd                	li	a5,-1
     8b2:	00f51663          	bne	a0,a5,8be <_lseek_r+0x24>
     8b6:	8881a783          	lw	a5,-1912(gp) # 8c68 <errno>
     8ba:	c391                	beqz	a5,8be <_lseek_r+0x24>
     8bc:	c09c                	sw	a5,0(s1)
     8be:	40b2                	lw	ra,12(sp)
     8c0:	4422                	lw	s0,8(sp)
     8c2:	4492                	lw	s1,4(sp)
     8c4:	0141                	addi	sp,sp,16
     8c6:	8082                	ret

000008c8 <_read_r>:
     8c8:	1141                	addi	sp,sp,-16
     8ca:	c422                	sw	s0,8(sp)
     8cc:	c226                	sw	s1,4(sp)
     8ce:	84aa                	mv	s1,a0
     8d0:	852e                	mv	a0,a1
     8d2:	85b2                	mv	a1,a2
     8d4:	8636                	mv	a2,a3
     8d6:	c606                	sw	ra,12(sp)
     8d8:	8801a423          	sw	zero,-1912(gp) # 8c68 <errno>
     8dc:	3621                	jal	3e4 <_read>
     8de:	57fd                	li	a5,-1
     8e0:	00f51663          	bne	a0,a5,8ec <_read_r+0x24>
     8e4:	8881a783          	lw	a5,-1912(gp) # 8c68 <errno>
     8e8:	c391                	beqz	a5,8ec <_read_r+0x24>
     8ea:	c09c                	sw	a5,0(s1)
     8ec:	40b2                	lw	ra,12(sp)
     8ee:	4422                	lw	s0,8(sp)
     8f0:	4492                	lw	s1,4(sp)
     8f2:	0141                	addi	sp,sp,16
     8f4:	8082                	ret

000008f6 <_write_r>:
     8f6:	1141                	addi	sp,sp,-16
     8f8:	c422                	sw	s0,8(sp)
     8fa:	c226                	sw	s1,4(sp)
     8fc:	84aa                	mv	s1,a0
     8fe:	852e                	mv	a0,a1
     900:	85b2                	mv	a1,a2
     902:	8636                	mv	a2,a3
     904:	c606                	sw	ra,12(sp)
     906:	8801a423          	sw	zero,-1912(gp) # 8c68 <errno>
     90a:	3cf9                	jal	3e8 <_write>
     90c:	57fd                	li	a5,-1
     90e:	00f51663          	bne	a0,a5,91a <_write_r+0x24>
     912:	8881a783          	lw	a5,-1912(gp) # 8c68 <errno>
     916:	c391                	beqz	a5,91a <_write_r+0x24>
     918:	c09c                	sw	a5,0(s1)
     91a:	40b2                	lw	ra,12(sp)
     91c:	4422                	lw	s0,8(sp)
     91e:	4492                	lw	s1,4(sp)
     920:	0141                	addi	sp,sp,16
     922:	8082                	ret

00000924 <__libc_init_array>:
     924:	1141                	addi	sp,sp,-16
     926:	c422                	sw	s0,8(sp)
     928:	c226                	sw	s1,4(sp)
     92a:	6421                	lui	s0,0x8
     92c:	64a1                	lui	s1,0x8
     92e:	53440413          	addi	s0,s0,1332 # 8534 <__fini_array_end>
     932:	53448493          	addi	s1,s1,1332 # 8534 <__fini_array_end>
     936:	8c81                	sub	s1,s1,s0
     938:	c04a                	sw	s2,0(sp)
     93a:	c606                	sw	ra,12(sp)
     93c:	8489                	srai	s1,s1,0x2
     93e:	4901                	li	s2,0
     940:	02991363          	bne	s2,s1,966 <__libc_init_array+0x42>
     944:	6421                	lui	s0,0x8
     946:	64a1                	lui	s1,0x8
     948:	53440413          	addi	s0,s0,1332 # 8534 <__fini_array_end>
     94c:	53448493          	addi	s1,s1,1332 # 8534 <__fini_array_end>
     950:	8c81                	sub	s1,s1,s0
     952:	8489                	srai	s1,s1,0x2
     954:	4901                	li	s2,0
     956:	00991d63          	bne	s2,s1,970 <__libc_init_array+0x4c>
     95a:	40b2                	lw	ra,12(sp)
     95c:	4422                	lw	s0,8(sp)
     95e:	4492                	lw	s1,4(sp)
     960:	4902                	lw	s2,0(sp)
     962:	0141                	addi	sp,sp,16
     964:	8082                	ret
     966:	401c                	lw	a5,0(s0)
     968:	0905                	addi	s2,s2,1
     96a:	0411                	addi	s0,s0,4
     96c:	9782                	jalr	a5
     96e:	bfc9                	j	940 <__libc_init_array+0x1c>
     970:	401c                	lw	a5,0(s0)
     972:	0905                	addi	s2,s2,1
     974:	0411                	addi	s0,s0,4
     976:	9782                	jalr	a5
     978:	bff9                	j	956 <__libc_init_array+0x32>

0000097a <__libc_fini_array>:
     97a:	1141                	addi	sp,sp,-16
     97c:	c422                	sw	s0,8(sp)
     97e:	c226                	sw	s1,4(sp)
     980:	6421                	lui	s0,0x8
     982:	64a1                	lui	s1,0x8
     984:	53448493          	addi	s1,s1,1332 # 8534 <__fini_array_end>
     988:	53440413          	addi	s0,s0,1332 # 8534 <__fini_array_end>
     98c:	8c05                	sub	s0,s0,s1
     98e:	c606                	sw	ra,12(sp)
     990:	8409                	srai	s0,s0,0x2
     992:	e411                	bnez	s0,99e <__libc_fini_array+0x24>
     994:	40b2                	lw	ra,12(sp)
     996:	4422                	lw	s0,8(sp)
     998:	4492                	lw	s1,4(sp)
     99a:	0141                	addi	sp,sp,16
     99c:	8082                	ret
     99e:	147d                	addi	s0,s0,-1
     9a0:	00241793          	slli	a5,s0,0x2
     9a4:	97a6                	add	a5,a5,s1
     9a6:	439c                	lw	a5,0(a5)
     9a8:	9782                	jalr	a5
     9aa:	b7e5                	j	992 <__libc_fini_array+0x18>

000009ac <memset>:
     9ac:	86aa                	mv	a3,a0
     9ae:	c611                	beqz	a2,9ba <memset+0xe>
     9b0:	00b68023          	sb	a1,0(a3) # 2000 <_vfprintf_r+0xe4e>
     9b4:	167d                	addi	a2,a2,-1
     9b6:	0685                	addi	a3,a3,1
     9b8:	fe65                	bnez	a2,9b0 <memset+0x4>
     9ba:	8082                	ret

000009bc <strlen>:
     9bc:	87aa                	mv	a5,a0
     9be:	0007c703          	lbu	a4,0(a5)
     9c2:	0785                	addi	a5,a5,1
     9c4:	ff6d                	bnez	a4,9be <strlen+0x2>
     9c6:	40a78533          	sub	a0,a5,a0
     9ca:	157d                	addi	a0,a0,-1
     9cc:	8082                	ret

000009ce <__register_exitproc>:
     9ce:	88c1a783          	lw	a5,-1908(gp) # 8c6c <__atexit>
     9d2:	832a                	mv	t1,a0
     9d4:	e791                	bnez	a5,9e0 <__register_exitproc+0x12>
     9d6:	67a9                	lui	a5,0xa
     9d8:	db478793          	addi	a5,a5,-588 # 9db4 <__atexit0>
     9dc:	88f1a623          	sw	a5,-1908(gp) # 8c6c <__atexit>
     9e0:	43d8                	lw	a4,4(a5)
     9e2:	487d                	li	a6,31
     9e4:	557d                	li	a0,-1
     9e6:	04e84263          	blt	a6,a4,a2a <__register_exitproc+0x5c>
     9ea:	00271893          	slli	a7,a4,0x2
     9ee:	02030963          	beqz	t1,a20 <__register_exitproc+0x52>
     9f2:	01178533          	add	a0,a5,a7
     9f6:	08c52423          	sw	a2,136(a0)
     9fa:	1887a803          	lw	a6,392(a5)
     9fe:	4605                	li	a2,1
     a00:	00e61633          	sll	a2,a2,a4
     a04:	00c86833          	or	a6,a6,a2
     a08:	1907a423          	sw	a6,392(a5)
     a0c:	10d52423          	sw	a3,264(a0)
     a10:	4689                	li	a3,2
     a12:	00d31763          	bne	t1,a3,a20 <__register_exitproc+0x52>
     a16:	18c7a683          	lw	a3,396(a5)
     a1a:	8ed1                	or	a3,a3,a2
     a1c:	18d7a623          	sw	a3,396(a5)
     a20:	0705                	addi	a4,a4,1 # 1001 <__heap_size+0x1>
     a22:	c3d8                	sw	a4,4(a5)
     a24:	97c6                	add	a5,a5,a7
     a26:	c78c                	sw	a1,8(a5)
     a28:	4501                	li	a0,0
     a2a:	8082                	ret

00000a2c <__call_exitprocs>:
     a2c:	7179                	addi	sp,sp,-48
     a2e:	ce4e                	sw	s3,28(sp)
     a30:	cc52                	sw	s4,24(sp)
     a32:	ca56                	sw	s5,20(sp)
     a34:	c65e                	sw	s7,12(sp)
     a36:	d606                	sw	ra,44(sp)
     a38:	d422                	sw	s0,40(sp)
     a3a:	d226                	sw	s1,36(sp)
     a3c:	d04a                	sw	s2,32(sp)
     a3e:	c85a                	sw	s6,16(sp)
     a40:	8baa                	mv	s7,a0
     a42:	8a2e                	mv	s4,a1
     a44:	4a85                	li	s5,1
     a46:	88c1a483          	lw	s1,-1908(gp) # 8c6c <__atexit>
     a4a:	c881                	beqz	s1,a5a <__call_exitprocs+0x2e>
     a4c:	40c0                	lw	s0,4(s1)
     a4e:	fff40913          	addi	s2,s0,-1
     a52:	040a                	slli	s0,s0,0x2
     a54:	9426                	add	s0,s0,s1
     a56:	00095d63          	bgez	s2,a70 <__call_exitprocs+0x44>
     a5a:	50b2                	lw	ra,44(sp)
     a5c:	5422                	lw	s0,40(sp)
     a5e:	5492                	lw	s1,36(sp)
     a60:	5902                	lw	s2,32(sp)
     a62:	49f2                	lw	s3,28(sp)
     a64:	4a62                	lw	s4,24(sp)
     a66:	4ad2                	lw	s5,20(sp)
     a68:	4b42                	lw	s6,16(sp)
     a6a:	4bb2                	lw	s7,12(sp)
     a6c:	6145                	addi	sp,sp,48
     a6e:	8082                	ret
     a70:	000a0663          	beqz	s4,a7c <__call_exitprocs+0x50>
     a74:	10442783          	lw	a5,260(s0)
     a78:	03479a63          	bne	a5,s4,aac <__call_exitprocs+0x80>
     a7c:	40d8                	lw	a4,4(s1)
     a7e:	405c                	lw	a5,4(s0)
     a80:	177d                	addi	a4,a4,-1
     a82:	03271863          	bne	a4,s2,ab2 <__call_exitprocs+0x86>
     a86:	0124a223          	sw	s2,4(s1)
     a8a:	c38d                	beqz	a5,aac <__call_exitprocs+0x80>
     a8c:	1884a683          	lw	a3,392(s1)
     a90:	012a9733          	sll	a4,s5,s2
     a94:	0044ab03          	lw	s6,4(s1)
     a98:	8ef9                	and	a3,a3,a4
     a9a:	ee99                	bnez	a3,ab8 <__call_exitprocs+0x8c>
     a9c:	9782                	jalr	a5
     a9e:	40dc                	lw	a5,4(s1)
     aa0:	fb6793e3          	bne	a5,s6,a46 <__call_exitprocs+0x1a>
     aa4:	88c1a783          	lw	a5,-1908(gp) # 8c6c <__atexit>
     aa8:	f8f49fe3          	bne	s1,a5,a46 <__call_exitprocs+0x1a>
     aac:	197d                	addi	s2,s2,-1
     aae:	1471                	addi	s0,s0,-4
     ab0:	b75d                	j	a56 <__call_exitprocs+0x2a>
     ab2:	00042223          	sw	zero,4(s0)
     ab6:	bfd1                	j	a8a <__call_exitprocs+0x5e>
     ab8:	18c4a683          	lw	a3,396(s1)
     abc:	08442583          	lw	a1,132(s0)
     ac0:	8f75                	and	a4,a4,a3
     ac2:	e701                	bnez	a4,aca <__call_exitprocs+0x9e>
     ac4:	855e                	mv	a0,s7
     ac6:	9782                	jalr	a5
     ac8:	bfd9                	j	a9e <__call_exitprocs+0x72>
     aca:	852e                	mv	a0,a1
     acc:	9782                	jalr	a5
     ace:	bfc1                	j	a9e <__call_exitprocs+0x72>

00000ad0 <_malloc_trim_r>:
     ad0:	7179                	addi	sp,sp,-48
     ad2:	d04a                	sw	s2,32(sp)
     ad4:	6921                	lui	s2,0x8
     ad6:	d422                	sw	s0,40(sp)
     ad8:	d226                	sw	s1,36(sp)
     ada:	ce4e                	sw	s3,28(sp)
     adc:	c62e                	sw	a1,12(sp)
     ade:	d606                	sw	ra,44(sp)
     ae0:	89aa                	mv	s3,a0
     ae2:	66890913          	addi	s2,s2,1640 # 8668 <__malloc_av_>
     ae6:	25e1                	jal	11ae <__malloc_lock>
     ae8:	00892783          	lw	a5,8(s2)
     aec:	45b2                	lw	a1,12(sp)
     aee:	43c4                	lw	s1,4(a5)
     af0:	6785                	lui	a5,0x1
     af2:	98f1                	andi	s1,s1,-4
     af4:	7f048413          	addi	s0,s1,2032
     af8:	7ff40413          	addi	s0,s0,2047
     afc:	8c0d                	sub	s0,s0,a1
     afe:	8031                	srli	s0,s0,0xc
     b00:	147d                	addi	s0,s0,-1
     b02:	0432                	slli	s0,s0,0xc
     b04:	00f45c63          	bge	s0,a5,b1c <_malloc_trim_r+0x4c>
     b08:	854e                	mv	a0,s3
     b0a:	255d                	jal	11b0 <__malloc_unlock>
     b0c:	4501                	li	a0,0
     b0e:	50b2                	lw	ra,44(sp)
     b10:	5422                	lw	s0,40(sp)
     b12:	5492                	lw	s1,36(sp)
     b14:	5902                	lw	s2,32(sp)
     b16:	49f2                	lw	s3,28(sp)
     b18:	6145                	addi	sp,sp,48
     b1a:	8082                	ret
     b1c:	4581                	li	a1,0
     b1e:	854e                	mv	a0,s3
     b20:	20e020ef          	jal	2d2e <_sbrk_r>
     b24:	00892783          	lw	a5,8(s2)
     b28:	97a6                	add	a5,a5,s1
     b2a:	fcf51fe3          	bne	a0,a5,b08 <_malloc_trim_r+0x38>
     b2e:	408005b3          	neg	a1,s0
     b32:	854e                	mv	a0,s3
     b34:	1fa020ef          	jal	2d2e <_sbrk_r>
     b38:	57fd                	li	a5,-1
     b3a:	02f51763          	bne	a0,a5,b68 <_malloc_trim_r+0x98>
     b3e:	4581                	li	a1,0
     b40:	854e                	mv	a0,s3
     b42:	1ec020ef          	jal	2d2e <_sbrk_r>
     b46:	00892703          	lw	a4,8(s2)
     b4a:	46bd                	li	a3,15
     b4c:	40e507b3          	sub	a5,a0,a4
     b50:	faf6dce3          	bge	a3,a5,b08 <_malloc_trim_r+0x38>
     b54:	8701a683          	lw	a3,-1936(gp) # 8c50 <__malloc_sbrk_base>
     b58:	0017e793          	ori	a5,a5,1
     b5c:	c35c                	sw	a5,4(a4)
     b5e:	8d15                	sub	a0,a0,a3
     b60:	66a9                	lui	a3,0xa
     b62:	f4a6a223          	sw	a0,-188(a3) # 9f44 <__malloc_current_mallinfo>
     b66:	b74d                	j	b08 <_malloc_trim_r+0x38>
     b68:	00892783          	lw	a5,8(s2)
     b6c:	8c81                	sub	s1,s1,s0
     b6e:	0014e493          	ori	s1,s1,1
     b72:	c3c4                	sw	s1,4(a5)
     b74:	67a9                	lui	a5,0xa
     b76:	f4478793          	addi	a5,a5,-188 # 9f44 <__malloc_current_mallinfo>
     b7a:	4398                	lw	a4,0(a5)
     b7c:	854e                	mv	a0,s3
     b7e:	8f01                	sub	a4,a4,s0
     b80:	c398                	sw	a4,0(a5)
     b82:	253d                	jal	11b0 <__malloc_unlock>
     b84:	4505                	li	a0,1
     b86:	b761                	j	b0e <_malloc_trim_r+0x3e>

00000b88 <_free_r>:
     b88:	18058c63          	beqz	a1,d20 <_free_r+0x198>
     b8c:	1141                	addi	sp,sp,-16
     b8e:	c422                	sw	s0,8(sp)
     b90:	c226                	sw	s1,4(sp)
     b92:	842e                	mv	s0,a1
     b94:	84aa                	mv	s1,a0
     b96:	c606                	sw	ra,12(sp)
     b98:	2d19                	jal	11ae <__malloc_lock>
     b9a:	ffc42583          	lw	a1,-4(s0)
     b9e:	ff840613          	addi	a2,s0,-8
     ba2:	6521                	lui	a0,0x8
     ba4:	ffe5f793          	andi	a5,a1,-2
     ba8:	00f606b3          	add	a3,a2,a5
     bac:	66850513          	addi	a0,a0,1640 # 8668 <__malloc_av_>
     bb0:	42d8                	lw	a4,4(a3)
     bb2:	00852803          	lw	a6,8(a0)
     bb6:	8985                	andi	a1,a1,1
     bb8:	9b71                	andi	a4,a4,-4
     bba:	02d81e63          	bne	a6,a3,bf6 <_free_r+0x6e>
     bbe:	973e                	add	a4,a4,a5
     bc0:	e989                	bnez	a1,bd2 <_free_r+0x4a>
     bc2:	ff842783          	lw	a5,-8(s0)
     bc6:	8e1d                	sub	a2,a2,a5
     bc8:	4614                	lw	a3,8(a2)
     bca:	973e                	add	a4,a4,a5
     bcc:	465c                	lw	a5,12(a2)
     bce:	c6dc                	sw	a5,12(a3)
     bd0:	c794                	sw	a3,8(a5)
     bd2:	00176793          	ori	a5,a4,1
     bd6:	c25c                	sw	a5,4(a2)
     bd8:	8741a783          	lw	a5,-1932(gp) # 8c54 <__malloc_trim_threshold>
     bdc:	c510                	sw	a2,8(a0)
     bde:	00f76663          	bltu	a4,a5,bea <_free_r+0x62>
     be2:	8981a583          	lw	a1,-1896(gp) # 8c78 <__malloc_top_pad>
     be6:	8526                	mv	a0,s1
     be8:	35e5                	jal	ad0 <_malloc_trim_r>
     bea:	4422                	lw	s0,8(sp)
     bec:	40b2                	lw	ra,12(sp)
     bee:	8526                	mv	a0,s1
     bf0:	4492                	lw	s1,4(sp)
     bf2:	0141                	addi	sp,sp,16
     bf4:	ab75                	j	11b0 <__malloc_unlock>
     bf6:	c2d8                	sw	a4,4(a3)
     bf8:	4801                	li	a6,0
     bfa:	e18d                	bnez	a1,c1c <_free_r+0x94>
     bfc:	ff842583          	lw	a1,-8(s0)
     c00:	68a1                	lui	a7,0x8
     c02:	67088893          	addi	a7,a7,1648 # 8670 <__malloc_av_+0x8>
     c06:	8e0d                	sub	a2,a2,a1
     c08:	97ae                	add	a5,a5,a1
     c0a:	460c                	lw	a1,8(a2)
     c0c:	07158a63          	beq	a1,a7,c80 <_free_r+0xf8>
     c10:	00c62883          	lw	a7,12(a2)
     c14:	0115a623          	sw	a7,12(a1)
     c18:	00b8a423          	sw	a1,8(a7)
     c1c:	00e685b3          	add	a1,a3,a4
     c20:	41cc                	lw	a1,4(a1)
     c22:	8985                	andi	a1,a1,1
     c24:	ed99                	bnez	a1,c42 <_free_r+0xba>
     c26:	97ba                	add	a5,a5,a4
     c28:	4698                	lw	a4,8(a3)
     c2a:	04081d63          	bnez	a6,c84 <_free_r+0xfc>
     c2e:	65a1                	lui	a1,0x8
     c30:	67058593          	addi	a1,a1,1648 # 8670 <__malloc_av_+0x8>
     c34:	04b71863          	bne	a4,a1,c84 <_free_r+0xfc>
     c38:	c950                	sw	a2,20(a0)
     c3a:	c910                	sw	a2,16(a0)
     c3c:	c658                	sw	a4,12(a2)
     c3e:	c618                	sw	a4,8(a2)
     c40:	4805                	li	a6,1
     c42:	0017e713          	ori	a4,a5,1
     c46:	c258                	sw	a4,4(a2)
     c48:	00f60733          	add	a4,a2,a5
     c4c:	c31c                	sw	a5,0(a4)
     c4e:	f8081ee3          	bnez	a6,bea <_free_r+0x62>
     c52:	1ff00713          	li	a4,511
     c56:	02f76b63          	bltu	a4,a5,c8c <_free_r+0x104>
     c5a:	0057d693          	srli	a3,a5,0x5
     c5e:	4705                	li	a4,1
     c60:	00d71733          	sll	a4,a4,a3
     c64:	4154                	lw	a3,4(a0)
     c66:	9be1                	andi	a5,a5,-8
     c68:	07a1                	addi	a5,a5,8
     c6a:	8f55                	or	a4,a4,a3
     c6c:	97aa                	add	a5,a5,a0
     c6e:	c158                	sw	a4,4(a0)
     c70:	4398                	lw	a4,0(a5)
     c72:	ff878693          	addi	a3,a5,-8
     c76:	c654                	sw	a3,12(a2)
     c78:	c618                	sw	a4,8(a2)
     c7a:	c390                	sw	a2,0(a5)
     c7c:	c750                	sw	a2,12(a4)
     c7e:	b7b5                	j	bea <_free_r+0x62>
     c80:	4805                	li	a6,1
     c82:	bf69                	j	c1c <_free_r+0x94>
     c84:	46d4                	lw	a3,12(a3)
     c86:	c754                	sw	a3,12(a4)
     c88:	c698                	sw	a4,8(a3)
     c8a:	bf65                	j	c42 <_free_r+0xba>
     c8c:	0097d693          	srli	a3,a5,0x9
     c90:	4711                	li	a4,4
     c92:	02d76b63          	bltu	a4,a3,cc8 <_free_r+0x140>
     c96:	0067d713          	srli	a4,a5,0x6
     c9a:	03870713          	addi	a4,a4,56
     c9e:	00170693          	addi	a3,a4,1
     ca2:	068e                	slli	a3,a3,0x3
     ca4:	96aa                	add	a3,a3,a0
     ca6:	ff868593          	addi	a1,a3,-8
     caa:	4294                	lw	a3,0(a3)
     cac:	06d59463          	bne	a1,a3,d14 <_free_r+0x18c>
     cb0:	8709                	srai	a4,a4,0x2
     cb2:	4785                	li	a5,1
     cb4:	00e797b3          	sll	a5,a5,a4
     cb8:	4158                	lw	a4,4(a0)
     cba:	8fd9                	or	a5,a5,a4
     cbc:	c15c                	sw	a5,4(a0)
     cbe:	c64c                	sw	a1,12(a2)
     cc0:	c614                	sw	a3,8(a2)
     cc2:	c590                	sw	a2,8(a1)
     cc4:	c6d0                	sw	a2,12(a3)
     cc6:	b715                	j	bea <_free_r+0x62>
     cc8:	4751                	li	a4,20
     cca:	00d76563          	bltu	a4,a3,cd4 <_free_r+0x14c>
     cce:	05b68713          	addi	a4,a3,91
     cd2:	b7f1                	j	c9e <_free_r+0x116>
     cd4:	05400713          	li	a4,84
     cd8:	00d76763          	bltu	a4,a3,ce6 <_free_r+0x15e>
     cdc:	00c7d713          	srli	a4,a5,0xc
     ce0:	06e70713          	addi	a4,a4,110
     ce4:	bf6d                	j	c9e <_free_r+0x116>
     ce6:	15400713          	li	a4,340
     cea:	00d76763          	bltu	a4,a3,cf8 <_free_r+0x170>
     cee:	00f7d713          	srli	a4,a5,0xf
     cf2:	07770713          	addi	a4,a4,119
     cf6:	b765                	j	c9e <_free_r+0x116>
     cf8:	55400593          	li	a1,1364
     cfc:	07e00713          	li	a4,126
     d00:	f8d5efe3          	bltu	a1,a3,c9e <_free_r+0x116>
     d04:	0127d713          	srli	a4,a5,0x12
     d08:	07c70713          	addi	a4,a4,124
     d0c:	bf49                	j	c9e <_free_r+0x116>
     d0e:	4694                	lw	a3,8(a3)
     d10:	00d58663          	beq	a1,a3,d1c <_free_r+0x194>
     d14:	42d8                	lw	a4,4(a3)
     d16:	9b71                	andi	a4,a4,-4
     d18:	fee7ebe3          	bltu	a5,a4,d0e <_free_r+0x186>
     d1c:	46cc                	lw	a1,12(a3)
     d1e:	b745                	j	cbe <_free_r+0x136>
     d20:	8082                	ret

00000d22 <_malloc_r>:
     d22:	7139                	addi	sp,sp,-64
     d24:	de06                	sw	ra,60(sp)
     d26:	dc22                	sw	s0,56(sp)
     d28:	da26                	sw	s1,52(sp)
     d2a:	d84a                	sw	s2,48(sp)
     d2c:	d64e                	sw	s3,44(sp)
     d2e:	d452                	sw	s4,40(sp)
     d30:	d256                	sw	s5,36(sp)
     d32:	d05a                	sw	s6,32(sp)
     d34:	ce5e                	sw	s7,28(sp)
     d36:	cc62                	sw	s8,24(sp)
     d38:	00b58793          	addi	a5,a1,11
     d3c:	4759                	li	a4,22
     d3e:	02f77563          	bgeu	a4,a5,d68 <_malloc_r+0x46>
     d42:	ff87f493          	andi	s1,a5,-8
     d46:	0207d263          	bgez	a5,d6a <_malloc_r+0x48>
     d4a:	47b1                	li	a5,12
     d4c:	c11c                	sw	a5,0(a0)
     d4e:	4501                	li	a0,0
     d50:	50f2                	lw	ra,60(sp)
     d52:	5462                	lw	s0,56(sp)
     d54:	54d2                	lw	s1,52(sp)
     d56:	5942                	lw	s2,48(sp)
     d58:	59b2                	lw	s3,44(sp)
     d5a:	5a22                	lw	s4,40(sp)
     d5c:	5a92                	lw	s5,36(sp)
     d5e:	5b02                	lw	s6,32(sp)
     d60:	4bf2                	lw	s7,28(sp)
     d62:	4c62                	lw	s8,24(sp)
     d64:	6121                	addi	sp,sp,64
     d66:	8082                	ret
     d68:	44c1                	li	s1,16
     d6a:	feb4e0e3          	bltu	s1,a1,d4a <_malloc_r+0x28>
     d6e:	8c2a                	mv	s8,a0
     d70:	293d                	jal	11ae <__malloc_lock>
     d72:	6921                	lui	s2,0x8
     d74:	1f700793          	li	a5,503
     d78:	66890913          	addi	s2,s2,1640 # 8668 <__malloc_av_>
     d7c:	0297e863          	bltu	a5,s1,dac <_malloc_r+0x8a>
     d80:	00848793          	addi	a5,s1,8
     d84:	97ca                	add	a5,a5,s2
     d86:	43c0                	lw	s0,4(a5)
     d88:	ff878713          	addi	a4,a5,-8
     d8c:	0034d613          	srli	a2,s1,0x3
     d90:	00e41663          	bne	s0,a4,d9c <_malloc_r+0x7a>
     d94:	47c0                	lw	s0,12(a5)
     d96:	0609                	addi	a2,a2,2
     d98:	04878163          	beq	a5,s0,dda <_malloc_r+0xb8>
     d9c:	4458                	lw	a4,12(s0)
     d9e:	4414                	lw	a3,8(s0)
     da0:	405c                	lw	a5,4(s0)
     da2:	c6d8                	sw	a4,12(a3)
     da4:	9bf1                	andi	a5,a5,-4
     da6:	c714                	sw	a3,8(a4)
     da8:	97a2                	add	a5,a5,s0
     daa:	a8d9                	j	e80 <_malloc_r+0x15e>
     dac:	0094d713          	srli	a4,s1,0x9
     db0:	03f00793          	li	a5,63
     db4:	cb01                	beqz	a4,dc4 <_malloc_r+0xa2>
     db6:	4791                	li	a5,4
     db8:	06e7e363          	bltu	a5,a4,e1e <_malloc_r+0xfc>
     dbc:	0064d793          	srli	a5,s1,0x6
     dc0:	03878793          	addi	a5,a5,56
     dc4:	00178613          	addi	a2,a5,1
     dc8:	00361713          	slli	a4,a2,0x3
     dcc:	974a                	add	a4,a4,s2
     dce:	4340                	lw	s0,4(a4)
     dd0:	ff870513          	addi	a0,a4,-8
     dd4:	483d                	li	a6,15
     dd6:	08a41763          	bne	s0,a0,e64 <_malloc_r+0x142>
     dda:	01092403          	lw	s0,16(s2)
     dde:	00890593          	addi	a1,s2,8
     de2:	0eb40763          	beq	s0,a1,ed0 <_malloc_r+0x1ae>
     de6:	405c                	lw	a5,4(s0)
     de8:	473d                	li	a4,15
     dea:	9bf1                	andi	a5,a5,-4
     dec:	409786b3          	sub	a3,a5,s1
     df0:	0ad75163          	bge	a4,a3,e92 <_malloc_r+0x170>
     df4:	00940733          	add	a4,s0,s1
     df8:	0014e493          	ori	s1,s1,1
     dfc:	c044                	sw	s1,4(s0)
     dfe:	00e92a23          	sw	a4,20(s2)
     e02:	00e92823          	sw	a4,16(s2)
     e06:	0016e613          	ori	a2,a3,1
     e0a:	c74c                	sw	a1,12(a4)
     e0c:	c70c                	sw	a1,8(a4)
     e0e:	c350                	sw	a2,4(a4)
     e10:	97a2                	add	a5,a5,s0
     e12:	c394                	sw	a3,0(a5)
     e14:	8562                	mv	a0,s8
     e16:	2e69                	jal	11b0 <__malloc_unlock>
     e18:	00840513          	addi	a0,s0,8
     e1c:	bf15                	j	d50 <_malloc_r+0x2e>
     e1e:	47d1                	li	a5,20
     e20:	00e7e563          	bltu	a5,a4,e2a <_malloc_r+0x108>
     e24:	05b70793          	addi	a5,a4,91
     e28:	bf71                	j	dc4 <_malloc_r+0xa2>
     e2a:	05400793          	li	a5,84
     e2e:	00e7e763          	bltu	a5,a4,e3c <_malloc_r+0x11a>
     e32:	00c4d793          	srli	a5,s1,0xc
     e36:	06e78793          	addi	a5,a5,110
     e3a:	b769                	j	dc4 <_malloc_r+0xa2>
     e3c:	15400793          	li	a5,340
     e40:	00e7e763          	bltu	a5,a4,e4e <_malloc_r+0x12c>
     e44:	00f4d793          	srli	a5,s1,0xf
     e48:	07778793          	addi	a5,a5,119
     e4c:	bfa5                	j	dc4 <_malloc_r+0xa2>
     e4e:	55400693          	li	a3,1364
     e52:	07e00793          	li	a5,126
     e56:	f6e6e7e3          	bltu	a3,a4,dc4 <_malloc_r+0xa2>
     e5a:	0124d793          	srli	a5,s1,0x12
     e5e:	07c78793          	addi	a5,a5,124
     e62:	b78d                	j	dc4 <_malloc_r+0xa2>
     e64:	4058                	lw	a4,4(s0)
     e66:	9b71                	andi	a4,a4,-4
     e68:	409705b3          	sub	a1,a4,s1
     e6c:	02b84163          	blt	a6,a1,e8e <_malloc_r+0x16c>
     e70:	4454                	lw	a3,12(s0)
     e72:	0005cc63          	bltz	a1,e8a <_malloc_r+0x168>
     e76:	441c                	lw	a5,8(s0)
     e78:	c7d4                	sw	a3,12(a5)
     e7a:	c69c                	sw	a5,8(a3)
     e7c:	00e407b3          	add	a5,s0,a4
     e80:	43d8                	lw	a4,4(a5)
     e82:	00176713          	ori	a4,a4,1
     e86:	c3d8                	sw	a4,4(a5)
     e88:	b771                	j	e14 <_malloc_r+0xf2>
     e8a:	8436                	mv	s0,a3
     e8c:	b7a9                	j	dd6 <_malloc_r+0xb4>
     e8e:	863e                	mv	a2,a5
     e90:	b7a9                	j	dda <_malloc_r+0xb8>
     e92:	00b92a23          	sw	a1,20(s2)
     e96:	00b92823          	sw	a1,16(s2)
     e9a:	f006d7e3          	bgez	a3,da8 <_malloc_r+0x86>
     e9e:	1ff00713          	li	a4,511
     ea2:	00492803          	lw	a6,4(s2)
     ea6:	12f76063          	bltu	a4,a5,fc6 <_malloc_r+0x2a4>
     eaa:	0057d693          	srli	a3,a5,0x5
     eae:	4705                	li	a4,1
     eb0:	9be1                	andi	a5,a5,-8
     eb2:	00d71733          	sll	a4,a4,a3
     eb6:	07a1                	addi	a5,a5,8
     eb8:	97ca                	add	a5,a5,s2
     eba:	01076733          	or	a4,a4,a6
     ebe:	00e92223          	sw	a4,4(s2)
     ec2:	4398                	lw	a4,0(a5)
     ec4:	ff878693          	addi	a3,a5,-8
     ec8:	c454                	sw	a3,12(s0)
     eca:	c418                	sw	a4,8(s0)
     ecc:	c380                	sw	s0,0(a5)
     ece:	c740                	sw	s0,12(a4)
     ed0:	40265793          	srai	a5,a2,0x2
     ed4:	4305                	li	t1,1
     ed6:	00f31333          	sll	t1,t1,a5
     eda:	00492783          	lw	a5,4(s2)
     ede:	0467ec63          	bltu	a5,t1,f36 <_malloc_r+0x214>
     ee2:	0067f733          	and	a4,a5,t1
     ee6:	e719                	bnez	a4,ef4 <_malloc_r+0x1d2>
     ee8:	9a71                	andi	a2,a2,-4
     eea:	0306                	slli	t1,t1,0x1
     eec:	0067f733          	and	a4,a5,t1
     ef0:	0611                	addi	a2,a2,4
     ef2:	df65                	beqz	a4,eea <_malloc_r+0x1c8>
     ef4:	4e3d                	li	t3,15
     ef6:	00361713          	slli	a4,a2,0x3
     efa:	974a                	add	a4,a4,s2
     efc:	883a                	mv	a6,a4
     efe:	8532                	mv	a0,a2
     f00:	00c82403          	lw	s0,12(a6)
     f04:	15041c63          	bne	s0,a6,105c <__heap_size+0x5c>
     f08:	0505                	addi	a0,a0,1
     f0a:	00357793          	andi	a5,a0,3
     f0e:	0821                	addi	a6,a6,8
     f10:	fbe5                	bnez	a5,f00 <_malloc_r+0x1de>
     f12:	00367793          	andi	a5,a2,3
     f16:	18079c63          	bnez	a5,10ae <__heap_size+0xae>
     f1a:	00492783          	lw	a5,4(s2)
     f1e:	fff34713          	not	a4,t1
     f22:	8ff9                	and	a5,a5,a4
     f24:	00f92223          	sw	a5,4(s2)
     f28:	00492783          	lw	a5,4(s2)
     f2c:	0306                	slli	t1,t1,0x1
     f2e:	0067e463          	bltu	a5,t1,f36 <_malloc_r+0x214>
     f32:	18031a63          	bnez	t1,10c6 <__heap_size+0xc6>
     f36:	00892403          	lw	s0,8(s2)
     f3a:	405c                	lw	a5,4(s0)
     f3c:	ffc7fb13          	andi	s6,a5,-4
     f40:	409b07b3          	sub	a5,s6,s1
     f44:	009b6663          	bltu	s6,s1,f50 <_malloc_r+0x22e>
     f48:	0107a713          	slti	a4,a5,16
     f4c:	24070763          	beqz	a4,119a <__heap_size+0x19a>
     f50:	8981a583          	lw	a1,-1896(gp) # 8c78 <__malloc_top_pad>
     f54:	8701a703          	lw	a4,-1936(gp) # 8c50 <__malloc_sbrk_base>
     f58:	57fd                	li	a5,-1
     f5a:	95a6                	add	a1,a1,s1
     f5c:	16f71763          	bne	a4,a5,10ca <__heap_size+0xca>
     f60:	05c1                	addi	a1,a1,16
     f62:	8562                	mv	a0,s8
     f64:	c62e                	sw	a1,12(sp)
     f66:	5c9010ef          	jal	2d2e <_sbrk_r>
     f6a:	57fd                	li	a5,-1
     f6c:	8a2a                	mv	s4,a0
     f6e:	1cf50f63          	beq	a0,a5,114c <__heap_size+0x14c>
     f72:	01640733          	add	a4,s0,s6
     f76:	45b2                	lw	a1,12(sp)
     f78:	00e57463          	bgeu	a0,a4,f80 <_malloc_r+0x25e>
     f7c:	1d241863          	bne	s0,s2,114c <__heap_size+0x14c>
     f80:	6aa9                	lui	s5,0xa
     f82:	f44a8a93          	addi	s5,s5,-188 # 9f44 <__malloc_current_mallinfo>
     f86:	000aa783          	lw	a5,0(s5)
     f8a:	97ae                	add	a5,a5,a1
     f8c:	00faa023          	sw	a5,0(s5)
     f90:	15471363          	bne	a4,s4,10d6 <__heap_size+0xd6>
     f94:	01471693          	slli	a3,a4,0x14
     f98:	12069f63          	bnez	a3,10d6 <__heap_size+0xd6>
     f9c:	00892783          	lw	a5,8(s2)
     fa0:	95da                	add	a1,a1,s6
     fa2:	0015e593          	ori	a1,a1,1
     fa6:	c3cc                	sw	a1,4(a5)
     fa8:	000aa783          	lw	a5,0(s5)
     fac:	8941a683          	lw	a3,-1900(gp) # 8c74 <__malloc_max_sbrked_mem>
     fb0:	00f6f463          	bgeu	a3,a5,fb8 <_malloc_r+0x296>
     fb4:	88f1aa23          	sw	a5,-1900(gp) # 8c74 <__malloc_max_sbrked_mem>
     fb8:	8901a683          	lw	a3,-1904(gp) # 8c70 <__malloc_max_total_mem>
     fbc:	18f6f863          	bgeu	a3,a5,114c <__heap_size+0x14c>
     fc0:	88f1a823          	sw	a5,-1904(gp) # 8c70 <__malloc_max_total_mem>
     fc4:	a261                	j	114c <__heap_size+0x14c>
     fc6:	0097d693          	srli	a3,a5,0x9
     fca:	4711                	li	a4,4
     fcc:	02d76c63          	bltu	a4,a3,1004 <__heap_size+0x4>
     fd0:	0067d713          	srli	a4,a5,0x6
     fd4:	03870713          	addi	a4,a4,56
     fd8:	00170693          	addi	a3,a4,1
     fdc:	068e                	slli	a3,a3,0x3
     fde:	96ca                	add	a3,a3,s2
     fe0:	ff868513          	addi	a0,a3,-8
     fe4:	4294                	lw	a3,0(a3)
     fe6:	06d51563          	bne	a0,a3,1050 <__heap_size+0x50>
     fea:	8709                	srai	a4,a4,0x2
     fec:	4785                	li	a5,1
     fee:	00e797b3          	sll	a5,a5,a4
     ff2:	0107e7b3          	or	a5,a5,a6
     ff6:	00f92223          	sw	a5,4(s2)
     ffa:	c448                	sw	a0,12(s0)
     ffc:	c414                	sw	a3,8(s0)
     ffe:	c500                	sw	s0,8(a0)
    1000:	c6c0                	sw	s0,12(a3)
    1002:	b5f9                	j	ed0 <_malloc_r+0x1ae>
    1004:	4751                	li	a4,20
    1006:	00d76563          	bltu	a4,a3,1010 <__heap_size+0x10>
    100a:	05b68713          	addi	a4,a3,91
    100e:	b7e9                	j	fd8 <_malloc_r+0x2b6>
    1010:	05400713          	li	a4,84
    1014:	00d76763          	bltu	a4,a3,1022 <__heap_size+0x22>
    1018:	00c7d713          	srli	a4,a5,0xc
    101c:	06e70713          	addi	a4,a4,110
    1020:	bf65                	j	fd8 <_malloc_r+0x2b6>
    1022:	15400713          	li	a4,340
    1026:	00d76763          	bltu	a4,a3,1034 <__heap_size+0x34>
    102a:	00f7d713          	srli	a4,a5,0xf
    102e:	07770713          	addi	a4,a4,119
    1032:	b75d                	j	fd8 <_malloc_r+0x2b6>
    1034:	55400513          	li	a0,1364
    1038:	07e00713          	li	a4,126
    103c:	f8d56ee3          	bltu	a0,a3,fd8 <_malloc_r+0x2b6>
    1040:	0127d713          	srli	a4,a5,0x12
    1044:	07c70713          	addi	a4,a4,124
    1048:	bf41                	j	fd8 <_malloc_r+0x2b6>
    104a:	4694                	lw	a3,8(a3)
    104c:	00d50663          	beq	a0,a3,1058 <__heap_size+0x58>
    1050:	42d8                	lw	a4,4(a3)
    1052:	9b71                	andi	a4,a4,-4
    1054:	fee7ebe3          	bltu	a5,a4,104a <__heap_size+0x4a>
    1058:	46c8                	lw	a0,12(a3)
    105a:	b745                	j	ffa <_malloc_r+0x2d8>
    105c:	405c                	lw	a5,4(s0)
    105e:	4454                	lw	a3,12(s0)
    1060:	9bf1                	andi	a5,a5,-4
    1062:	409788b3          	sub	a7,a5,s1
    1066:	031e5763          	bge	t3,a7,1094 <__heap_size+0x94>
    106a:	4410                	lw	a2,8(s0)
    106c:	00940733          	add	a4,s0,s1
    1070:	0014e493          	ori	s1,s1,1
    1074:	c044                	sw	s1,4(s0)
    1076:	c654                	sw	a3,12(a2)
    1078:	c690                	sw	a2,8(a3)
    107a:	00e92a23          	sw	a4,20(s2)
    107e:	00e92823          	sw	a4,16(s2)
    1082:	0018e693          	ori	a3,a7,1
    1086:	c74c                	sw	a1,12(a4)
    1088:	c70c                	sw	a1,8(a4)
    108a:	c354                	sw	a3,4(a4)
    108c:	97a2                	add	a5,a5,s0
    108e:	0117a023          	sw	a7,0(a5)
    1092:	b349                	j	e14 <_malloc_r+0xf2>
    1094:	0008cb63          	bltz	a7,10aa <__heap_size+0xaa>
    1098:	97a2                	add	a5,a5,s0
    109a:	43d8                	lw	a4,4(a5)
    109c:	00176713          	ori	a4,a4,1
    10a0:	c3d8                	sw	a4,4(a5)
    10a2:	441c                	lw	a5,8(s0)
    10a4:	c7d4                	sw	a3,12(a5)
    10a6:	c69c                	sw	a5,8(a3)
    10a8:	b3b5                	j	e14 <_malloc_r+0xf2>
    10aa:	8436                	mv	s0,a3
    10ac:	bda1                	j	f04 <_malloc_r+0x1e2>
    10ae:	431c                	lw	a5,0(a4)
    10b0:	1761                	addi	a4,a4,-8
    10b2:	167d                	addi	a2,a2,-1
    10b4:	e4e78fe3          	beq	a5,a4,f12 <_malloc_r+0x1f0>
    10b8:	bd85                	j	f28 <_malloc_r+0x206>
    10ba:	0611                	addi	a2,a2,4
    10bc:	0306                	slli	t1,t1,0x1
    10be:	0067f733          	and	a4,a5,t1
    10c2:	df65                	beqz	a4,10ba <__heap_size+0xba>
    10c4:	bd0d                	j	ef6 <_malloc_r+0x1d4>
    10c6:	862a                	mv	a2,a0
    10c8:	bfdd                	j	10be <__heap_size+0xbe>
    10ca:	6785                	lui	a5,0x1
    10cc:	07bd                	addi	a5,a5,15 # 100f <__heap_size+0xf>
    10ce:	95be                	add	a1,a1,a5
    10d0:	77fd                	lui	a5,0xfffff
    10d2:	8dfd                	and	a1,a1,a5
    10d4:	b579                	j	f62 <_malloc_r+0x240>
    10d6:	8701a603          	lw	a2,-1936(gp) # 8c50 <__malloc_sbrk_base>
    10da:	56fd                	li	a3,-1
    10dc:	08d61663          	bne	a2,a3,1168 <__heap_size+0x168>
    10e0:	8741a823          	sw	s4,-1936(gp) # 8c50 <__malloc_sbrk_base>
    10e4:	007a7b93          	andi	s7,s4,7
    10e8:	4781                	li	a5,0
    10ea:	000b8663          	beqz	s7,10f6 <__heap_size+0xf6>
    10ee:	47a1                	li	a5,8
    10f0:	417787b3          	sub	a5,a5,s7
    10f4:	9a3e                	add	s4,s4,a5
    10f6:	00ba09b3          	add	s3,s4,a1
    10fa:	413785b3          	sub	a1,a5,s3
    10fe:	05d2                	slli	a1,a1,0x14
    1100:	81d1                	srli	a1,a1,0x14
    1102:	8562                	mv	a0,s8
    1104:	c62e                	sw	a1,12(sp)
    1106:	429010ef          	jal	2d2e <_sbrk_r>
    110a:	57fd                	li	a5,-1
    110c:	45b2                	lw	a1,12(sp)
    110e:	00f51963          	bne	a0,a5,1120 <__heap_size+0x120>
    1112:	854e                	mv	a0,s3
    1114:	000b8563          	beqz	s7,111e <__heap_size+0x11e>
    1118:	1be1                	addi	s7,s7,-8
    111a:	01798533          	add	a0,s3,s7
    111e:	4581                	li	a1,0
    1120:	000aa783          	lw	a5,0(s5)
    1124:	41450733          	sub	a4,a0,s4
    1128:	972e                	add	a4,a4,a1
    112a:	97ae                	add	a5,a5,a1
    112c:	01492423          	sw	s4,8(s2)
    1130:	00176713          	ori	a4,a4,1
    1134:	00faa023          	sw	a5,0(s5)
    1138:	00ea2223          	sw	a4,4(s4)
    113c:	e72406e3          	beq	s0,s2,fa8 <_malloc_r+0x286>
    1140:	46bd                	li	a3,15
    1142:	0366e963          	bltu	a3,s6,1174 <__heap_size+0x174>
    1146:	4785                	li	a5,1
    1148:	00fa2223          	sw	a5,4(s4)
    114c:	00892403          	lw	s0,8(s2)
    1150:	4058                	lw	a4,4(s0)
    1152:	9b71                	andi	a4,a4,-4
    1154:	409707b3          	sub	a5,a4,s1
    1158:	00976563          	bltu	a4,s1,1162 <__heap_size+0x162>
    115c:	0107a713          	slti	a4,a5,16
    1160:	cf0d                	beqz	a4,119a <__heap_size+0x19a>
    1162:	8562                	mv	a0,s8
    1164:	20b1                	jal	11b0 <__malloc_unlock>
    1166:	b6e5                	j	d4e <_malloc_r+0x2c>
    1168:	40ea0733          	sub	a4,s4,a4
    116c:	973e                	add	a4,a4,a5
    116e:	00eaa023          	sw	a4,0(s5)
    1172:	bf8d                	j	10e4 <__heap_size+0xe4>
    1174:	4058                	lw	a4,4(s0)
    1176:	ff4b0793          	addi	a5,s6,-12
    117a:	9be1                	andi	a5,a5,-8
    117c:	8b05                	andi	a4,a4,1
    117e:	8f5d                	or	a4,a4,a5
    1180:	c058                	sw	a4,4(s0)
    1182:	4615                	li	a2,5
    1184:	00f40733          	add	a4,s0,a5
    1188:	c350                	sw	a2,4(a4)
    118a:	c710                	sw	a2,8(a4)
    118c:	e0f6fee3          	bgeu	a3,a5,fa8 <_malloc_r+0x286>
    1190:	00840593          	addi	a1,s0,8
    1194:	8562                	mv	a0,s8
    1196:	3acd                	jal	b88 <_free_r>
    1198:	bd01                	j	fa8 <_malloc_r+0x286>
    119a:	0014e713          	ori	a4,s1,1
    119e:	c058                	sw	a4,4(s0)
    11a0:	94a2                	add	s1,s1,s0
    11a2:	00992423          	sw	s1,8(s2)
    11a6:	0017e793          	ori	a5,a5,1
    11aa:	c0dc                	sw	a5,4(s1)
    11ac:	b1a5                	j	e14 <_malloc_r+0xf2>

000011ae <__malloc_lock>:
    11ae:	8082                	ret

000011b0 <__malloc_unlock>:
    11b0:	8082                	ret

000011b2 <_vfprintf_r>:
    11b2:	7165                	addi	sp,sp,-400
    11b4:	18112623          	sw	ra,396(sp)
    11b8:	18912223          	sw	s1,388(sp)
    11bc:	17712623          	sw	s7,364(sp)
    11c0:	c42e                	sw	a1,8(sp)
    11c2:	84b2                	mv	s1,a2
    11c4:	8bb6                	mv	s7,a3
    11c6:	18812423          	sw	s0,392(sp)
    11ca:	19212023          	sw	s2,384(sp)
    11ce:	17312e23          	sw	s3,380(sp)
    11d2:	17412c23          	sw	s4,376(sp)
    11d6:	17512a23          	sw	s5,372(sp)
    11da:	17612823          	sw	s6,368(sp)
    11de:	17812423          	sw	s8,360(sp)
    11e2:	17912223          	sw	s9,356(sp)
    11e6:	17a12023          	sw	s10,352(sp)
    11ea:	15b12e23          	sw	s11,348(sp)
    11ee:	c62a                	sw	a0,12(sp)
    11f0:	32f010ef          	jal	2d1e <_localeconv_r>
    11f4:	411c                	lw	a5,0(a0)
    11f6:	853e                	mv	a0,a5
    11f8:	de3e                	sw	a5,60(sp)
    11fa:	fc2ff0ef          	jal	9bc <strlen>
    11fe:	47b2                	lw	a5,12(sp)
    1200:	d22a                	sw	a0,36(sp)
    1202:	c791                	beqz	a5,120e <_vfprintf_r+0x5c>
    1204:	5bdc                	lw	a5,52(a5)
    1206:	e781                	bnez	a5,120e <_vfprintf_r+0x5c>
    1208:	4532                	lw	a0,12(sp)
    120a:	c40ff0ef          	jal	64a <__sinit>
    120e:	4722                	lw	a4,8(sp)
    1210:	47a2                	lw	a5,8(sp)
    1212:	00c71703          	lh	a4,12(a4)
    1216:	53fc                	lw	a5,100(a5)
    1218:	01271693          	slli	a3,a4,0x12
    121c:	0806c563          	bltz	a3,12a6 <_vfprintf_r+0xf4>
    1220:	6689                	lui	a3,0x2
    1222:	8f55                	or	a4,a4,a3
    1224:	46a2                	lw	a3,8(sp)
    1226:	00e69623          	sh	a4,12(a3) # 200c <_vfprintf_r+0xe5a>
    122a:	7779                	lui	a4,0xffffe
    122c:	177d                	addi	a4,a4,-1 # ffffdfff <_sp+0xffff208f>
    122e:	8ff9                	and	a5,a5,a4
    1230:	d2fc                	sw	a5,100(a3)
    1232:	47a2                	lw	a5,8(sp)
    1234:	00c7d783          	lhu	a5,12(a5) # fffff00c <_sp+0xffff309c>
    1238:	8ba1                	andi	a5,a5,8
    123a:	c781                	beqz	a5,1242 <_vfprintf_r+0x90>
    123c:	47a2                	lw	a5,8(sp)
    123e:	4b9c                	lw	a5,16(a5)
    1240:	e791                	bnez	a5,124c <_vfprintf_r+0x9a>
    1242:	45a2                	lw	a1,8(sp)
    1244:	4532                	lw	a0,12(sp)
    1246:	1eb010ef          	jal	2c30 <__swsetup_r>
    124a:	e135                	bnez	a0,12ae <_vfprintf_r+0xfc>
    124c:	47a2                	lw	a5,8(sp)
    124e:	4729                	li	a4,10
    1250:	00c7d783          	lhu	a5,12(a5)
    1254:	8be9                	andi	a5,a5,26
    1256:	04e79f63          	bne	a5,a4,12b4 <_vfprintf_r+0x102>
    125a:	47a2                	lw	a5,8(sp)
    125c:	00e79783          	lh	a5,14(a5)
    1260:	0407ca63          	bltz	a5,12b4 <_vfprintf_r+0x102>
    1264:	18812403          	lw	s0,392(sp)
    1268:	45a2                	lw	a1,8(sp)
    126a:	4532                	lw	a0,12(sp)
    126c:	18c12083          	lw	ra,396(sp)
    1270:	18012903          	lw	s2,384(sp)
    1274:	17c12983          	lw	s3,380(sp)
    1278:	17812a03          	lw	s4,376(sp)
    127c:	17412a83          	lw	s5,372(sp)
    1280:	17012b03          	lw	s6,368(sp)
    1284:	16812c03          	lw	s8,360(sp)
    1288:	16412c83          	lw	s9,356(sp)
    128c:	16012d03          	lw	s10,352(sp)
    1290:	15c12d83          	lw	s11,348(sp)
    1294:	86de                	mv	a3,s7
    1296:	8626                	mv	a2,s1
    1298:	16c12b83          	lw	s7,364(sp)
    129c:	18412483          	lw	s1,388(sp)
    12a0:	6159                	addi	sp,sp,400
    12a2:	3ce0106f          	j	2670 <__sbprintf>
    12a6:	01279713          	slli	a4,a5,0x12
    12aa:	f80754e3          	bgez	a4,1232 <_vfprintf_r+0x80>
    12ae:	57fd                	li	a5,-1
    12b0:	ce3e                	sw	a5,28(sp)
    12b2:	aeed                	j	16ac <_vfprintf_r+0x4fa>
    12b4:	67a1                	lui	a5,0x8
    12b6:	e9878793          	addi	a5,a5,-360 # 7e98 <crc_32_tab+0x640>
    12ba:	cabe                	sw	a5,84(sp)
    12bc:	67a1                	lui	a5,0x8
    12be:	0ac10a93          	addi	s5,sp,172
    12c2:	01478793          	addi	a5,a5,20 # 8014 <zeroes.0>
    12c6:	d156                	sw	s5,160(sp)
    12c8:	d502                	sw	zero,168(sp)
    12ca:	d302                	sw	zero,164(sp)
    12cc:	4b01                	li	s6,0
    12ce:	d002                	sw	zero,32(sp)
    12d0:	d402                	sw	zero,40(sp)
    12d2:	c682                	sw	zero,76(sp)
    12d4:	c082                	sw	zero,64(sp)
    12d6:	4981                	li	s3,0
    12d8:	dc02                	sw	zero,56(sp)
    12da:	c482                	sw	zero,72(sp)
    12dc:	ce02                	sw	zero,28(sp)
    12de:	c8be                	sw	a5,80(sp)
    12e0:	8426                	mv	s0,s1
    12e2:	00044783          	lbu	a5,0(s0)
    12e6:	c789                	beqz	a5,12f0 <_vfprintf_r+0x13e>
    12e8:	02500713          	li	a4,37
    12ec:	06e79c63          	bne	a5,a4,1364 <_vfprintf_r+0x1b2>
    12f0:	40940a33          	sub	s4,s0,s1
    12f4:	02940c63          	beq	s0,s1,132c <_vfprintf_r+0x17a>
    12f8:	57aa                	lw	a5,168(sp)
    12fa:	009aa023          	sw	s1,0(s5)
    12fe:	014aa223          	sw	s4,4(s5)
    1302:	97d2                	add	a5,a5,s4
    1304:	d53e                	sw	a5,168(sp)
    1306:	579a                	lw	a5,164(sp)
    1308:	471d                	li	a4,7
    130a:	0aa1                	addi	s5,s5,8
    130c:	0785                	addi	a5,a5,1
    130e:	d33e                	sw	a5,164(sp)
    1310:	00f75b63          	bge	a4,a5,1326 <_vfprintf_r+0x174>
    1314:	45a2                	lw	a1,8(sp)
    1316:	4532                	lw	a0,12(sp)
    1318:	1110                	addi	a2,sp,160
    131a:	3e0010ef          	jal	26fa <__sprint_r>
    131e:	38051063          	bnez	a0,169e <_vfprintf_r+0x4ec>
    1322:	0ac10a93          	addi	s5,sp,172
    1326:	47f2                	lw	a5,28(sp)
    1328:	97d2                	add	a5,a5,s4
    132a:	ce3e                	sw	a5,28(sp)
    132c:	00044783          	lbu	a5,0(s0)
    1330:	e399                	bnez	a5,1336 <_vfprintf_r+0x184>
    1332:	2ea0106f          	j	261c <_vfprintf_r+0x146a>
    1336:	00140793          	addi	a5,s0,1
    133a:	06010fa3          	sb	zero,127(sp)
    133e:	597d                	li	s2,-1
    1340:	d602                	sw	zero,44(sp)
    1342:	4401                	li	s0,0
    1344:	05a00c13          	li	s8,90
    1348:	0007ca03          	lbu	s4,0(a5)
    134c:	00178713          	addi	a4,a5,1
    1350:	ca3a                	sw	a4,20(sp)
    1352:	fe0a0793          	addi	a5,s4,-32
    1356:	2cfc61e3          	bltu	s8,a5,1e18 <_vfprintf_r+0xc66>
    135a:	4756                	lw	a4,84(sp)
    135c:	078a                	slli	a5,a5,0x2
    135e:	97ba                	add	a5,a5,a4
    1360:	439c                	lw	a5,0(a5)
    1362:	8782                	jr	a5
    1364:	0405                	addi	s0,s0,1
    1366:	bfb5                	j	12e2 <_vfprintf_r+0x130>
    1368:	67a1                	lui	a5,0x8
    136a:	d0878793          	addi	a5,a5,-760 # 7d08 <crc_32_tab+0x4b0>
    136e:	c6be                	sw	a5,76(sp)
    1370:	02047793          	andi	a5,s0,32
    1374:	180787e3          	beqz	a5,1d02 <_vfprintf_r+0xb50>
    1378:	0b9d                	addi	s7,s7,7
    137a:	ff8bfb93          	andi	s7,s7,-8
    137e:	000bac83          	lw	s9,0(s7)
    1382:	004bac03          	lw	s8,4(s7)
    1386:	008b8793          	addi	a5,s7,8
    138a:	cc3e                	sw	a5,24(sp)
    138c:	018ce7b3          	or	a5,s9,s8
    1390:	cf81                	beqz	a5,13a8 <_vfprintf_r+0x1f6>
    1392:	00147793          	andi	a5,s0,1
    1396:	cb89                	beqz	a5,13a8 <_vfprintf_r+0x1f6>
    1398:	03000793          	li	a5,48
    139c:	08f10023          	sb	a5,128(sp)
    13a0:	094100a3          	sb	s4,129(sp)
    13a4:	00246413          	ori	s0,s0,2
    13a8:	bff47413          	andi	s0,s0,-1025
    13ac:	4701                	li	a4,0
    13ae:	4789                	li	a5,2
    13b0:	0070006f          	j	1bb6 <_vfprintf_r+0xa04>
    13b4:	4532                	lw	a0,12(sp)
    13b6:	169010ef          	jal	2d1e <_localeconv_r>
    13ba:	415c                	lw	a5,4(a0)
    13bc:	853e                	mv	a0,a5
    13be:	c4be                	sw	a5,72(sp)
    13c0:	dfcff0ef          	jal	9bc <strlen>
    13c4:	dc2a                	sw	a0,56(sp)
    13c6:	4532                	lw	a0,12(sp)
    13c8:	157010ef          	jal	2d1e <_localeconv_r>
    13cc:	57e2                	lw	a5,56(sp)
    13ce:	00852983          	lw	s3,8(a0)
    13d2:	cb81                	beqz	a5,13e2 <_vfprintf_r+0x230>
    13d4:	00098763          	beqz	s3,13e2 <_vfprintf_r+0x230>
    13d8:	0009c783          	lbu	a5,0(s3)
    13dc:	c399                	beqz	a5,13e2 <_vfprintf_r+0x230>
    13de:	40046413          	ori	s0,s0,1024
    13e2:	47d2                	lw	a5,20(sp)
    13e4:	b795                	j	1348 <_vfprintf_r+0x196>
    13e6:	07f14783          	lbu	a5,127(sp)
    13ea:	ffe5                	bnez	a5,13e2 <_vfprintf_r+0x230>
    13ec:	02000793          	li	a5,32
    13f0:	06f10fa3          	sb	a5,127(sp)
    13f4:	b7fd                	j	13e2 <_vfprintf_r+0x230>
    13f6:	00146413          	ori	s0,s0,1
    13fa:	b7e5                	j	13e2 <_vfprintf_r+0x230>
    13fc:	000ba783          	lw	a5,0(s7)
    1400:	0b91                	addi	s7,s7,4
    1402:	d63e                	sw	a5,44(sp)
    1404:	fc07dfe3          	bgez	a5,13e2 <_vfprintf_r+0x230>
    1408:	40f007b3          	neg	a5,a5
    140c:	d63e                	sw	a5,44(sp)
    140e:	00446413          	ori	s0,s0,4
    1412:	bfc1                	j	13e2 <_vfprintf_r+0x230>
    1414:	02b00793          	li	a5,43
    1418:	bfe1                	j	13f0 <_vfprintf_r+0x23e>
    141a:	4752                	lw	a4,20(sp)
    141c:	47d2                	lw	a5,20(sp)
    141e:	00074a03          	lbu	s4,0(a4)
    1422:	02a00713          	li	a4,42
    1426:	0785                	addi	a5,a5,1
    1428:	02ea1c63          	bne	s4,a4,1460 <_vfprintf_r+0x2ae>
    142c:	000ba903          	lw	s2,0(s7)
    1430:	004b8713          	addi	a4,s7,4
    1434:	00095363          	bgez	s2,143a <_vfprintf_r+0x288>
    1438:	597d                	li	s2,-1
    143a:	8bba                	mv	s7,a4
    143c:	ca3e                	sw	a5,20(sp)
    143e:	b755                	j	13e2 <_vfprintf_r+0x230>
    1440:	02c30333          	mul	t1,t1,a2
    1444:	0007ca03          	lbu	s4,0(a5)
    1448:	0785                	addi	a5,a5,1
    144a:	933a                	add	t1,t1,a4
    144c:	fd0a0713          	addi	a4,s4,-48
    1450:	fee6f8e3          	bgeu	a3,a4,1440 <_vfprintf_r+0x28e>
    1454:	891a                	mv	s2,t1
    1456:	00035363          	bgez	t1,145c <_vfprintf_r+0x2aa>
    145a:	597d                	li	s2,-1
    145c:	ca3e                	sw	a5,20(sp)
    145e:	bdd5                	j	1352 <_vfprintf_r+0x1a0>
    1460:	4301                	li	t1,0
    1462:	46a5                	li	a3,9
    1464:	4629                	li	a2,10
    1466:	b7dd                	j	144c <_vfprintf_r+0x29a>
    1468:	08046413          	ori	s0,s0,128
    146c:	bf9d                	j	13e2 <_vfprintf_r+0x230>
    146e:	d602                	sw	zero,44(sp)
    1470:	46a9                	li	a3,10
    1472:	47a5                	li	a5,9
    1474:	5732                	lw	a4,44(sp)
    1476:	fd0a0a13          	addi	s4,s4,-48
    147a:	02d70733          	mul	a4,a4,a3
    147e:	9752                	add	a4,a4,s4
    1480:	d63a                	sw	a4,44(sp)
    1482:	4752                	lw	a4,20(sp)
    1484:	00074a03          	lbu	s4,0(a4)
    1488:	0705                	addi	a4,a4,1
    148a:	ca3a                	sw	a4,20(sp)
    148c:	fd0a0713          	addi	a4,s4,-48
    1490:	fee7f2e3          	bgeu	a5,a4,1474 <_vfprintf_r+0x2c2>
    1494:	bd7d                	j	1352 <_vfprintf_r+0x1a0>
    1496:	00846413          	ori	s0,s0,8
    149a:	b7a1                	j	13e2 <_vfprintf_r+0x230>
    149c:	47d2                	lw	a5,20(sp)
    149e:	0007c703          	lbu	a4,0(a5)
    14a2:	06800793          	li	a5,104
    14a6:	00f71863          	bne	a4,a5,14b6 <_vfprintf_r+0x304>
    14aa:	47d2                	lw	a5,20(sp)
    14ac:	20046413          	ori	s0,s0,512
    14b0:	0785                	addi	a5,a5,1
    14b2:	ca3e                	sw	a5,20(sp)
    14b4:	b73d                	j	13e2 <_vfprintf_r+0x230>
    14b6:	04046413          	ori	s0,s0,64
    14ba:	b725                	j	13e2 <_vfprintf_r+0x230>
    14bc:	47d2                	lw	a5,20(sp)
    14be:	0007c703          	lbu	a4,0(a5)
    14c2:	06c00793          	li	a5,108
    14c6:	00f71863          	bne	a4,a5,14d6 <_vfprintf_r+0x324>
    14ca:	47d2                	lw	a5,20(sp)
    14cc:	0785                	addi	a5,a5,1
    14ce:	ca3e                	sw	a5,20(sp)
    14d0:	02046413          	ori	s0,s0,32
    14d4:	b739                	j	13e2 <_vfprintf_r+0x230>
    14d6:	01046413          	ori	s0,s0,16
    14da:	b721                	j	13e2 <_vfprintf_r+0x230>
    14dc:	004b8793          	addi	a5,s7,4
    14e0:	cc3e                	sw	a5,24(sp)
    14e2:	000ba783          	lw	a5,0(s7)
    14e6:	06010fa3          	sb	zero,127(sp)
    14ea:	0ef10623          	sb	a5,236(sp)
    14ee:	c802                	sw	zero,16(sp)
    14f0:	4905                	li	s2,1
    14f2:	4801                	li	a6,0
    14f4:	4c81                	li	s9,0
    14f6:	4c01                	li	s8,0
    14f8:	4b81                	li	s7,0
    14fa:	11e4                	addi	s1,sp,236
    14fc:	aeed                	j	18f6 <_vfprintf_r+0x744>
    14fe:	01046413          	ori	s0,s0,16
    1502:	02047793          	andi	a5,s0,32
    1506:	cb9d                	beqz	a5,153c <_vfprintf_r+0x38a>
    1508:	0b9d                	addi	s7,s7,7
    150a:	ff8bfb93          	andi	s7,s7,-8
    150e:	000bac83          	lw	s9,0(s7)
    1512:	004bac03          	lw	s8,4(s7)
    1516:	008b8793          	addi	a5,s7,8
    151a:	cc3e                	sw	a5,24(sp)
    151c:	000c4463          	bltz	s8,1524 <_vfprintf_r+0x372>
    1520:	1240106f          	j	2644 <_vfprintf_r+0x1492>
    1524:	019037b3          	snez	a5,s9
    1528:	41800c33          	neg	s8,s8
    152c:	40fc0c33          	sub	s8,s8,a5
    1530:	41900cb3          	neg	s9,s9
    1534:	02d00713          	li	a4,45
    1538:	4785                	li	a5,1
    153a:	adb5                	j	1bb6 <_vfprintf_r+0xa04>
    153c:	004b8793          	addi	a5,s7,4
    1540:	cc3e                	sw	a5,24(sp)
    1542:	01047793          	andi	a5,s0,16
    1546:	000bac83          	lw	s9,0(s7)
    154a:	c781                	beqz	a5,1552 <_vfprintf_r+0x3a0>
    154c:	41fcdc13          	srai	s8,s9,0x1f
    1550:	b7f1                	j	151c <_vfprintf_r+0x36a>
    1552:	04047793          	andi	a5,s0,64
    1556:	c789                	beqz	a5,1560 <_vfprintf_r+0x3ae>
    1558:	0cc2                	slli	s9,s9,0x10
    155a:	410cdc93          	srai	s9,s9,0x10
    155e:	b7fd                	j	154c <_vfprintf_r+0x39a>
    1560:	20047793          	andi	a5,s0,512
    1564:	d7e5                	beqz	a5,154c <_vfprintf_r+0x39a>
    1566:	0ce2                	slli	s9,s9,0x18
    1568:	418cdc93          	srai	s9,s9,0x18
    156c:	b7c5                	j	154c <_vfprintf_r+0x39a>
    156e:	00847793          	andi	a5,s0,8
    1572:	c7c9                	beqz	a5,15fc <_vfprintf_r+0x44a>
    1574:	004b8793          	addi	a5,s7,4
    1578:	cc3e                	sw	a5,24(sp)
    157a:	000ba783          	lw	a5,0(s7)
    157e:	1088                	addi	a0,sp,96
    1580:	4398                	lw	a4,0(a5)
    1582:	d0ba                	sw	a4,96(sp)
    1584:	43d8                	lw	a4,4(a5)
    1586:	d2ba                	sw	a4,100(sp)
    1588:	4798                	lw	a4,8(a5)
    158a:	d4ba                	sw	a4,104(sp)
    158c:	47dc                	lw	a5,12(a5)
    158e:	d6be                	sw	a5,108(sp)
    1590:	789050ef          	jal	7518 <__trunctfdf2>
    1594:	d02a                	sw	a0,32(sp)
    1596:	d42e                	sw	a1,40(sp)
    1598:	57a2                	lw	a5,40(sp)
    159a:	5502                	lw	a0,32(sp)
    159c:	00179b93          	slli	s7,a5,0x1
    15a0:	67a5                	lui	a5,0x9
    15a2:	be07ac03          	lw	s8,-1056(a5) # 8be0 <__SDATA_BEGIN__>
    15a6:	be47ac83          	lw	s9,-1052(a5)
    15aa:	001bd593          	srli	a1,s7,0x1
    15ae:	8662                	mv	a2,s8
    15b0:	86e6                	mv	a3,s9
    15b2:	625050ef          	jal	73d6 <__unorddf2>
    15b6:	e125                	bnez	a0,1616 <_vfprintf_r+0x464>
    15b8:	5502                	lw	a0,32(sp)
    15ba:	8662                	mv	a2,s8
    15bc:	86e6                	mv	a3,s9
    15be:	001bd593          	srli	a1,s7,0x1
    15c2:	364050ef          	jal	6926 <__ledf2>
    15c6:	04a05863          	blez	a0,1616 <_vfprintf_r+0x464>
    15ca:	5502                	lw	a0,32(sp)
    15cc:	55a2                	lw	a1,40(sp)
    15ce:	4601                	li	a2,0
    15d0:	4681                	li	a3,0
    15d2:	354050ef          	jal	6926 <__ledf2>
    15d6:	00055663          	bgez	a0,15e2 <_vfprintf_r+0x430>
    15da:	02d00793          	li	a5,45
    15de:	06f10fa3          	sb	a5,127(sp)
    15e2:	04700793          	li	a5,71
    15e6:	0547ce63          	blt	a5,s4,1642 <_vfprintf_r+0x490>
    15ea:	64a1                	lui	s1,0x8
    15ec:	cf848493          	addi	s1,s1,-776 # 7cf8 <crc_32_tab+0x4a0>
    15f0:	f7f47413          	andi	s0,s0,-129
    15f4:	c802                	sw	zero,16(sp)
    15f6:	490d                	li	s2,3
    15f8:	4801                	li	a6,0
    15fa:	ad29                	j	1c14 <_vfprintf_r+0xa62>
    15fc:	0b9d                	addi	s7,s7,7
    15fe:	ff8bfb93          	andi	s7,s7,-8
    1602:	008b8793          	addi	a5,s7,8
    1606:	cc3e                	sw	a5,24(sp)
    1608:	000ba783          	lw	a5,0(s7)
    160c:	d03e                	sw	a5,32(sp)
    160e:	004ba783          	lw	a5,4(s7)
    1612:	d43e                	sw	a5,40(sp)
    1614:	b751                	j	1598 <_vfprintf_r+0x3e6>
    1616:	5602                	lw	a2,32(sp)
    1618:	56a2                	lw	a3,40(sp)
    161a:	8532                	mv	a0,a2
    161c:	85b6                	mv	a1,a3
    161e:	5b9050ef          	jal	73d6 <__unorddf2>
    1622:	c905                	beqz	a0,1652 <_vfprintf_r+0x4a0>
    1624:	57a2                	lw	a5,40(sp)
    1626:	0007d663          	bgez	a5,1632 <_vfprintf_r+0x480>
    162a:	02d00793          	li	a5,45
    162e:	06f10fa3          	sb	a5,127(sp)
    1632:	04700793          	li	a5,71
    1636:	0147ca63          	blt	a5,s4,164a <_vfprintf_r+0x498>
    163a:	64a1                	lui	s1,0x8
    163c:	d0048493          	addi	s1,s1,-768 # 7d00 <crc_32_tab+0x4a8>
    1640:	bf45                	j	15f0 <_vfprintf_r+0x43e>
    1642:	64a1                	lui	s1,0x8
    1644:	cfc48493          	addi	s1,s1,-772 # 7cfc <crc_32_tab+0x4a4>
    1648:	b765                	j	15f0 <_vfprintf_r+0x43e>
    164a:	64a1                	lui	s1,0x8
    164c:	d0448493          	addi	s1,s1,-764 # 7d04 <crc_32_tab+0x4ac>
    1650:	b745                	j	15f0 <_vfprintf_r+0x43e>
    1652:	06100793          	li	a5,97
    1656:	08fa0863          	beq	s4,a5,16e6 <_vfprintf_r+0x534>
    165a:	04100793          	li	a5,65
    165e:	08fa1763          	bne	s4,a5,16ec <_vfprintf_r+0x53a>
    1662:	05800793          	li	a5,88
    1666:	03000713          	li	a4,48
    166a:	08f100a3          	sb	a5,129(sp)
    166e:	08e10023          	sb	a4,128(sp)
    1672:	06300793          	li	a5,99
    1676:	00246413          	ori	s0,s0,2
    167a:	1527d263          	bge	a5,s2,17be <_vfprintf_r+0x60c>
    167e:	4532                	lw	a0,12(sp)
    1680:	00190593          	addi	a1,s2,1
    1684:	e9eff0ef          	jal	d22 <_malloc_r>
    1688:	84aa                	mv	s1,a0
    168a:	12051d63          	bnez	a0,17c4 <_vfprintf_r+0x612>
    168e:	47a2                	lw	a5,8(sp)
    1690:	4722                	lw	a4,8(sp)
    1692:	00c7d783          	lhu	a5,12(a5)
    1696:	0407e793          	ori	a5,a5,64
    169a:	00f71623          	sh	a5,12(a4)
    169e:	47a2                	lw	a5,8(sp)
    16a0:	00c7d783          	lhu	a5,12(a5)
    16a4:	0407f793          	andi	a5,a5,64
    16a8:	c00793e3          	bnez	a5,12ae <_vfprintf_r+0xfc>
    16ac:	18c12083          	lw	ra,396(sp)
    16b0:	18812403          	lw	s0,392(sp)
    16b4:	4572                	lw	a0,28(sp)
    16b6:	18412483          	lw	s1,388(sp)
    16ba:	18012903          	lw	s2,384(sp)
    16be:	17c12983          	lw	s3,380(sp)
    16c2:	17812a03          	lw	s4,376(sp)
    16c6:	17412a83          	lw	s5,372(sp)
    16ca:	17012b03          	lw	s6,368(sp)
    16ce:	16c12b83          	lw	s7,364(sp)
    16d2:	16812c03          	lw	s8,360(sp)
    16d6:	16412c83          	lw	s9,356(sp)
    16da:	16012d03          	lw	s10,352(sp)
    16de:	15c12d83          	lw	s11,348(sp)
    16e2:	6159                	addi	sp,sp,400
    16e4:	8082                	ret
    16e6:	07800793          	li	a5,120
    16ea:	bfb5                	j	1666 <_vfprintf_r+0x4b4>
    16ec:	57fd                	li	a5,-1
    16ee:	0cf90d63          	beq	s2,a5,17c8 <_vfprintf_r+0x616>
    16f2:	fdfa7793          	andi	a5,s4,-33
    16f6:	04700713          	li	a4,71
    16fa:	c802                	sw	zero,16(sp)
    16fc:	00e79463          	bne	a5,a4,1704 <_vfprintf_r+0x552>
    1700:	0c090763          	beqz	s2,17ce <_vfprintf_r+0x61c>
    1704:	57a2                	lw	a5,40(sp)
    1706:	10046d13          	ori	s10,s0,256
    170a:	0c07d463          	bgez	a5,17d2 <_vfprintf_r+0x620>
    170e:	80000bb7          	lui	s7,0x80000
    1712:	0177cbb3          	xor	s7,a5,s7
    1716:	02d00d93          	li	s11,45
    171a:	fdfa7c13          	andi	s8,s4,-33
    171e:	04100793          	li	a5,65
    1722:	26fc1d63          	bne	s8,a5,199c <_vfprintf_r+0x7ea>
    1726:	5502                	lw	a0,32(sp)
    1728:	0150                	addi	a2,sp,132
    172a:	85de                	mv	a1,s7
    172c:	680010ef          	jal	2dac <frexp>
    1730:	8081a603          	lw	a2,-2040(gp) # 8be8 <__SDATA_BEGIN__+0x8>
    1734:	80c1a683          	lw	a3,-2036(gp) # 8bec <__SDATA_BEGIN__+0xc>
    1738:	2a0050ef          	jal	69d8 <__muldf3>
    173c:	4601                	li	a2,0
    173e:	4681                	li	a3,0
    1740:	8b2a                	mv	s6,a0
    1742:	8cae                	mv	s9,a1
    1744:	0d2050ef          	jal	6816 <__eqdf2>
    1748:	e119                	bnez	a0,174e <_vfprintf_r+0x59c>
    174a:	4785                	li	a5,1
    174c:	c33e                	sw	a5,132(sp)
    174e:	06100793          	li	a5,97
    1752:	08fa1363          	bne	s4,a5,17d8 <_vfprintf_r+0x626>
    1756:	6ba1                	lui	s7,0x8
    1758:	d08b8b93          	addi	s7,s7,-760 # 7d08 <crc_32_tab+0x4b0>
    175c:	8141a803          	lw	a6,-2028(gp) # 8bf4 <__SDATA_BEGIN__+0x14>
    1760:	8101a783          	lw	a5,-2032(gp) # 8bf0 <__SDATA_BEGIN__+0x10>
    1764:	8d26                	mv	s10,s1
    1766:	da42                	sw	a6,52(sp)
    1768:	d83e                	sw	a5,48(sp)
    176a:	5642                	lw	a2,48(sp)
    176c:	56d2                	lw	a3,52(sp)
    176e:	855a                	mv	a0,s6
    1770:	85e6                	mv	a1,s9
    1772:	266050ef          	jal	69d8 <__muldf3>
    1776:	c2ae                	sw	a1,68(sp)
    1778:	c0aa                	sw	a0,64(sp)
    177a:	491050ef          	jal	740a <__fixdfsi>
    177e:	8c2a                	mv	s8,a0
    1780:	4ed050ef          	jal	746c <__floatsidf>
    1784:	862a                	mv	a2,a0
    1786:	86ae                	mv	a3,a1
    1788:	4506                	lw	a0,64(sp)
    178a:	4596                	lw	a1,68(sp)
    178c:	0d05                	addi	s10,s10,1
    178e:	694050ef          	jal	6e22 <__subdf3>
    1792:	018b87b3          	add	a5,s7,s8
    1796:	0007c783          	lbu	a5,0(a5)
    179a:	8b2a                	mv	s6,a0
    179c:	8cae                	mv	s9,a1
    179e:	fefd0fa3          	sb	a5,-1(s10)
    17a2:	02090f63          	beqz	s2,17e0 <_vfprintf_r+0x62e>
    17a6:	4601                	li	a2,0
    17a8:	4681                	li	a3,0
    17aa:	197d                	addi	s2,s2,-1
    17ac:	06a050ef          	jal	6816 <__eqdf2>
    17b0:	fd4d                	bnez	a0,176a <_vfprintf_r+0x5b8>
    17b2:	87ea                	mv	a5,s10
    17b4:	012d06b3          	add	a3,s10,s2
    17b8:	03000613          	li	a2,48
    17bc:	a2d1                	j	1980 <_vfprintf_r+0x7ce>
    17be:	c802                	sw	zero,16(sp)
    17c0:	11e4                	addi	s1,sp,236
    17c2:	b789                	j	1704 <_vfprintf_r+0x552>
    17c4:	c82a                	sw	a0,16(sp)
    17c6:	bf3d                	j	1704 <_vfprintf_r+0x552>
    17c8:	c802                	sw	zero,16(sp)
    17ca:	4919                	li	s2,6
    17cc:	bf25                	j	1704 <_vfprintf_r+0x552>
    17ce:	4905                	li	s2,1
    17d0:	bf15                	j	1704 <_vfprintf_r+0x552>
    17d2:	5ba2                	lw	s7,40(sp)
    17d4:	4d81                	li	s11,0
    17d6:	b791                	j	171a <_vfprintf_r+0x568>
    17d8:	6ba1                	lui	s7,0x8
    17da:	d1cb8b93          	addi	s7,s7,-740 # 7d1c <crc_32_tab+0x4c4>
    17de:	bfbd                	j	175c <_vfprintf_r+0x5aa>
    17e0:	81c1a803          	lw	a6,-2020(gp) # 8bfc <__SDATA_BEGIN__+0x1c>
    17e4:	8181a783          	lw	a5,-2024(gp) # 8bf8 <__SDATA_BEGIN__+0x18>
    17e8:	86c2                	mv	a3,a6
    17ea:	863e                	mv	a2,a5
    17ec:	d83e                	sw	a5,48(sp)
    17ee:	da42                	sw	a6,52(sp)
    17f0:	084050ef          	jal	6874 <__gedf2>
    17f4:	00a04e63          	bgtz	a0,1810 <_vfprintf_r+0x65e>
    17f8:	5642                	lw	a2,48(sp)
    17fa:	56d2                	lw	a3,52(sp)
    17fc:	855a                	mv	a0,s6
    17fe:	85e6                	mv	a1,s9
    1800:	016050ef          	jal	6816 <__eqdf2>
    1804:	18051a63          	bnez	a0,1998 <_vfprintf_r+0x7e6>
    1808:	001c7c13          	andi	s8,s8,1
    180c:	180c0663          	beqz	s8,1998 <_vfprintf_r+0x7e6>
    1810:	00fbc683          	lbu	a3,15(s7)
    1814:	c76a                	sw	s10,140(sp)
    1816:	03000613          	li	a2,48
    181a:	473a                	lw	a4,140(sp)
    181c:	fff70793          	addi	a5,a4,-1
    1820:	c73e                	sw	a5,140(sp)
    1822:	fff74783          	lbu	a5,-1(a4)
    1826:	14d78363          	beq	a5,a3,196c <_vfprintf_r+0x7ba>
    182a:	03900693          	li	a3,57
    182e:	14d79263          	bne	a5,a3,1972 <_vfprintf_r+0x7c0>
    1832:	00abc783          	lbu	a5,10(s7)
    1836:	fef70fa3          	sb	a5,-1(a4)
    183a:	409d0b33          	sub	s6,s10,s1
    183e:	459a                	lw	a1,132(sp)
    1840:	fdfa7693          	andi	a3,s4,-33
    1844:	04100513          	li	a0,65
    1848:	fff58793          	addi	a5,a1,-1
    184c:	c33e                	sw	a5,132(sp)
    184e:	8752                	mv	a4,s4
    1850:	4601                	li	a2,0
    1852:	00a69563          	bne	a3,a0,185c <_vfprintf_r+0x6aa>
    1856:	00fa0713          	addi	a4,s4,15
    185a:	4605                	li	a2,1
    185c:	08e10823          	sb	a4,144(sp)
    1860:	02b00713          	li	a4,43
    1864:	0007d663          	bgez	a5,1870 <_vfprintf_r+0x6be>
    1868:	4785                	li	a5,1
    186a:	8f8d                	sub	a5,a5,a1
    186c:	02d00713          	li	a4,45
    1870:	08e108a3          	sb	a4,145(sp)
    1874:	4725                	li	a4,9
    1876:	22f75963          	bge	a4,a5,1aa8 <_vfprintf_r+0x8f6>
    187a:	09f10613          	addi	a2,sp,159
    187e:	85b2                	mv	a1,a2
    1880:	4529                	li	a0,10
    1882:	06300813          	li	a6,99
    1886:	02a7e733          	rem	a4,a5,a0
    188a:	86b2                	mv	a3,a2
    188c:	167d                	addi	a2,a2,-1
    188e:	03070713          	addi	a4,a4,48
    1892:	fee68fa3          	sb	a4,-1(a3)
    1896:	873e                	mv	a4,a5
    1898:	02a7c7b3          	div	a5,a5,a0
    189c:	fee845e3          	blt	a6,a4,1886 <_vfprintf_r+0x6d4>
    18a0:	03078793          	addi	a5,a5,48
    18a4:	ffe68713          	addi	a4,a3,-2
    18a8:	fef60fa3          	sb	a5,-1(a2)
    18ac:	091c                	addi	a5,sp,144
    18ae:	863a                	mv	a2,a4
    18b0:	1eb76563          	bltu	a4,a1,1a9a <_vfprintf_r+0x8e8>
    18b4:	4701                	li	a4,0
    18b6:	00c5e563          	bltu	a1,a2,18c0 <_vfprintf_r+0x70e>
    18ba:	0a110713          	addi	a4,sp,161
    18be:	8f15                	sub	a4,a4,a3
    18c0:	09210793          	addi	a5,sp,146
    18c4:	973e                	add	a4,a4,a5
    18c6:	091c                	addi	a5,sp,144
    18c8:	40f707b3          	sub	a5,a4,a5
    18cc:	c0be                	sw	a5,64(sp)
    18ce:	00fb0933          	add	s2,s6,a5
    18d2:	4785                	li	a5,1
    18d4:	0167c463          	blt	a5,s6,18dc <_vfprintf_r+0x72a>
    18d8:	8fe1                	and	a5,a5,s0
    18da:	c399                	beqz	a5,18e0 <_vfprintf_r+0x72e>
    18dc:	5792                	lw	a5,36(sp)
    18de:	993e                	add	s2,s2,a5
    18e0:	bff47413          	andi	s0,s0,-1025
    18e4:	10046d13          	ori	s10,s0,256
    18e8:	4c81                	li	s9,0
    18ea:	4c01                	li	s8,0
    18ec:	4b81                	li	s7,0
    18ee:	240d9563          	bnez	s11,1b38 <_vfprintf_r+0x986>
    18f2:	846a                	mv	s0,s10
    18f4:	4801                	li	a6,0
    18f6:	d842                	sw	a6,48(sp)
    18f8:	01285363          	bge	a6,s2,18fe <_vfprintf_r+0x74c>
    18fc:	d84a                	sw	s2,48(sp)
    18fe:	07f14783          	lbu	a5,127(sp)
    1902:	5742                	lw	a4,48(sp)
    1904:	00247d93          	andi	s11,s0,2
    1908:	00f037b3          	snez	a5,a5
    190c:	97ba                	add	a5,a5,a4
    190e:	d83e                	sw	a5,48(sp)
    1910:	000d8463          	beqz	s11,1918 <_vfprintf_r+0x766>
    1914:	0789                	addi	a5,a5,2
    1916:	d83e                	sw	a5,48(sp)
    1918:	08447d13          	andi	s10,s0,132
    191c:	500d1763          	bnez	s10,1e2a <_vfprintf_r+0xc78>
    1920:	57b2                	lw	a5,44(sp)
    1922:	5742                	lw	a4,48(sp)
    1924:	8f99                	sub	a5,a5,a4
    1926:	50f05263          	blez	a5,1e2a <_vfprintf_r+0xc78>
    192a:	68a1                	lui	a7,0x8
    192c:	4e41                	li	t3,16
    192e:	00488893          	addi	a7,a7,4 # 8004 <blanks.1>
    1932:	4e9d                	li	t4,7
    1934:	571a                	lw	a4,164(sp)
    1936:	011aa023          	sw	a7,0(s5)
    193a:	562a                	lw	a2,168(sp)
    193c:	0705                	addi	a4,a4,1
    193e:	008a8693          	addi	a3,s5,8
    1942:	5cfe4d63          	blt	t3,a5,1f1c <_vfprintf_r+0xd6a>
    1946:	00faa223          	sw	a5,4(s5)
    194a:	97b2                	add	a5,a5,a2
    194c:	d53e                	sw	a5,168(sp)
    194e:	d33a                	sw	a4,164(sp)
    1950:	479d                	li	a5,7
    1952:	4ce7dd63          	bge	a5,a4,1e2c <_vfprintf_r+0xc7a>
    1956:	45a2                	lw	a1,8(sp)
    1958:	4532                	lw	a0,12(sp)
    195a:	1110                	addi	a2,sp,160
    195c:	ccc2                	sw	a6,88(sp)
    195e:	59d000ef          	jal	26fa <__sprint_r>
    1962:	4c0517e3          	bnez	a0,2630 <_vfprintf_r+0x147e>
    1966:	4866                	lw	a6,88(sp)
    1968:	1174                	addi	a3,sp,172
    196a:	a1c9                	j	1e2c <_vfprintf_r+0xc7a>
    196c:	fec70fa3          	sb	a2,-1(a4)
    1970:	b56d                	j	181a <_vfprintf_r+0x668>
    1972:	0785                	addi	a5,a5,1
    1974:	0ff7f793          	zext.b	a5,a5
    1978:	bd7d                	j	1836 <_vfprintf_r+0x684>
    197a:	0785                	addi	a5,a5,1
    197c:	fec78fa3          	sb	a2,-1(a5)
    1980:	40f68733          	sub	a4,a3,a5
    1984:	fe075be3          	bgez	a4,197a <_vfprintf_r+0x7c8>
    1988:	fff92793          	slti	a5,s2,-1
    198c:	4701                	li	a4,0
    198e:	e399                	bnez	a5,1994 <_vfprintf_r+0x7e2>
    1990:	00190713          	addi	a4,s2,1
    1994:	9d3a                	add	s10,s10,a4
    1996:	b555                	j	183a <_vfprintf_r+0x688>
    1998:	597d                	li	s2,-1
    199a:	bd21                	j	17b2 <_vfprintf_r+0x600>
    199c:	04600793          	li	a5,70
    19a0:	04fc0e63          	beq	s8,a5,19fc <_vfprintf_r+0x84a>
    19a4:	fbbc0b13          	addi	s6,s8,-69
    19a8:	001b3b13          	seqz	s6,s6
    19ac:	9b4a                	add	s6,s6,s2
    19ae:	4689                	li	a3,2
    19b0:	5502                	lw	a0,32(sp)
    19b2:	015c                	addi	a5,sp,132
    19b4:	08c10893          	addi	a7,sp,140
    19b8:	85aa                	mv	a1,a0
    19ba:	4532                	lw	a0,12(sp)
    19bc:	08810813          	addi	a6,sp,136
    19c0:	875a                	mv	a4,s6
    19c2:	865e                	mv	a2,s7
    19c4:	59e010ef          	jal	2f62 <_dtoa_r>
    19c8:	04700793          	li	a5,71
    19cc:	84aa                	mv	s1,a0
    19ce:	02fc1a63          	bne	s8,a5,1a02 <_vfprintf_r+0x850>
    19d2:	00147793          	andi	a5,s0,1
    19d6:	01650cb3          	add	s9,a0,s6
    19da:	e3a5                	bnez	a5,1a3a <_vfprintf_r+0x888>
    19dc:	4b3a                	lw	s6,140(sp)
    19de:	04700713          	li	a4,71
    19e2:	479a                	lw	a5,132(sp)
    19e4:	409b0b33          	sub	s6,s6,s1
    19e8:	06ec1d63          	bne	s8,a4,1a62 <_vfprintf_r+0x8b0>
    19ec:	ffd7a713          	slti	a4,a5,-3
    19f0:	8bbe                	mv	s7,a5
    19f2:	e319                	bnez	a4,19f8 <_vfprintf_r+0x846>
    19f4:	0cf95a63          	bge	s2,a5,1ac8 <_vfprintf_r+0x916>
    19f8:	1a79                	addi	s4,s4,-2
    19fa:	b591                	j	183e <_vfprintf_r+0x68c>
    19fc:	8b4a                	mv	s6,s2
    19fe:	468d                	li	a3,3
    1a00:	bf45                	j	19b0 <_vfprintf_r+0x7fe>
    1a02:	06600793          	li	a5,102
    1a06:	01650cb3          	add	s9,a0,s6
    1a0a:	00fa0663          	beq	s4,a5,1a16 <_vfprintf_r+0x864>
    1a0e:	04600793          	li	a5,70
    1a12:	02fa1463          	bne	s4,a5,1a3a <_vfprintf_r+0x888>
    1a16:	0004c783          	lbu	a5,0(s1)
    1a1a:	fd078793          	addi	a5,a5,-48
    1a1e:	ef81                	bnez	a5,1a36 <_vfprintf_r+0x884>
    1a20:	5502                	lw	a0,32(sp)
    1a22:	4601                	li	a2,0
    1a24:	4681                	li	a3,0
    1a26:	85de                	mv	a1,s7
    1a28:	5ef040ef          	jal	6816 <__eqdf2>
    1a2c:	c509                	beqz	a0,1a36 <_vfprintf_r+0x884>
    1a2e:	4785                	li	a5,1
    1a30:	416787b3          	sub	a5,a5,s6
    1a34:	c33e                	sw	a5,132(sp)
    1a36:	479a                	lw	a5,132(sp)
    1a38:	9cbe                	add	s9,s9,a5
    1a3a:	5502                	lw	a0,32(sp)
    1a3c:	4601                	li	a2,0
    1a3e:	4681                	li	a3,0
    1a40:	85de                	mv	a1,s7
    1a42:	5d5040ef          	jal	6816 <__eqdf2>
    1a46:	e111                	bnez	a0,1a4a <_vfprintf_r+0x898>
    1a48:	c766                	sw	s9,140(sp)
    1a4a:	03000713          	li	a4,48
    1a4e:	a031                	j	1a5a <_vfprintf_r+0x8a8>
    1a50:	00178693          	addi	a3,a5,1
    1a54:	c736                	sw	a3,140(sp)
    1a56:	00e78023          	sb	a4,0(a5)
    1a5a:	47ba                	lw	a5,140(sp)
    1a5c:	ff97eae3          	bltu	a5,s9,1a50 <_vfprintf_r+0x89e>
    1a60:	bfb5                	j	19dc <_vfprintf_r+0x82a>
    1a62:	04600713          	li	a4,70
    1a66:	dcec1ce3          	bne	s8,a4,183e <_vfprintf_r+0x68c>
    1a6a:	00147713          	andi	a4,s0,1
    1a6e:	8bbe                	mv	s7,a5
    1a70:	01276733          	or	a4,a4,s2
    1a74:	06f05863          	blez	a5,1ae4 <_vfprintf_r+0x932>
    1a78:	c741                	beqz	a4,1b00 <_vfprintf_r+0x94e>
    1a7a:	5712                	lw	a4,36(sp)
    1a7c:	973e                	add	a4,a4,a5
    1a7e:	993a                	add	s2,s2,a4
    1a80:	06600a13          	li	s4,102
    1a84:	40047c13          	andi	s8,s0,1024
    1a88:	4c81                	li	s9,0
    1a8a:	e60c02e3          	beqz	s8,18ee <_vfprintf_r+0x73c>
    1a8e:	4c01                	li	s8,0
    1a90:	e4f05fe3          	blez	a5,18ee <_vfprintf_r+0x73c>
    1a94:	0ff00713          	li	a4,255
    1a98:	a059                	j	1b1e <_vfprintf_r+0x96c>
    1a9a:	00074503          	lbu	a0,0(a4)
    1a9e:	0785                	addi	a5,a5,1
    1aa0:	0705                	addi	a4,a4,1
    1aa2:	00a780a3          	sb	a0,1(a5)
    1aa6:	b529                	j	18b0 <_vfprintf_r+0x6fe>
    1aa8:	09210693          	addi	a3,sp,146
    1aac:	e619                	bnez	a2,1aba <_vfprintf_r+0x908>
    1aae:	03000713          	li	a4,48
    1ab2:	08e10923          	sb	a4,146(sp)
    1ab6:	09310693          	addi	a3,sp,147
    1aba:	03078793          	addi	a5,a5,48
    1abe:	00168713          	addi	a4,a3,1
    1ac2:	00f68023          	sb	a5,0(a3)
    1ac6:	b501                	j	18c6 <_vfprintf_r+0x714>
    1ac8:	0367d263          	bge	a5,s6,1aec <_vfprintf_r+0x93a>
    1acc:	5712                	lw	a4,36(sp)
    1ace:	06700a13          	li	s4,103
    1ad2:	00eb0933          	add	s2,s6,a4
    1ad6:	faf047e3          	bgtz	a5,1a84 <_vfprintf_r+0x8d2>
    1ada:	40f90333          	sub	t1,s2,a5
    1ade:	00130913          	addi	s2,t1,1
    1ae2:	b74d                	j	1a84 <_vfprintf_r+0x8d2>
    1ae4:	c305                	beqz	a4,1b04 <_vfprintf_r+0x952>
    1ae6:	5712                	lw	a4,36(sp)
    1ae8:	0705                	addi	a4,a4,1
    1aea:	bf51                	j	1a7e <_vfprintf_r+0x8cc>
    1aec:	00147713          	andi	a4,s0,1
    1af0:	893e                	mv	s2,a5
    1af2:	c701                	beqz	a4,1afa <_vfprintf_r+0x948>
    1af4:	5712                	lw	a4,36(sp)
    1af6:	00e78933          	add	s2,a5,a4
    1afa:	06700a13          	li	s4,103
    1afe:	b759                	j	1a84 <_vfprintf_r+0x8d2>
    1b00:	893e                	mv	s2,a5
    1b02:	bfbd                	j	1a80 <_vfprintf_r+0x8ce>
    1b04:	06600a13          	li	s4,102
    1b08:	4905                	li	s2,1
    1b0a:	bfad                	j	1a84 <_vfprintf_r+0x8d2>
    1b0c:	0177dd63          	bge	a5,s7,1b26 <_vfprintf_r+0x974>
    1b10:	40fb8bb3          	sub	s7,s7,a5
    1b14:	0019c783          	lbu	a5,1(s3)
    1b18:	cf91                	beqz	a5,1b34 <_vfprintf_r+0x982>
    1b1a:	0c05                	addi	s8,s8,1
    1b1c:	0985                	addi	s3,s3,1
    1b1e:	0009c783          	lbu	a5,0(s3)
    1b22:	fee795e3          	bne	a5,a4,1b0c <_vfprintf_r+0x95a>
    1b26:	5762                	lw	a4,56(sp)
    1b28:	019c07b3          	add	a5,s8,s9
    1b2c:	02e787b3          	mul	a5,a5,a4
    1b30:	993e                	add	s2,s2,a5
    1b32:	bb75                	j	18ee <_vfprintf_r+0x73c>
    1b34:	0c85                	addi	s9,s9,1
    1b36:	b7e5                	j	1b1e <_vfprintf_r+0x96c>
    1b38:	02d00793          	li	a5,45
    1b3c:	06f10fa3          	sb	a5,127(sp)
    1b40:	bb4d                	j	18f2 <_vfprintf_r+0x740>
    1b42:	02047793          	andi	a5,s0,32
    1b46:	004b8713          	addi	a4,s7,4
    1b4a:	cb89                	beqz	a5,1b5c <_vfprintf_r+0x9aa>
    1b4c:	000ba783          	lw	a5,0(s7)
    1b50:	46f2                	lw	a3,28(sp)
    1b52:	c394                	sw	a3,0(a5)
    1b54:	86fd                	srai	a3,a3,0x1f
    1b56:	c3d4                	sw	a3,4(a5)
    1b58:	8bba                	mv	s7,a4
    1b5a:	a3e9                	j	2124 <_vfprintf_r+0xf72>
    1b5c:	01047793          	andi	a5,s0,16
    1b60:	c791                	beqz	a5,1b6c <_vfprintf_r+0x9ba>
    1b62:	000ba783          	lw	a5,0(s7)
    1b66:	46f2                	lw	a3,28(sp)
    1b68:	c394                	sw	a3,0(a5)
    1b6a:	b7fd                	j	1b58 <_vfprintf_r+0x9a6>
    1b6c:	04047793          	andi	a5,s0,64
    1b70:	c799                	beqz	a5,1b7e <_vfprintf_r+0x9cc>
    1b72:	000ba783          	lw	a5,0(s7)
    1b76:	46f2                	lw	a3,28(sp)
    1b78:	00d79023          	sh	a3,0(a5)
    1b7c:	bff1                	j	1b58 <_vfprintf_r+0x9a6>
    1b7e:	20047413          	andi	s0,s0,512
    1b82:	d065                	beqz	s0,1b62 <_vfprintf_r+0x9b0>
    1b84:	000ba783          	lw	a5,0(s7)
    1b88:	46f2                	lw	a3,28(sp)
    1b8a:	00d78023          	sb	a3,0(a5)
    1b8e:	b7e9                	j	1b58 <_vfprintf_r+0x9a6>
    1b90:	01046413          	ori	s0,s0,16
    1b94:	02047793          	andi	a5,s0,32
    1b98:	c3d1                	beqz	a5,1c1c <_vfprintf_r+0xa6a>
    1b9a:	0b9d                	addi	s7,s7,7
    1b9c:	ff8bfb93          	andi	s7,s7,-8
    1ba0:	000bac83          	lw	s9,0(s7)
    1ba4:	004bac03          	lw	s8,4(s7)
    1ba8:	008b8793          	addi	a5,s7,8
    1bac:	cc3e                	sw	a5,24(sp)
    1bae:	bff47413          	andi	s0,s0,-1025
    1bb2:	4701                	li	a4,0
    1bb4:	4781                	li	a5,0
    1bb6:	06e10fa3          	sb	a4,127(sp)
    1bba:	8722                	mv	a4,s0
    1bbc:	16095c63          	bgez	s2,1d34 <_vfprintf_r+0xb82>
    1bc0:	4705                	li	a4,1
    1bc2:	28e783e3          	beq	a5,a4,2648 <_vfprintf_r+0x1496>
    1bc6:	4709                	li	a4,2
    1bc8:	0a84                	addi	s1,sp,336
    1bca:	22e78063          	beq	a5,a4,1dea <_vfprintf_r+0xc38>
    1bce:	01dc1693          	slli	a3,s8,0x1d
    1bd2:	007cf793          	andi	a5,s9,7
    1bd6:	003cdc93          	srli	s9,s9,0x3
    1bda:	8726                	mv	a4,s1
    1bdc:	03078793          	addi	a5,a5,48
    1be0:	9cb6                	add	s9,s9,a3
    1be2:	003c5c13          	srli	s8,s8,0x3
    1be6:	018ce6b3          	or	a3,s9,s8
    1bea:	fef48fa3          	sb	a5,-1(s1)
    1bee:	14fd                	addi	s1,s1,-1
    1bf0:	fef9                	bnez	a3,1bce <_vfprintf_r+0xa1c>
    1bf2:	fd078793          	addi	a5,a5,-48
    1bf6:	cb91                	beqz	a5,1c0a <_vfprintf_r+0xa58>
    1bf8:	00147793          	andi	a5,s0,1
    1bfc:	c799                	beqz	a5,1c0a <_vfprintf_r+0xa58>
    1bfe:	03000793          	li	a5,48
    1c02:	fef48fa3          	sb	a5,-1(s1)
    1c06:	ffe70493          	addi	s1,a4,-2
    1c0a:	0a9c                	addi	a5,sp,336
    1c0c:	884a                	mv	a6,s2
    1c0e:	c802                	sw	zero,16(sp)
    1c10:	40978933          	sub	s2,a5,s1
    1c14:	4c81                	li	s9,0
    1c16:	4c01                	li	s8,0
    1c18:	4b81                	li	s7,0
    1c1a:	b9f1                	j	18f6 <_vfprintf_r+0x744>
    1c1c:	004b8793          	addi	a5,s7,4
    1c20:	cc3e                	sw	a5,24(sp)
    1c22:	01047793          	andi	a5,s0,16
    1c26:	c781                	beqz	a5,1c2e <_vfprintf_r+0xa7c>
    1c28:	000bac83          	lw	s9,0(s7)
    1c2c:	a031                	j	1c38 <_vfprintf_r+0xa86>
    1c2e:	04047793          	andi	a5,s0,64
    1c32:	c789                	beqz	a5,1c3c <_vfprintf_r+0xa8a>
    1c34:	000bdc83          	lhu	s9,0(s7)
    1c38:	4c01                	li	s8,0
    1c3a:	bf95                	j	1bae <_vfprintf_r+0x9fc>
    1c3c:	20047793          	andi	a5,s0,512
    1c40:	d7e5                	beqz	a5,1c28 <_vfprintf_r+0xa76>
    1c42:	000bcc83          	lbu	s9,0(s7)
    1c46:	bfcd                	j	1c38 <_vfprintf_r+0xa86>
    1c48:	004b8793          	addi	a5,s7,4
    1c4c:	cc3e                	sw	a5,24(sp)
    1c4e:	67a1                	lui	a5,0x8
    1c50:	83078793          	addi	a5,a5,-2000 # 7830 <unknown_msg+0x1e>
    1c54:	08f11023          	sh	a5,128(sp)
    1c58:	67a1                	lui	a5,0x8
    1c5a:	d0878793          	addi	a5,a5,-760 # 7d08 <crc_32_tab+0x4b0>
    1c5e:	c6be                	sw	a5,76(sp)
    1c60:	000bac83          	lw	s9,0(s7)
    1c64:	4c01                	li	s8,0
    1c66:	00246413          	ori	s0,s0,2
    1c6a:	4701                	li	a4,0
    1c6c:	4789                	li	a5,2
    1c6e:	07800a13          	li	s4,120
    1c72:	b791                	j	1bb6 <_vfprintf_r+0xa04>
    1c74:	004b8793          	addi	a5,s7,4
    1c78:	cc3e                	sw	a5,24(sp)
    1c7a:	06010fa3          	sb	zero,127(sp)
    1c7e:	000ba483          	lw	s1,0(s7)
    1c82:	00094e63          	bltz	s2,1c9e <_vfprintf_r+0xaec>
    1c86:	864a                	mv	a2,s2
    1c88:	4581                	li	a1,0
    1c8a:	8526                	mv	a0,s1
    1c8c:	106010ef          	jal	2d92 <memchr>
    1c90:	c82a                	sw	a0,16(sp)
    1c92:	960503e3          	beqz	a0,15f8 <_vfprintf_r+0x446>
    1c96:	40950933          	sub	s2,a0,s1
    1c9a:	c802                	sw	zero,16(sp)
    1c9c:	bab1                	j	15f8 <_vfprintf_r+0x446>
    1c9e:	8526                	mv	a0,s1
    1ca0:	d1dfe0ef          	jal	9bc <strlen>
    1ca4:	892a                	mv	s2,a0
    1ca6:	bfd5                	j	1c9a <_vfprintf_r+0xae8>
    1ca8:	01046413          	ori	s0,s0,16
    1cac:	02047793          	andi	a5,s0,32
    1cb0:	cf91                	beqz	a5,1ccc <_vfprintf_r+0xb1a>
    1cb2:	0b9d                	addi	s7,s7,7
    1cb4:	ff8bfb93          	andi	s7,s7,-8
    1cb8:	000bac83          	lw	s9,0(s7)
    1cbc:	004bac03          	lw	s8,4(s7)
    1cc0:	008b8793          	addi	a5,s7,8
    1cc4:	cc3e                	sw	a5,24(sp)
    1cc6:	4701                	li	a4,0
    1cc8:	871ff06f          	j	1538 <_vfprintf_r+0x386>
    1ccc:	004b8793          	addi	a5,s7,4
    1cd0:	cc3e                	sw	a5,24(sp)
    1cd2:	01047793          	andi	a5,s0,16
    1cd6:	c781                	beqz	a5,1cde <_vfprintf_r+0xb2c>
    1cd8:	000bac83          	lw	s9,0(s7)
    1cdc:	a031                	j	1ce8 <_vfprintf_r+0xb36>
    1cde:	04047793          	andi	a5,s0,64
    1ce2:	c789                	beqz	a5,1cec <_vfprintf_r+0xb3a>
    1ce4:	000bdc83          	lhu	s9,0(s7)
    1ce8:	4c01                	li	s8,0
    1cea:	bff1                	j	1cc6 <_vfprintf_r+0xb14>
    1cec:	20047793          	andi	a5,s0,512
    1cf0:	d7e5                	beqz	a5,1cd8 <_vfprintf_r+0xb26>
    1cf2:	000bcc83          	lbu	s9,0(s7)
    1cf6:	bfcd                	j	1ce8 <_vfprintf_r+0xb36>
    1cf8:	67a1                	lui	a5,0x8
    1cfa:	d1c78793          	addi	a5,a5,-740 # 7d1c <crc_32_tab+0x4c4>
    1cfe:	e70ff06f          	j	136e <_vfprintf_r+0x1bc>
    1d02:	004b8793          	addi	a5,s7,4
    1d06:	cc3e                	sw	a5,24(sp)
    1d08:	01047793          	andi	a5,s0,16
    1d0c:	c781                	beqz	a5,1d14 <_vfprintf_r+0xb62>
    1d0e:	000bac83          	lw	s9,0(s7)
    1d12:	a031                	j	1d1e <_vfprintf_r+0xb6c>
    1d14:	04047793          	andi	a5,s0,64
    1d18:	c791                	beqz	a5,1d24 <_vfprintf_r+0xb72>
    1d1a:	000bdc83          	lhu	s9,0(s7)
    1d1e:	4c01                	li	s8,0
    1d20:	e6cff06f          	j	138c <_vfprintf_r+0x1da>
    1d24:	20047793          	andi	a5,s0,512
    1d28:	d3fd                	beqz	a5,1d0e <_vfprintf_r+0xb5c>
    1d2a:	000bcc83          	lbu	s9,0(s7)
    1d2e:	bfc5                	j	1d1e <_vfprintf_r+0xb6c>
    1d30:	8722                	mv	a4,s0
    1d32:	4785                	li	a5,1
    1d34:	018ce6b3          	or	a3,s9,s8
    1d38:	f7f47413          	andi	s0,s0,-129
    1d3c:	e80692e3          	bnez	a3,1bc0 <_vfprintf_r+0xa0e>
    1d40:	e80910e3          	bnez	s2,1bc0 <_vfprintf_r+0xa0e>
    1d44:	e7f9                	bnez	a5,1e12 <_vfprintf_r+0xc60>
    1d46:	00177913          	andi	s2,a4,1
    1d4a:	0a84                	addi	s1,sp,336
    1d4c:	ea090fe3          	beqz	s2,1c0a <_vfprintf_r+0xa58>
    1d50:	03000793          	li	a5,48
    1d54:	14f107a3          	sb	a5,335(sp)
    1d58:	4901                	li	s2,0
    1d5a:	1010006f          	j	265a <_vfprintf_r+0x14a8>
    1d5e:	0a9c                	addi	a5,sp,336
    1d60:	40047b93          	andi	s7,s0,1024
    1d64:	4b01                	li	s6,0
    1d66:	c83e                	sw	a5,16(sp)
    1d68:	47c2                	lw	a5,16(sp)
    1d6a:	4629                	li	a2,10
    1d6c:	4681                	li	a3,0
    1d6e:	8566                	mv	a0,s9
    1d70:	85e2                	mv	a1,s8
    1d72:	fff78493          	addi	s1,a5,-1
    1d76:	463030ef          	jal	59d8 <__umoddi3>
    1d7a:	47c2                	lw	a5,16(sp)
    1d7c:	03050513          	addi	a0,a0,48
    1d80:	0b05                	addi	s6,s6,1
    1d82:	fea78fa3          	sb	a0,-1(a5)
    1d86:	040b8463          	beqz	s7,1dce <_vfprintf_r+0xc1c>
    1d8a:	0009c783          	lbu	a5,0(s3)
    1d8e:	05679063          	bne	a5,s6,1dce <_vfprintf_r+0xc1c>
    1d92:	f0178793          	addi	a5,a5,-255
    1d96:	cf85                	beqz	a5,1dce <_vfprintf_r+0xc1c>
    1d98:	000c1563          	bnez	s8,1da2 <_vfprintf_r+0xbf0>
    1d9c:	47a5                	li	a5,9
    1d9e:	e797f6e3          	bgeu	a5,s9,1c0a <_vfprintf_r+0xa58>
    1da2:	57e2                	lw	a5,56(sp)
    1da4:	45a6                	lw	a1,72(sp)
    1da6:	8c9d                	sub	s1,s1,a5
    1da8:	863e                	mv	a2,a5
    1daa:	8526                	mv	a0,s1
    1dac:	749000ef          	jal	2cf4 <strncpy>
    1db0:	0019c783          	lbu	a5,1(s3)
    1db4:	c391                	beqz	a5,1db8 <_vfprintf_r+0xc06>
    1db6:	0985                	addi	s3,s3,1
    1db8:	8566                	mv	a0,s9
    1dba:	85e2                	mv	a1,s8
    1dbc:	4629                	li	a2,10
    1dbe:	4681                	li	a3,0
    1dc0:	113030ef          	jal	56d2 <__udivdi3>
    1dc4:	8caa                	mv	s9,a0
    1dc6:	8c2e                	mv	s8,a1
    1dc8:	4b01                	li	s6,0
    1dca:	c826                	sw	s1,16(sp)
    1dcc:	bf71                	j	1d68 <_vfprintf_r+0xbb6>
    1dce:	000c1563          	bnez	s8,1dd8 <_vfprintf_r+0xc26>
    1dd2:	47a5                	li	a5,9
    1dd4:	e397fbe3          	bgeu	a5,s9,1c0a <_vfprintf_r+0xa58>
    1dd8:	8566                	mv	a0,s9
    1dda:	85e2                	mv	a1,s8
    1ddc:	4629                	li	a2,10
    1dde:	4681                	li	a3,0
    1de0:	0f3030ef          	jal	56d2 <__udivdi3>
    1de4:	8caa                	mv	s9,a0
    1de6:	8c2e                	mv	s8,a1
    1de8:	b7cd                	j	1dca <_vfprintf_r+0xc18>
    1dea:	4736                	lw	a4,76(sp)
    1dec:	00fcf793          	andi	a5,s9,15
    1df0:	14fd                	addi	s1,s1,-1
    1df2:	97ba                	add	a5,a5,a4
    1df4:	0007c783          	lbu	a5,0(a5)
    1df8:	004cdc93          	srli	s9,s9,0x4
    1dfc:	00f48023          	sb	a5,0(s1)
    1e00:	01cc1793          	slli	a5,s8,0x1c
    1e04:	9cbe                	add	s9,s9,a5
    1e06:	004c5c13          	srli	s8,s8,0x4
    1e0a:	018ce7b3          	or	a5,s9,s8
    1e0e:	fff1                	bnez	a5,1dea <_vfprintf_r+0xc38>
    1e10:	bbed                	j	1c0a <_vfprintf_r+0xa58>
    1e12:	4901                	li	s2,0
    1e14:	0a84                	addi	s1,sp,336
    1e16:	bbd5                	j	1c0a <_vfprintf_r+0xa58>
    1e18:	000a02e3          	beqz	s4,261c <_vfprintf_r+0x146a>
    1e1c:	0f410623          	sb	s4,236(sp)
    1e20:	06010fa3          	sb	zero,127(sp)
    1e24:	cc5e                	sw	s7,24(sp)
    1e26:	ec8ff06f          	j	14ee <_vfprintf_r+0x33c>
    1e2a:	86d6                	mv	a3,s5
    1e2c:	07f14783          	lbu	a5,127(sp)
    1e30:	cb95                	beqz	a5,1e64 <_vfprintf_r+0xcb2>
    1e32:	57aa                	lw	a5,168(sp)
    1e34:	07f10713          	addi	a4,sp,127
    1e38:	c298                	sw	a4,0(a3)
    1e3a:	4705                	li	a4,1
    1e3c:	97ba                	add	a5,a5,a4
    1e3e:	d53e                	sw	a5,168(sp)
    1e40:	579a                	lw	a5,164(sp)
    1e42:	c2d8                	sw	a4,4(a3)
    1e44:	06a1                	addi	a3,a3,8
    1e46:	97ba                	add	a5,a5,a4
    1e48:	d33e                	sw	a5,164(sp)
    1e4a:	471d                	li	a4,7
    1e4c:	00f75c63          	bge	a4,a5,1e64 <_vfprintf_r+0xcb2>
    1e50:	45a2                	lw	a1,8(sp)
    1e52:	4532                	lw	a0,12(sp)
    1e54:	1110                	addi	a2,sp,160
    1e56:	ccc2                	sw	a6,88(sp)
    1e58:	0a3000ef          	jal	26fa <__sprint_r>
    1e5c:	7c051a63          	bnez	a0,2630 <_vfprintf_r+0x147e>
    1e60:	4866                	lw	a6,88(sp)
    1e62:	1174                	addi	a3,sp,172
    1e64:	020d8a63          	beqz	s11,1e98 <_vfprintf_r+0xce6>
    1e68:	57aa                	lw	a5,168(sp)
    1e6a:	0118                	addi	a4,sp,128
    1e6c:	c298                	sw	a4,0(a3)
    1e6e:	4709                	li	a4,2
    1e70:	97ba                	add	a5,a5,a4
    1e72:	d53e                	sw	a5,168(sp)
    1e74:	579a                	lw	a5,164(sp)
    1e76:	c2d8                	sw	a4,4(a3)
    1e78:	471d                	li	a4,7
    1e7a:	0785                	addi	a5,a5,1
    1e7c:	d33e                	sw	a5,164(sp)
    1e7e:	06a1                	addi	a3,a3,8
    1e80:	00f75c63          	bge	a4,a5,1e98 <_vfprintf_r+0xce6>
    1e84:	45a2                	lw	a1,8(sp)
    1e86:	4532                	lw	a0,12(sp)
    1e88:	1110                	addi	a2,sp,160
    1e8a:	ccc2                	sw	a6,88(sp)
    1e8c:	06f000ef          	jal	26fa <__sprint_r>
    1e90:	7a051063          	bnez	a0,2630 <_vfprintf_r+0x147e>
    1e94:	4866                	lw	a6,88(sp)
    1e96:	1174                	addi	a3,sp,172
    1e98:	08000793          	li	a5,128
    1e9c:	0afd0a63          	beq	s10,a5,1f50 <_vfprintf_r+0xd9e>
    1ea0:	8d36                	mv	s10,a3
    1ea2:	41280ab3          	sub	s5,a6,s2
    1ea6:	05505063          	blez	s5,1ee6 <_vfprintf_r+0xd34>
    1eaa:	4dc1                	li	s11,16
    1eac:	481d                	li	a6,7
    1eae:	4646                	lw	a2,80(sp)
    1eb0:	579a                	lw	a5,164(sp)
    1eb2:	572a                	lw	a4,168(sp)
    1eb4:	00cd2023          	sw	a2,0(s10)
    1eb8:	0785                	addi	a5,a5,1
    1eba:	008d0693          	addi	a3,s10,8
    1ebe:	115dc663          	blt	s11,s5,1fca <_vfprintf_r+0xe18>
    1ec2:	015d2223          	sw	s5,4(s10)
    1ec6:	9aba                	add	s5,s5,a4
    1ec8:	d556                	sw	s5,168(sp)
    1eca:	d33e                	sw	a5,164(sp)
    1ecc:	471d                	li	a4,7
    1ece:	8d36                	mv	s10,a3
    1ed0:	00f75b63          	bge	a4,a5,1ee6 <_vfprintf_r+0xd34>
    1ed4:	45a2                	lw	a1,8(sp)
    1ed6:	4532                	lw	a0,12(sp)
    1ed8:	1110                	addi	a2,sp,160
    1eda:	021000ef          	jal	26fa <__sprint_r>
    1ede:	74051963          	bnez	a0,2630 <_vfprintf_r+0x147e>
    1ee2:	0ac10d13          	addi	s10,sp,172
    1ee6:	10047793          	andi	a5,s0,256
    1eea:	5aaa                	lw	s5,168(sp)
    1eec:	10079163          	bnez	a5,1fee <_vfprintf_r+0xe3c>
    1ef0:	9aca                	add	s5,s5,s2
    1ef2:	009d2023          	sw	s1,0(s10)
    1ef6:	012d2223          	sw	s2,4(s10)
    1efa:	d556                	sw	s5,168(sp)
    1efc:	579a                	lw	a5,164(sp)
    1efe:	471d                	li	a4,7
    1f00:	0d21                	addi	s10,s10,8
    1f02:	0785                	addi	a5,a5,1
    1f04:	d33e                	sw	a5,164(sp)
    1f06:	1af75363          	bge	a4,a5,20ac <_vfprintf_r+0xefa>
    1f0a:	45a2                	lw	a1,8(sp)
    1f0c:	4532                	lw	a0,12(sp)
    1f0e:	1110                	addi	a2,sp,160
    1f10:	27ed                	jal	26fa <__sprint_r>
    1f12:	70051f63          	bnez	a0,2630 <_vfprintf_r+0x147e>
    1f16:	0ac10d13          	addi	s10,sp,172
    1f1a:	aa49                	j	20ac <_vfprintf_r+0xefa>
    1f1c:	0641                	addi	a2,a2,16
    1f1e:	01caa223          	sw	t3,4(s5)
    1f22:	d532                	sw	a2,168(sp)
    1f24:	d33a                	sw	a4,164(sp)
    1f26:	02eed263          	bge	t4,a4,1f4a <_vfprintf_r+0xd98>
    1f2a:	45a2                	lw	a1,8(sp)
    1f2c:	4532                	lw	a0,12(sp)
    1f2e:	1110                	addi	a2,sp,160
    1f30:	cec2                	sw	a6,92(sp)
    1f32:	ccbe                	sw	a5,88(sp)
    1f34:	27d9                	jal	26fa <__sprint_r>
    1f36:	6e051d63          	bnez	a0,2630 <_vfprintf_r+0x147e>
    1f3a:	67a1                	lui	a5,0x8
    1f3c:	00478893          	addi	a7,a5,4 # 8004 <blanks.1>
    1f40:	4876                	lw	a6,92(sp)
    1f42:	47e6                	lw	a5,88(sp)
    1f44:	1174                	addi	a3,sp,172
    1f46:	4e9d                	li	t4,7
    1f48:	4e41                	li	t3,16
    1f4a:	17c1                	addi	a5,a5,-16
    1f4c:	8ab6                	mv	s5,a3
    1f4e:	b2dd                	j	1934 <_vfprintf_r+0x782>
    1f50:	57b2                	lw	a5,44(sp)
    1f52:	5742                	lw	a4,48(sp)
    1f54:	40e78db3          	sub	s11,a5,a4
    1f58:	f5b054e3          	blez	s11,1ea0 <_vfprintf_r+0xcee>
    1f5c:	6aa1                	lui	s5,0x8
    1f5e:	48c1                	li	a7,16
    1f60:	014a8a93          	addi	s5,s5,20 # 8014 <zeroes.0>
    1f64:	4e1d                	li	t3,7
    1f66:	579a                	lw	a5,164(sp)
    1f68:	0156a023          	sw	s5,0(a3)
    1f6c:	572a                	lw	a4,168(sp)
    1f6e:	0785                	addi	a5,a5,1
    1f70:	00868d13          	addi	s10,a3,8
    1f74:	03b8c563          	blt	a7,s11,1f9e <_vfprintf_r+0xdec>
    1f78:	01b6a223          	sw	s11,4(a3)
    1f7c:	9dba                	add	s11,s11,a4
    1f7e:	d56e                	sw	s11,168(sp)
    1f80:	d33e                	sw	a5,164(sp)
    1f82:	471d                	li	a4,7
    1f84:	f0f75fe3          	bge	a4,a5,1ea2 <_vfprintf_r+0xcf0>
    1f88:	45a2                	lw	a1,8(sp)
    1f8a:	4532                	lw	a0,12(sp)
    1f8c:	1110                	addi	a2,sp,160
    1f8e:	ccc2                	sw	a6,88(sp)
    1f90:	27ad                	jal	26fa <__sprint_r>
    1f92:	68051f63          	bnez	a0,2630 <_vfprintf_r+0x147e>
    1f96:	4866                	lw	a6,88(sp)
    1f98:	0ac10d13          	addi	s10,sp,172
    1f9c:	b719                	j	1ea2 <_vfprintf_r+0xcf0>
    1f9e:	0741                	addi	a4,a4,16
    1fa0:	0116a223          	sw	a7,4(a3)
    1fa4:	d53a                	sw	a4,168(sp)
    1fa6:	d33e                	sw	a5,164(sp)
    1fa8:	00fe5e63          	bge	t3,a5,1fc4 <_vfprintf_r+0xe12>
    1fac:	45a2                	lw	a1,8(sp)
    1fae:	4532                	lw	a0,12(sp)
    1fb0:	1110                	addi	a2,sp,160
    1fb2:	ccc2                	sw	a6,88(sp)
    1fb4:	2799                	jal	26fa <__sprint_r>
    1fb6:	66051d63          	bnez	a0,2630 <_vfprintf_r+0x147e>
    1fba:	4866                	lw	a6,88(sp)
    1fbc:	0ac10d13          	addi	s10,sp,172
    1fc0:	4e1d                	li	t3,7
    1fc2:	48c1                	li	a7,16
    1fc4:	1dc1                	addi	s11,s11,-16
    1fc6:	86ea                	mv	a3,s10
    1fc8:	bf79                	j	1f66 <_vfprintf_r+0xdb4>
    1fca:	0741                	addi	a4,a4,16
    1fcc:	01bd2223          	sw	s11,4(s10)
    1fd0:	d53a                	sw	a4,168(sp)
    1fd2:	d33e                	sw	a5,164(sp)
    1fd4:	00f85a63          	bge	a6,a5,1fe8 <_vfprintf_r+0xe36>
    1fd8:	45a2                	lw	a1,8(sp)
    1fda:	4532                	lw	a0,12(sp)
    1fdc:	1110                	addi	a2,sp,160
    1fde:	2f31                	jal	26fa <__sprint_r>
    1fe0:	64051863          	bnez	a0,2630 <_vfprintf_r+0x147e>
    1fe4:	1174                	addi	a3,sp,172
    1fe6:	481d                	li	a6,7
    1fe8:	1ac1                	addi	s5,s5,-16
    1fea:	8d36                	mv	s10,a3
    1fec:	b5c9                	j	1eae <_vfprintf_r+0xcfc>
    1fee:	06500793          	li	a5,101
    1ff2:	4d47de63          	bge	a5,s4,24ce <_vfprintf_r+0x131c>
    1ff6:	5502                	lw	a0,32(sp)
    1ff8:	55a2                	lw	a1,40(sp)
    1ffa:	4601                	li	a2,0
    1ffc:	4681                	li	a3,0
    1ffe:	019040ef          	jal	6816 <__eqdf2>
    2002:	14051563          	bnez	a0,214c <_vfprintf_r+0xf9a>
    2006:	67a1                	lui	a5,0x8
    2008:	d3078793          	addi	a5,a5,-720 # 7d30 <crc_32_tab+0x4d8>
    200c:	00fd2023          	sw	a5,0(s10)
    2010:	4785                	li	a5,1
    2012:	00fd2223          	sw	a5,4(s10)
    2016:	9abe                	add	s5,s5,a5
    2018:	579a                	lw	a5,164(sp)
    201a:	d556                	sw	s5,168(sp)
    201c:	471d                	li	a4,7
    201e:	0785                	addi	a5,a5,1
    2020:	d33e                	sw	a5,164(sp)
    2022:	0d21                	addi	s10,s10,8
    2024:	00f75a63          	bge	a4,a5,2038 <_vfprintf_r+0xe86>
    2028:	45a2                	lw	a1,8(sp)
    202a:	4532                	lw	a0,12(sp)
    202c:	1110                	addi	a2,sp,160
    202e:	25f1                	jal	26fa <__sprint_r>
    2030:	60051063          	bnez	a0,2630 <_vfprintf_r+0x147e>
    2034:	0ac10d13          	addi	s10,sp,172
    2038:	479a                	lw	a5,132(sp)
    203a:	0167c563          	blt	a5,s6,2044 <_vfprintf_r+0xe92>
    203e:	00147793          	andi	a5,s0,1
    2042:	c7ad                	beqz	a5,20ac <_vfprintf_r+0xefa>
    2044:	57f2                	lw	a5,60(sp)
    2046:	5712                	lw	a4,36(sp)
    2048:	0d21                	addi	s10,s10,8
    204a:	fefd2c23          	sw	a5,-8(s10)
    204e:	5792                	lw	a5,36(sp)
    2050:	fefd2e23          	sw	a5,-4(s10)
    2054:	57aa                	lw	a5,168(sp)
    2056:	97ba                	add	a5,a5,a4
    2058:	d53e                	sw	a5,168(sp)
    205a:	579a                	lw	a5,164(sp)
    205c:	471d                	li	a4,7
    205e:	0785                	addi	a5,a5,1
    2060:	d33e                	sw	a5,164(sp)
    2062:	00f75a63          	bge	a4,a5,2076 <_vfprintf_r+0xec4>
    2066:	45a2                	lw	a1,8(sp)
    2068:	4532                	lw	a0,12(sp)
    206a:	1110                	addi	a2,sp,160
    206c:	2579                	jal	26fa <__sprint_r>
    206e:	5c051163          	bnez	a0,2630 <_vfprintf_r+0x147e>
    2072:	0ac10d13          	addi	s10,sp,172
    2076:	fffb0493          	addi	s1,s6,-1
    207a:	02905963          	blez	s1,20ac <_vfprintf_r+0xefa>
    207e:	6a21                	lui	s4,0x8
    2080:	4ac1                	li	s5,16
    2082:	014a0a13          	addi	s4,s4,20 # 8014 <zeroes.0>
    2086:	4b9d                	li	s7,7
    2088:	579a                	lw	a5,164(sp)
    208a:	014d2023          	sw	s4,0(s10)
    208e:	572a                	lw	a4,168(sp)
    2090:	0785                	addi	a5,a5,1
    2092:	008d0693          	addi	a3,s10,8
    2096:	089aca63          	blt	s5,s1,212a <_vfprintf_r+0xf78>
    209a:	009d2223          	sw	s1,4(s10)
    209e:	94ba                	add	s1,s1,a4
    20a0:	d526                	sw	s1,168(sp)
    20a2:	d33e                	sw	a5,164(sp)
    20a4:	471d                	li	a4,7
    20a6:	8d36                	mv	s10,a3
    20a8:	e6f741e3          	blt	a4,a5,1f0a <_vfprintf_r+0xd58>
    20ac:	8811                	andi	s0,s0,4
    20ae:	c029                	beqz	s0,20f0 <_vfprintf_r+0xf3e>
    20b0:	57b2                	lw	a5,44(sp)
    20b2:	5742                	lw	a4,48(sp)
    20b4:	40e78433          	sub	s0,a5,a4
    20b8:	02805c63          	blez	s0,20f0 <_vfprintf_r+0xf3e>
    20bc:	64a1                	lui	s1,0x8
    20be:	4a41                	li	s4,16
    20c0:	00448493          	addi	s1,s1,4 # 8004 <blanks.1>
    20c4:	4a9d                	li	s5,7
    20c6:	579a                	lw	a5,164(sp)
    20c8:	009d2023          	sw	s1,0(s10)
    20cc:	572a                	lw	a4,168(sp)
    20ce:	0785                	addi	a5,a5,1
    20d0:	528a4563          	blt	s4,s0,25fa <_vfprintf_r+0x1448>
    20d4:	008d2223          	sw	s0,4(s10)
    20d8:	943a                	add	s0,s0,a4
    20da:	d522                	sw	s0,168(sp)
    20dc:	d33e                	sw	a5,164(sp)
    20de:	471d                	li	a4,7
    20e0:	00f75863          	bge	a4,a5,20f0 <_vfprintf_r+0xf3e>
    20e4:	45a2                	lw	a1,8(sp)
    20e6:	4532                	lw	a0,12(sp)
    20e8:	1110                	addi	a2,sp,160
    20ea:	2d01                	jal	26fa <__sprint_r>
    20ec:	54051263          	bnez	a0,2630 <_vfprintf_r+0x147e>
    20f0:	57b2                	lw	a5,44(sp)
    20f2:	5742                	lw	a4,48(sp)
    20f4:	00e7d363          	bge	a5,a4,20fa <_vfprintf_r+0xf48>
    20f8:	87ba                	mv	a5,a4
    20fa:	4772                	lw	a4,28(sp)
    20fc:	97ba                	add	a5,a5,a4
    20fe:	ce3e                	sw	a5,28(sp)
    2100:	57aa                	lw	a5,168(sp)
    2102:	c799                	beqz	a5,2110 <_vfprintf_r+0xf5e>
    2104:	45a2                	lw	a1,8(sp)
    2106:	4532                	lw	a0,12(sp)
    2108:	1110                	addi	a2,sp,160
    210a:	2bc5                	jal	26fa <__sprint_r>
    210c:	52051263          	bnez	a0,2630 <_vfprintf_r+0x147e>
    2110:	47c2                	lw	a5,16(sp)
    2112:	d302                	sw	zero,164(sp)
    2114:	c789                	beqz	a5,211e <_vfprintf_r+0xf6c>
    2116:	4532                	lw	a0,12(sp)
    2118:	85be                	mv	a1,a5
    211a:	a6ffe0ef          	jal	b88 <_free_r>
    211e:	4be2                	lw	s7,24(sp)
    2120:	0ac10a93          	addi	s5,sp,172
    2124:	44d2                	lw	s1,20(sp)
    2126:	9baff06f          	j	12e0 <_vfprintf_r+0x12e>
    212a:	0741                	addi	a4,a4,16
    212c:	015d2223          	sw	s5,4(s10)
    2130:	d53a                	sw	a4,168(sp)
    2132:	d33e                	sw	a5,164(sp)
    2134:	00fbd963          	bge	s7,a5,2146 <_vfprintf_r+0xf94>
    2138:	45a2                	lw	a1,8(sp)
    213a:	4532                	lw	a0,12(sp)
    213c:	1110                	addi	a2,sp,160
    213e:	2b75                	jal	26fa <__sprint_r>
    2140:	4e051863          	bnez	a0,2630 <_vfprintf_r+0x147e>
    2144:	1174                	addi	a3,sp,172
    2146:	14c1                	addi	s1,s1,-16
    2148:	8d36                	mv	s10,a3
    214a:	bf3d                	j	2088 <_vfprintf_r+0xed6>
    214c:	479a                	lw	a5,132(sp)
    214e:	0ef04863          	bgtz	a5,223e <_vfprintf_r+0x108c>
    2152:	67a1                	lui	a5,0x8
    2154:	d3078793          	addi	a5,a5,-720 # 7d30 <crc_32_tab+0x4d8>
    2158:	00fd2023          	sw	a5,0(s10)
    215c:	4785                	li	a5,1
    215e:	00fd2223          	sw	a5,4(s10)
    2162:	9abe                	add	s5,s5,a5
    2164:	579a                	lw	a5,164(sp)
    2166:	d556                	sw	s5,168(sp)
    2168:	471d                	li	a4,7
    216a:	0785                	addi	a5,a5,1
    216c:	d33e                	sw	a5,164(sp)
    216e:	0d21                	addi	s10,s10,8
    2170:	00f75a63          	bge	a4,a5,2184 <_vfprintf_r+0xfd2>
    2174:	45a2                	lw	a1,8(sp)
    2176:	4532                	lw	a0,12(sp)
    2178:	1110                	addi	a2,sp,160
    217a:	2341                	jal	26fa <__sprint_r>
    217c:	4a051a63          	bnez	a0,2630 <_vfprintf_r+0x147e>
    2180:	0ac10d13          	addi	s10,sp,172
    2184:	479a                	lw	a5,132(sp)
    2186:	00147713          	andi	a4,s0,1
    218a:	00fb67b3          	or	a5,s6,a5
    218e:	8fd9                	or	a5,a5,a4
    2190:	f0078ee3          	beqz	a5,20ac <_vfprintf_r+0xefa>
    2194:	5772                	lw	a4,60(sp)
    2196:	57aa                	lw	a5,168(sp)
    2198:	0d21                	addi	s10,s10,8
    219a:	feed2c23          	sw	a4,-8(s10)
    219e:	5712                	lw	a4,36(sp)
    21a0:	97ba                	add	a5,a5,a4
    21a2:	d53e                	sw	a5,168(sp)
    21a4:	579a                	lw	a5,164(sp)
    21a6:	feed2e23          	sw	a4,-4(s10)
    21aa:	471d                	li	a4,7
    21ac:	0785                	addi	a5,a5,1
    21ae:	d33e                	sw	a5,164(sp)
    21b0:	00f75a63          	bge	a4,a5,21c4 <_vfprintf_r+0x1012>
    21b4:	45a2                	lw	a1,8(sp)
    21b6:	4532                	lw	a0,12(sp)
    21b8:	1110                	addi	a2,sp,160
    21ba:	2381                	jal	26fa <__sprint_r>
    21bc:	46051a63          	bnez	a0,2630 <_vfprintf_r+0x147e>
    21c0:	0ac10d13          	addi	s10,sp,172
    21c4:	4a1a                	lw	s4,132(sp)
    21c6:	040a5263          	bgez	s4,220a <_vfprintf_r+0x1058>
    21ca:	6aa1                	lui	s5,0x8
    21cc:	41400a33          	neg	s4,s4
    21d0:	876a                	mv	a4,s10
    21d2:	4bc1                	li	s7,16
    21d4:	014a8a93          	addi	s5,s5,20 # 8014 <zeroes.0>
    21d8:	4c1d                	li	s8,7
    21da:	579a                	lw	a5,164(sp)
    21dc:	01572023          	sw	s5,0(a4)
    21e0:	56aa                	lw	a3,168(sp)
    21e2:	0785                	addi	a5,a5,1
    21e4:	0d21                	addi	s10,s10,8
    21e6:	034bca63          	blt	s7,s4,221a <_vfprintf_r+0x1068>
    21ea:	01472223          	sw	s4,4(a4)
    21ee:	9a36                	add	s4,s4,a3
    21f0:	d552                	sw	s4,168(sp)
    21f2:	d33e                	sw	a5,164(sp)
    21f4:	471d                	li	a4,7
    21f6:	00f75a63          	bge	a4,a5,220a <_vfprintf_r+0x1058>
    21fa:	45a2                	lw	a1,8(sp)
    21fc:	4532                	lw	a0,12(sp)
    21fe:	1110                	addi	a2,sp,160
    2200:	29ed                	jal	26fa <__sprint_r>
    2202:	42051763          	bnez	a0,2630 <_vfprintf_r+0x147e>
    2206:	0ac10d13          	addi	s10,sp,172
    220a:	57aa                	lw	a5,168(sp)
    220c:	009d2023          	sw	s1,0(s10)
    2210:	016d2223          	sw	s6,4(s10)
    2214:	97da                	add	a5,a5,s6
    2216:	d53e                	sw	a5,168(sp)
    2218:	b1d5                	j	1efc <_vfprintf_r+0xd4a>
    221a:	06c1                	addi	a3,a3,16
    221c:	01772223          	sw	s7,4(a4)
    2220:	d536                	sw	a3,168(sp)
    2222:	d33e                	sw	a5,164(sp)
    2224:	00fc5a63          	bge	s8,a5,2238 <_vfprintf_r+0x1086>
    2228:	45a2                	lw	a1,8(sp)
    222a:	4532                	lw	a0,12(sp)
    222c:	1110                	addi	a2,sp,160
    222e:	21f1                	jal	26fa <__sprint_r>
    2230:	40051063          	bnez	a0,2630 <_vfprintf_r+0x147e>
    2234:	0ac10d13          	addi	s10,sp,172
    2238:	1a41                	addi	s4,s4,-16
    223a:	876a                	mv	a4,s10
    223c:	bf79                	j	21da <_vfprintf_r+0x1028>
    223e:	8a5e                	mv	s4,s7
    2240:	017b5363          	bge	s6,s7,2246 <_vfprintf_r+0x1094>
    2244:	8a5a                	mv	s4,s6
    2246:	03405763          	blez	s4,2274 <_vfprintf_r+0x10c2>
    224a:	579a                	lw	a5,164(sp)
    224c:	9ad2                	add	s5,s5,s4
    224e:	009d2023          	sw	s1,0(s10)
    2252:	0785                	addi	a5,a5,1
    2254:	014d2223          	sw	s4,4(s10)
    2258:	d556                	sw	s5,168(sp)
    225a:	d33e                	sw	a5,164(sp)
    225c:	471d                	li	a4,7
    225e:	0d21                	addi	s10,s10,8
    2260:	00f75a63          	bge	a4,a5,2274 <_vfprintf_r+0x10c2>
    2264:	45a2                	lw	a1,8(sp)
    2266:	4532                	lw	a0,12(sp)
    2268:	1110                	addi	a2,sp,160
    226a:	2941                	jal	26fa <__sprint_r>
    226c:	3c051263          	bnez	a0,2630 <_vfprintf_r+0x147e>
    2270:	0ac10d13          	addi	s10,sp,172
    2274:	fffa4793          	not	a5,s4
    2278:	87fd                	srai	a5,a5,0x1f
    227a:	00fa7a33          	and	s4,s4,a5
    227e:	414b8a33          	sub	s4,s7,s4
    2282:	05405163          	blez	s4,22c4 <_vfprintf_r+0x1112>
    2286:	6aa1                	lui	s5,0x8
    2288:	4dc1                	li	s11,16
    228a:	014a8a93          	addi	s5,s5,20 # 8014 <zeroes.0>
    228e:	491d                	li	s2,7
    2290:	579a                	lw	a5,164(sp)
    2292:	015d2023          	sw	s5,0(s10)
    2296:	572a                	lw	a4,168(sp)
    2298:	0785                	addi	a5,a5,1
    229a:	008d0693          	addi	a3,s10,8
    229e:	114dcf63          	blt	s11,s4,23bc <_vfprintf_r+0x120a>
    22a2:	014d2223          	sw	s4,4(s10)
    22a6:	9a3a                	add	s4,s4,a4
    22a8:	d552                	sw	s4,168(sp)
    22aa:	d33e                	sw	a5,164(sp)
    22ac:	471d                	li	a4,7
    22ae:	8d36                	mv	s10,a3
    22b0:	00f75a63          	bge	a4,a5,22c4 <_vfprintf_r+0x1112>
    22b4:	45a2                	lw	a1,8(sp)
    22b6:	4532                	lw	a0,12(sp)
    22b8:	1110                	addi	a2,sp,160
    22ba:	2181                	jal	26fa <__sprint_r>
    22bc:	36051a63          	bnez	a0,2630 <_vfprintf_r+0x147e>
    22c0:	0ac10d13          	addi	s10,sp,172
    22c4:	40047793          	andi	a5,s0,1024
    22c8:	9ba6                	add	s7,s7,s1
    22ca:	cf91                	beqz	a5,22e6 <_vfprintf_r+0x1134>
    22cc:	6aa1                	lui	s5,0x8
    22ce:	4a1d                	li	s4,7
    22d0:	014a8a93          	addi	s5,s5,20 # 8014 <zeroes.0>
    22d4:	100c1563          	bnez	s8,23de <_vfprintf_r+0x122c>
    22d8:	100c9563          	bnez	s9,23e2 <_vfprintf_r+0x1230>
    22dc:	016487b3          	add	a5,s1,s6
    22e0:	0177f363          	bgeu	a5,s7,22e6 <_vfprintf_r+0x1134>
    22e4:	8bbe                	mv	s7,a5
    22e6:	479a                	lw	a5,132(sp)
    22e8:	0167c563          	blt	a5,s6,22f2 <_vfprintf_r+0x1140>
    22ec:	00147793          	andi	a5,s0,1
    22f0:	cb95                	beqz	a5,2324 <_vfprintf_r+0x1172>
    22f2:	57f2                	lw	a5,60(sp)
    22f4:	5712                	lw	a4,36(sp)
    22f6:	0d21                	addi	s10,s10,8
    22f8:	fefd2c23          	sw	a5,-8(s10)
    22fc:	5792                	lw	a5,36(sp)
    22fe:	fefd2e23          	sw	a5,-4(s10)
    2302:	57aa                	lw	a5,168(sp)
    2304:	97ba                	add	a5,a5,a4
    2306:	d53e                	sw	a5,168(sp)
    2308:	579a                	lw	a5,164(sp)
    230a:	471d                	li	a4,7
    230c:	0785                	addi	a5,a5,1
    230e:	d33e                	sw	a5,164(sp)
    2310:	00f75a63          	bge	a4,a5,2324 <_vfprintf_r+0x1172>
    2314:	45a2                	lw	a1,8(sp)
    2316:	4532                	lw	a0,12(sp)
    2318:	1110                	addi	a2,sp,160
    231a:	26c5                	jal	26fa <__sprint_r>
    231c:	30051a63          	bnez	a0,2630 <_vfprintf_r+0x147e>
    2320:	0ac10d13          	addi	s10,sp,172
    2324:	4a1a                	lw	s4,132(sp)
    2326:	94da                	add	s1,s1,s6
    2328:	417484b3          	sub	s1,s1,s7
    232c:	414b0a33          	sub	s4,s6,s4
    2330:	0144d363          	bge	s1,s4,2336 <_vfprintf_r+0x1184>
    2334:	8a26                	mv	s4,s1
    2336:	03405863          	blez	s4,2366 <_vfprintf_r+0x11b4>
    233a:	57aa                	lw	a5,168(sp)
    233c:	017d2023          	sw	s7,0(s10)
    2340:	014d2223          	sw	s4,4(s10)
    2344:	97d2                	add	a5,a5,s4
    2346:	d53e                	sw	a5,168(sp)
    2348:	579a                	lw	a5,164(sp)
    234a:	471d                	li	a4,7
    234c:	0d21                	addi	s10,s10,8
    234e:	0785                	addi	a5,a5,1
    2350:	d33e                	sw	a5,164(sp)
    2352:	00f75a63          	bge	a4,a5,2366 <_vfprintf_r+0x11b4>
    2356:	45a2                	lw	a1,8(sp)
    2358:	4532                	lw	a0,12(sp)
    235a:	1110                	addi	a2,sp,160
    235c:	2e79                	jal	26fa <__sprint_r>
    235e:	2c051963          	bnez	a0,2630 <_vfprintf_r+0x147e>
    2362:	0ac10d13          	addi	s10,sp,172
    2366:	449a                	lw	s1,132(sp)
    2368:	fffa4793          	not	a5,s4
    236c:	87fd                	srai	a5,a5,0x1f
    236e:	409b04b3          	sub	s1,s6,s1
    2372:	00fa7a33          	and	s4,s4,a5
    2376:	414484b3          	sub	s1,s1,s4
    237a:	d29059e3          	blez	s1,20ac <_vfprintf_r+0xefa>
    237e:	6a21                	lui	s4,0x8
    2380:	4ac1                	li	s5,16
    2382:	014a0a13          	addi	s4,s4,20 # 8014 <zeroes.0>
    2386:	4b9d                	li	s7,7
    2388:	579a                	lw	a5,164(sp)
    238a:	014d2023          	sw	s4,0(s10)
    238e:	572a                	lw	a4,168(sp)
    2390:	0785                	addi	a5,a5,1
    2392:	008d0693          	addi	a3,s10,8
    2396:	d09ad2e3          	bge	s5,s1,209a <_vfprintf_r+0xee8>
    239a:	0741                	addi	a4,a4,16
    239c:	015d2223          	sw	s5,4(s10)
    23a0:	d53a                	sw	a4,168(sp)
    23a2:	d33e                	sw	a5,164(sp)
    23a4:	00fbd963          	bge	s7,a5,23b6 <_vfprintf_r+0x1204>
    23a8:	45a2                	lw	a1,8(sp)
    23aa:	4532                	lw	a0,12(sp)
    23ac:	1110                	addi	a2,sp,160
    23ae:	26b1                	jal	26fa <__sprint_r>
    23b0:	28051063          	bnez	a0,2630 <_vfprintf_r+0x147e>
    23b4:	1174                	addi	a3,sp,172
    23b6:	14c1                	addi	s1,s1,-16
    23b8:	8d36                	mv	s10,a3
    23ba:	b7f9                	j	2388 <_vfprintf_r+0x11d6>
    23bc:	0741                	addi	a4,a4,16
    23be:	01bd2223          	sw	s11,4(s10)
    23c2:	d53a                	sw	a4,168(sp)
    23c4:	d33e                	sw	a5,164(sp)
    23c6:	00f95963          	bge	s2,a5,23d8 <_vfprintf_r+0x1226>
    23ca:	45a2                	lw	a1,8(sp)
    23cc:	4532                	lw	a0,12(sp)
    23ce:	1110                	addi	a2,sp,160
    23d0:	262d                	jal	26fa <__sprint_r>
    23d2:	24051f63          	bnez	a0,2630 <_vfprintf_r+0x147e>
    23d6:	1174                	addi	a3,sp,172
    23d8:	1a41                	addi	s4,s4,-16
    23da:	8d36                	mv	s10,a3
    23dc:	bd55                	j	2290 <_vfprintf_r+0x10de>
    23de:	080c8b63          	beqz	s9,2474 <_vfprintf_r+0x12c2>
    23e2:	1cfd                	addi	s9,s9,-1
    23e4:	47a6                	lw	a5,72(sp)
    23e6:	5762                	lw	a4,56(sp)
    23e8:	0d21                	addi	s10,s10,8
    23ea:	fefd2c23          	sw	a5,-8(s10)
    23ee:	57e2                	lw	a5,56(sp)
    23f0:	fefd2e23          	sw	a5,-4(s10)
    23f4:	57aa                	lw	a5,168(sp)
    23f6:	97ba                	add	a5,a5,a4
    23f8:	d53e                	sw	a5,168(sp)
    23fa:	579a                	lw	a5,164(sp)
    23fc:	0785                	addi	a5,a5,1
    23fe:	d33e                	sw	a5,164(sp)
    2400:	00fa5a63          	bge	s4,a5,2414 <_vfprintf_r+0x1262>
    2404:	45a2                	lw	a1,8(sp)
    2406:	4532                	lw	a0,12(sp)
    2408:	1110                	addi	a2,sp,160
    240a:	2cc5                	jal	26fa <__sprint_r>
    240c:	22051263          	bnez	a0,2630 <_vfprintf_r+0x147e>
    2410:	0ac10d13          	addi	s10,sp,172
    2414:	0009c783          	lbu	a5,0(s3)
    2418:	01648db3          	add	s11,s1,s6
    241c:	417d8db3          	sub	s11,s11,s7
    2420:	01b7d363          	bge	a5,s11,2426 <_vfprintf_r+0x1274>
    2424:	8dbe                	mv	s11,a5
    2426:	03b05763          	blez	s11,2454 <_vfprintf_r+0x12a2>
    242a:	57aa                	lw	a5,168(sp)
    242c:	017d2023          	sw	s7,0(s10)
    2430:	01bd2223          	sw	s11,4(s10)
    2434:	97ee                	add	a5,a5,s11
    2436:	d53e                	sw	a5,168(sp)
    2438:	579a                	lw	a5,164(sp)
    243a:	0d21                	addi	s10,s10,8
    243c:	0785                	addi	a5,a5,1
    243e:	d33e                	sw	a5,164(sp)
    2440:	00fa5a63          	bge	s4,a5,2454 <_vfprintf_r+0x12a2>
    2444:	45a2                	lw	a1,8(sp)
    2446:	4532                	lw	a0,12(sp)
    2448:	1110                	addi	a2,sp,160
    244a:	2c45                	jal	26fa <__sprint_r>
    244c:	1e051263          	bnez	a0,2630 <_vfprintf_r+0x147e>
    2450:	0ac10d13          	addi	s10,sp,172
    2454:	fffdc713          	not	a4,s11
    2458:	0009c783          	lbu	a5,0(s3)
    245c:	877d                	srai	a4,a4,0x1f
    245e:	00edfdb3          	and	s11,s11,a4
    2462:	41b78db3          	sub	s11,a5,s11
    2466:	4941                	li	s2,16
    2468:	03b04963          	bgtz	s11,249a <_vfprintf_r+0x12e8>
    246c:	0009c783          	lbu	a5,0(s3)
    2470:	9bbe                	add	s7,s7,a5
    2472:	b58d                	j	22d4 <_vfprintf_r+0x1122>
    2474:	19fd                	addi	s3,s3,-1
    2476:	1c7d                	addi	s8,s8,-1
    2478:	b7b5                	j	23e4 <_vfprintf_r+0x1232>
    247a:	0741                	addi	a4,a4,16
    247c:	012d2223          	sw	s2,4(s10)
    2480:	d53a                	sw	a4,168(sp)
    2482:	d33e                	sw	a5,164(sp)
    2484:	00fa5963          	bge	s4,a5,2496 <_vfprintf_r+0x12e4>
    2488:	45a2                	lw	a1,8(sp)
    248a:	4532                	lw	a0,12(sp)
    248c:	1110                	addi	a2,sp,160
    248e:	24b5                	jal	26fa <__sprint_r>
    2490:	1a051063          	bnez	a0,2630 <_vfprintf_r+0x147e>
    2494:	1174                	addi	a3,sp,172
    2496:	1dc1                	addi	s11,s11,-16
    2498:	8d36                	mv	s10,a3
    249a:	579a                	lw	a5,164(sp)
    249c:	015d2023          	sw	s5,0(s10)
    24a0:	572a                	lw	a4,168(sp)
    24a2:	0785                	addi	a5,a5,1
    24a4:	008d0693          	addi	a3,s10,8
    24a8:	fdb949e3          	blt	s2,s11,247a <_vfprintf_r+0x12c8>
    24ac:	01bd2223          	sw	s11,4(s10)
    24b0:	9dba                	add	s11,s11,a4
    24b2:	d56e                	sw	s11,168(sp)
    24b4:	d33e                	sw	a5,164(sp)
    24b6:	8d36                	mv	s10,a3
    24b8:	fafa5ae3          	bge	s4,a5,246c <_vfprintf_r+0x12ba>
    24bc:	45a2                	lw	a1,8(sp)
    24be:	4532                	lw	a0,12(sp)
    24c0:	1110                	addi	a2,sp,160
    24c2:	2c25                	jal	26fa <__sprint_r>
    24c4:	16051663          	bnez	a0,2630 <_vfprintf_r+0x147e>
    24c8:	0ac10d13          	addi	s10,sp,172
    24cc:	b745                	j	246c <_vfprintf_r+0x12ba>
    24ce:	579a                	lw	a5,164(sp)
    24d0:	0a85                	addi	s5,s5,1
    24d2:	4705                	li	a4,1
    24d4:	0785                	addi	a5,a5,1
    24d6:	009d2023          	sw	s1,0(s10)
    24da:	00ed2223          	sw	a4,4(s10)
    24de:	d556                	sw	s5,168(sp)
    24e0:	d33e                	sw	a5,164(sp)
    24e2:	008d0b93          	addi	s7,s10,8
    24e6:	01674663          	blt	a4,s6,24f2 <_vfprintf_r+0x1340>
    24ea:	00e476b3          	and	a3,s0,a4
    24ee:	10068463          	beqz	a3,25f6 <_vfprintf_r+0x1444>
    24f2:	471d                	li	a4,7
    24f4:	00f75a63          	bge	a4,a5,2508 <_vfprintf_r+0x1356>
    24f8:	45a2                	lw	a1,8(sp)
    24fa:	4532                	lw	a0,12(sp)
    24fc:	1110                	addi	a2,sp,160
    24fe:	2af5                	jal	26fa <__sprint_r>
    2500:	12051863          	bnez	a0,2630 <_vfprintf_r+0x147e>
    2504:	0ac10b93          	addi	s7,sp,172
    2508:	57f2                	lw	a5,60(sp)
    250a:	5712                	lw	a4,36(sp)
    250c:	0ba1                	addi	s7,s7,8
    250e:	fefbac23          	sw	a5,-8(s7)
    2512:	5792                	lw	a5,36(sp)
    2514:	fefbae23          	sw	a5,-4(s7)
    2518:	57aa                	lw	a5,168(sp)
    251a:	97ba                	add	a5,a5,a4
    251c:	d53e                	sw	a5,168(sp)
    251e:	579a                	lw	a5,164(sp)
    2520:	471d                	li	a4,7
    2522:	0785                	addi	a5,a5,1
    2524:	d33e                	sw	a5,164(sp)
    2526:	00f75a63          	bge	a4,a5,253a <_vfprintf_r+0x1388>
    252a:	45a2                	lw	a1,8(sp)
    252c:	4532                	lw	a0,12(sp)
    252e:	1110                	addi	a2,sp,160
    2530:	22e9                	jal	26fa <__sprint_r>
    2532:	0e051f63          	bnez	a0,2630 <_vfprintf_r+0x147e>
    2536:	0ac10b93          	addi	s7,sp,172
    253a:	5502                	lw	a0,32(sp)
    253c:	55a2                	lw	a1,40(sp)
    253e:	4601                	li	a2,0
    2540:	4681                	li	a3,0
    2542:	fffb0a13          	addi	s4,s6,-1
    2546:	2d0040ef          	jal	6816 <__eqdf2>
    254a:	c939                	beqz	a0,25a0 <_vfprintf_r+0x13ee>
    254c:	57aa                	lw	a5,168(sp)
    254e:	571a                	lw	a4,164(sp)
    2550:	0485                	addi	s1,s1,1
    2552:	17fd                	addi	a5,a5,-1
    2554:	97da                	add	a5,a5,s6
    2556:	0705                	addi	a4,a4,1
    2558:	009ba023          	sw	s1,0(s7)
    255c:	014ba223          	sw	s4,4(s7)
    2560:	d53e                	sw	a5,168(sp)
    2562:	d33a                	sw	a4,164(sp)
    2564:	479d                	li	a5,7
    2566:	0ba1                	addi	s7,s7,8
    2568:	00e7d963          	bge	a5,a4,257a <_vfprintf_r+0x13c8>
    256c:	45a2                	lw	a1,8(sp)
    256e:	4532                	lw	a0,12(sp)
    2570:	1110                	addi	a2,sp,160
    2572:	2261                	jal	26fa <__sprint_r>
    2574:	ed55                	bnez	a0,2630 <_vfprintf_r+0x147e>
    2576:	0ac10b93          	addi	s7,sp,172
    257a:	091c                	addi	a5,sp,144
    257c:	00fba023          	sw	a5,0(s7)
    2580:	4786                	lw	a5,64(sp)
    2582:	4706                	lw	a4,64(sp)
    2584:	008b8d13          	addi	s10,s7,8
    2588:	00fba223          	sw	a5,4(s7)
    258c:	57aa                	lw	a5,168(sp)
    258e:	97ba                	add	a5,a5,a4
    2590:	d53e                	sw	a5,168(sp)
    2592:	579a                	lw	a5,164(sp)
    2594:	471d                	li	a4,7
    2596:	0785                	addi	a5,a5,1
    2598:	d33e                	sw	a5,164(sp)
    259a:	b0f759e3          	bge	a4,a5,20ac <_vfprintf_r+0xefa>
    259e:	b2b5                	j	1f0a <_vfprintf_r+0xd58>
    25a0:	4785                	li	a5,1
    25a2:	fd67dce3          	bge	a5,s6,257a <_vfprintf_r+0x13c8>
    25a6:	64a1                	lui	s1,0x8
    25a8:	4ac1                	li	s5,16
    25aa:	01448493          	addi	s1,s1,20 # 8014 <zeroes.0>
    25ae:	4c1d                	li	s8,7
    25b0:	579a                	lw	a5,164(sp)
    25b2:	009ba023          	sw	s1,0(s7)
    25b6:	572a                	lw	a4,168(sp)
    25b8:	0785                	addi	a5,a5,1
    25ba:	008b8693          	addi	a3,s7,8
    25be:	014acc63          	blt	s5,s4,25d6 <_vfprintf_r+0x1424>
    25c2:	014ba223          	sw	s4,4(s7)
    25c6:	9a3a                	add	s4,s4,a4
    25c8:	d552                	sw	s4,168(sp)
    25ca:	d33e                	sw	a5,164(sp)
    25cc:	471d                	li	a4,7
    25ce:	8bb6                	mv	s7,a3
    25d0:	faf755e3          	bge	a4,a5,257a <_vfprintf_r+0x13c8>
    25d4:	bf61                	j	256c <_vfprintf_r+0x13ba>
    25d6:	0741                	addi	a4,a4,16
    25d8:	015ba223          	sw	s5,4(s7)
    25dc:	d53a                	sw	a4,168(sp)
    25de:	d33e                	sw	a5,164(sp)
    25e0:	00fc5863          	bge	s8,a5,25f0 <_vfprintf_r+0x143e>
    25e4:	45a2                	lw	a1,8(sp)
    25e6:	4532                	lw	a0,12(sp)
    25e8:	1110                	addi	a2,sp,160
    25ea:	2a01                	jal	26fa <__sprint_r>
    25ec:	e131                	bnez	a0,2630 <_vfprintf_r+0x147e>
    25ee:	1174                	addi	a3,sp,172
    25f0:	1a41                	addi	s4,s4,-16
    25f2:	8bb6                	mv	s7,a3
    25f4:	bf75                	j	25b0 <_vfprintf_r+0x13fe>
    25f6:	471d                	li	a4,7
    25f8:	bfe1                	j	25d0 <_vfprintf_r+0x141e>
    25fa:	0741                	addi	a4,a4,16
    25fc:	014d2223          	sw	s4,4(s10)
    2600:	d53a                	sw	a4,168(sp)
    2602:	d33e                	sw	a5,164(sp)
    2604:	0d21                	addi	s10,s10,8
    2606:	00fad963          	bge	s5,a5,2618 <_vfprintf_r+0x1466>
    260a:	45a2                	lw	a1,8(sp)
    260c:	4532                	lw	a0,12(sp)
    260e:	1110                	addi	a2,sp,160
    2610:	20ed                	jal	26fa <__sprint_r>
    2612:	ed19                	bnez	a0,2630 <_vfprintf_r+0x147e>
    2614:	0ac10d13          	addi	s10,sp,172
    2618:	1441                	addi	s0,s0,-16
    261a:	b475                	j	20c6 <_vfprintf_r+0xf14>
    261c:	57aa                	lw	a5,168(sp)
    261e:	e399                	bnez	a5,2624 <_vfprintf_r+0x1472>
    2620:	87eff06f          	j	169e <_vfprintf_r+0x4ec>
    2624:	45a2                	lw	a1,8(sp)
    2626:	4532                	lw	a0,12(sp)
    2628:	1110                	addi	a2,sp,160
    262a:	28c1                	jal	26fa <__sprint_r>
    262c:	872ff06f          	j	169e <_vfprintf_r+0x4ec>
    2630:	47c2                	lw	a5,16(sp)
    2632:	e399                	bnez	a5,2638 <_vfprintf_r+0x1486>
    2634:	86aff06f          	j	169e <_vfprintf_r+0x4ec>
    2638:	4532                	lw	a0,12(sp)
    263a:	85be                	mv	a1,a5
    263c:	d4cfe0ef          	jal	b88 <_free_r>
    2640:	85eff06f          	j	169e <_vfprintf_r+0x4ec>
    2644:	ee095663          	bgez	s2,1d30 <_vfprintf_r+0xb7e>
    2648:	f00c1b63          	bnez	s8,1d5e <_vfprintf_r+0xbac>
    264c:	47a5                	li	a5,9
    264e:	f197e863          	bltu	a5,s9,1d5e <_vfprintf_r+0xbac>
    2652:	030c8c93          	addi	s9,s9,48
    2656:	159107a3          	sb	s9,335(sp)
    265a:	14f10493          	addi	s1,sp,335
    265e:	dacff06f          	j	1c0a <_vfprintf_r+0xa58>

00002662 <vfprintf>:
    2662:	86b2                	mv	a3,a2
    2664:	862e                	mv	a2,a1
    2666:	85aa                	mv	a1,a0
    2668:	86c1a503          	lw	a0,-1940(gp) # 8c4c <_impure_ptr>
    266c:	b47fe06f          	j	11b2 <_vfprintf_r>

00002670 <__sbprintf>:
    2670:	00c5d783          	lhu	a5,12(a1)
    2674:	b8010113          	addi	sp,sp,-1152
    2678:	46812c23          	sw	s0,1144(sp)
    267c:	9bf5                	andi	a5,a5,-3
    267e:	00f11a23          	sh	a5,20(sp)
    2682:	51fc                	lw	a5,100(a1)
    2684:	842e                	mv	s0,a1
    2686:	46912a23          	sw	s1,1140(sp)
    268a:	d6be                	sw	a5,108(sp)
    268c:	00e5d783          	lhu	a5,14(a1)
    2690:	47212823          	sw	s2,1136(sp)
    2694:	46112e23          	sw	ra,1148(sp)
    2698:	00f11b23          	sh	a5,22(sp)
    269c:	4ddc                	lw	a5,28(a1)
    269e:	892a                	mv	s2,a0
    26a0:	d002                	sw	zero,32(sp)
    26a2:	d23e                	sw	a5,36(sp)
    26a4:	51dc                	lw	a5,36(a1)
    26a6:	002c                	addi	a1,sp,8
    26a8:	d63e                	sw	a5,44(sp)
    26aa:	189c                	addi	a5,sp,112
    26ac:	c43e                	sw	a5,8(sp)
    26ae:	cc3e                	sw	a5,24(sp)
    26b0:	40000793          	li	a5,1024
    26b4:	c83e                	sw	a5,16(sp)
    26b6:	ce3e                	sw	a5,28(sp)
    26b8:	afbfe0ef          	jal	11b2 <_vfprintf_r>
    26bc:	84aa                	mv	s1,a0
    26be:	00054763          	bltz	a0,26cc <__sbprintf+0x5c>
    26c2:	002c                	addi	a1,sp,8
    26c4:	854a                	mv	a0,s2
    26c6:	24a9                	jal	2910 <_fflush_r>
    26c8:	c111                	beqz	a0,26cc <__sbprintf+0x5c>
    26ca:	54fd                	li	s1,-1
    26cc:	01415783          	lhu	a5,20(sp)
    26d0:	0407f793          	andi	a5,a5,64
    26d4:	c799                	beqz	a5,26e2 <__sbprintf+0x72>
    26d6:	00c45783          	lhu	a5,12(s0)
    26da:	0407e793          	ori	a5,a5,64
    26de:	00f41623          	sh	a5,12(s0)
    26e2:	47c12083          	lw	ra,1148(sp)
    26e6:	47812403          	lw	s0,1144(sp)
    26ea:	47012903          	lw	s2,1136(sp)
    26ee:	8526                	mv	a0,s1
    26f0:	47412483          	lw	s1,1140(sp)
    26f4:	48010113          	addi	sp,sp,1152
    26f8:	8082                	ret

000026fa <__sprint_r>:
    26fa:	461c                	lw	a5,8(a2)
    26fc:	1141                	addi	sp,sp,-16
    26fe:	c422                	sw	s0,8(sp)
    2700:	c606                	sw	ra,12(sp)
    2702:	8432                	mv	s0,a2
    2704:	cb91                	beqz	a5,2718 <__sprint_r+0x1e>
    2706:	2ca9                	jal	2960 <__sfvwrite_r>
    2708:	00042423          	sw	zero,8(s0)
    270c:	40b2                	lw	ra,12(sp)
    270e:	00042223          	sw	zero,4(s0)
    2712:	4422                	lw	s0,8(sp)
    2714:	0141                	addi	sp,sp,16
    2716:	8082                	ret
    2718:	4501                	li	a0,0
    271a:	bfcd                	j	270c <__sprint_r+0x12>

0000271c <_fclose_r>:
    271c:	1141                	addi	sp,sp,-16
    271e:	c606                	sw	ra,12(sp)
    2720:	c422                	sw	s0,8(sp)
    2722:	c226                	sw	s1,4(sp)
    2724:	c04a                	sw	s2,0(sp)
    2726:	e989                	bnez	a1,2738 <_fclose_r+0x1c>
    2728:	4901                	li	s2,0
    272a:	40b2                	lw	ra,12(sp)
    272c:	4422                	lw	s0,8(sp)
    272e:	4492                	lw	s1,4(sp)
    2730:	854a                	mv	a0,s2
    2732:	4902                	lw	s2,0(sp)
    2734:	0141                	addi	sp,sp,16
    2736:	8082                	ret
    2738:	84aa                	mv	s1,a0
    273a:	842e                	mv	s0,a1
    273c:	c509                	beqz	a0,2746 <_fclose_r+0x2a>
    273e:	595c                	lw	a5,52(a0)
    2740:	e399                	bnez	a5,2746 <_fclose_r+0x2a>
    2742:	f09fd0ef          	jal	64a <__sinit>
    2746:	f19fd0ef          	jal	65e <__sfp_lock_acquire>
    274a:	00c41783          	lh	a5,12(s0)
    274e:	e781                	bnez	a5,2756 <_fclose_r+0x3a>
    2750:	f11fd0ef          	jal	660 <__sfp_lock_release>
    2754:	bfd1                	j	2728 <_fclose_r+0xc>
    2756:	85a2                	mv	a1,s0
    2758:	8526                	mv	a0,s1
    275a:	28b1                	jal	27b6 <__sflush_r>
    275c:	545c                	lw	a5,44(s0)
    275e:	892a                	mv	s2,a0
    2760:	c799                	beqz	a5,276e <_fclose_r+0x52>
    2762:	4c4c                	lw	a1,28(s0)
    2764:	8526                	mv	a0,s1
    2766:	9782                	jalr	a5
    2768:	00055363          	bgez	a0,276e <_fclose_r+0x52>
    276c:	597d                	li	s2,-1
    276e:	00c45783          	lhu	a5,12(s0)
    2772:	0807f793          	andi	a5,a5,128
    2776:	c789                	beqz	a5,2780 <_fclose_r+0x64>
    2778:	480c                	lw	a1,16(s0)
    277a:	8526                	mv	a0,s1
    277c:	c0cfe0ef          	jal	b88 <_free_r>
    2780:	580c                	lw	a1,48(s0)
    2782:	c991                	beqz	a1,2796 <_fclose_r+0x7a>
    2784:	04040793          	addi	a5,s0,64
    2788:	00f58563          	beq	a1,a5,2792 <_fclose_r+0x76>
    278c:	8526                	mv	a0,s1
    278e:	bfafe0ef          	jal	b88 <_free_r>
    2792:	02042823          	sw	zero,48(s0)
    2796:	406c                	lw	a1,68(s0)
    2798:	c591                	beqz	a1,27a4 <_fclose_r+0x88>
    279a:	8526                	mv	a0,s1
    279c:	becfe0ef          	jal	b88 <_free_r>
    27a0:	04042223          	sw	zero,68(s0)
    27a4:	00041623          	sh	zero,12(s0)
    27a8:	eb9fd0ef          	jal	660 <__sfp_lock_release>
    27ac:	bfbd                	j	272a <_fclose_r+0xe>

000027ae <fclose>:
    27ae:	85aa                	mv	a1,a0
    27b0:	86c1a503          	lw	a0,-1940(gp) # 8c4c <_impure_ptr>
    27b4:	b7a5                	j	271c <_fclose_r>

000027b6 <__sflush_r>:
    27b6:	00c59783          	lh	a5,12(a1)
    27ba:	1101                	addi	sp,sp,-32
    27bc:	cc22                	sw	s0,24(sp)
    27be:	ca26                	sw	s1,20(sp)
    27c0:	ce06                	sw	ra,28(sp)
    27c2:	c84a                	sw	s2,16(sp)
    27c4:	0087f713          	andi	a4,a5,8
    27c8:	84aa                	mv	s1,a0
    27ca:	842e                	mv	s0,a1
    27cc:	10071063          	bnez	a4,28cc <__sflush_r+0x116>
    27d0:	6705                	lui	a4,0x1
    27d2:	80070713          	addi	a4,a4,-2048 # 800 <__swrite+0x1a>
    27d6:	8f5d                	or	a4,a4,a5
    27d8:	00e59623          	sh	a4,12(a1)
    27dc:	41d8                	lw	a4,4(a1)
    27de:	00e04563          	bgtz	a4,27e8 <__sflush_r+0x32>
    27e2:	5dd8                	lw	a4,60(a1)
    27e4:	00e05463          	blez	a4,27ec <__sflush_r+0x36>
    27e8:	5418                	lw	a4,40(s0)
    27ea:	eb01                	bnez	a4,27fa <__sflush_r+0x44>
    27ec:	4501                	li	a0,0
    27ee:	40f2                	lw	ra,28(sp)
    27f0:	4462                	lw	s0,24(sp)
    27f2:	44d2                	lw	s1,20(sp)
    27f4:	4942                	lw	s2,16(sp)
    27f6:	6105                	addi	sp,sp,32
    27f8:	8082                	ret
    27fa:	0004a903          	lw	s2,0(s1)
    27fe:	01379693          	slli	a3,a5,0x13
    2802:	0004a023          	sw	zero,0(s1)
    2806:	0806d563          	bgez	a3,2890 <__sflush_r+0xda>
    280a:	4828                	lw	a0,80(s0)
    280c:	00c45783          	lhu	a5,12(s0)
    2810:	8b91                	andi	a5,a5,4
    2812:	c799                	beqz	a5,2820 <__sflush_r+0x6a>
    2814:	405c                	lw	a5,4(s0)
    2816:	8d1d                	sub	a0,a0,a5
    2818:	581c                	lw	a5,48(s0)
    281a:	c399                	beqz	a5,2820 <__sflush_r+0x6a>
    281c:	5c5c                	lw	a5,60(s0)
    281e:	8d1d                	sub	a0,a0,a5
    2820:	541c                	lw	a5,40(s0)
    2822:	4c4c                	lw	a1,28(s0)
    2824:	862a                	mv	a2,a0
    2826:	4681                	li	a3,0
    2828:	8526                	mv	a0,s1
    282a:	9782                	jalr	a5
    282c:	57fd                	li	a5,-1
    282e:	00c41703          	lh	a4,12(s0)
    2832:	00f51d63          	bne	a0,a5,284c <__sflush_r+0x96>
    2836:	4094                	lw	a3,0(s1)
    2838:	47f5                	li	a5,29
    283a:	08d7e463          	bltu	a5,a3,28c2 <__sflush_r+0x10c>
    283e:	204007b7          	lui	a5,0x20400
    2842:	0785                	addi	a5,a5,1 # 20400001 <_sp+0x203f4091>
    2844:	00d7d7b3          	srl	a5,a5,a3
    2848:	8b85                	andi	a5,a5,1
    284a:	cfa5                	beqz	a5,28c2 <__sflush_r+0x10c>
    284c:	77fd                	lui	a5,0xfffff
    284e:	7ff78793          	addi	a5,a5,2047 # fffff7ff <_sp+0xffff388f>
    2852:	8ff9                	and	a5,a5,a4
    2854:	00f41623          	sh	a5,12(s0)
    2858:	481c                	lw	a5,16(s0)
    285a:	00042223          	sw	zero,4(s0)
    285e:	c01c                	sw	a5,0(s0)
    2860:	01371793          	slli	a5,a4,0x13
    2864:	0007d863          	bgez	a5,2874 <__sflush_r+0xbe>
    2868:	57fd                	li	a5,-1
    286a:	00f51463          	bne	a0,a5,2872 <__sflush_r+0xbc>
    286e:	409c                	lw	a5,0(s1)
    2870:	e391                	bnez	a5,2874 <__sflush_r+0xbe>
    2872:	c828                	sw	a0,80(s0)
    2874:	580c                	lw	a1,48(s0)
    2876:	0124a023          	sw	s2,0(s1)
    287a:	d9ad                	beqz	a1,27ec <__sflush_r+0x36>
    287c:	04040793          	addi	a5,s0,64
    2880:	00f58563          	beq	a1,a5,288a <__sflush_r+0xd4>
    2884:	8526                	mv	a0,s1
    2886:	b02fe0ef          	jal	b88 <_free_r>
    288a:	02042823          	sw	zero,48(s0)
    288e:	bfb9                	j	27ec <__sflush_r+0x36>
    2890:	4c4c                	lw	a1,28(s0)
    2892:	4685                	li	a3,1
    2894:	4601                	li	a2,0
    2896:	8526                	mv	a0,s1
    2898:	9702                	jalr	a4
    289a:	57fd                	li	a5,-1
    289c:	f6f518e3          	bne	a0,a5,280c <__sflush_r+0x56>
    28a0:	409c                	lw	a5,0(s1)
    28a2:	d7ad                	beqz	a5,280c <__sflush_r+0x56>
    28a4:	fea78713          	addi	a4,a5,-22
    28a8:	c319                	beqz	a4,28ae <__sflush_r+0xf8>
    28aa:	178d                	addi	a5,a5,-29
    28ac:	e781                	bnez	a5,28b4 <__sflush_r+0xfe>
    28ae:	0124a023          	sw	s2,0(s1)
    28b2:	bf2d                	j	27ec <__sflush_r+0x36>
    28b4:	00c45783          	lhu	a5,12(s0)
    28b8:	0407e793          	ori	a5,a5,64
    28bc:	00f41623          	sh	a5,12(s0)
    28c0:	b73d                	j	27ee <__sflush_r+0x38>
    28c2:	04076713          	ori	a4,a4,64
    28c6:	00e41623          	sh	a4,12(s0)
    28ca:	b715                	j	27ee <__sflush_r+0x38>
    28cc:	4990                	lw	a2,16(a1)
    28ce:	de19                	beqz	a2,27ec <__sflush_r+0x36>
    28d0:	4194                	lw	a3,0(a1)
    28d2:	8b8d                	andi	a5,a5,3
    28d4:	c190                	sw	a2,0(a1)
    28d6:	40c68933          	sub	s2,a3,a2
    28da:	4701                	li	a4,0
    28dc:	e391                	bnez	a5,28e0 <__sflush_r+0x12a>
    28de:	49d8                	lw	a4,20(a1)
    28e0:	c418                	sw	a4,8(s0)
    28e2:	f12055e3          	blez	s2,27ec <__sflush_r+0x36>
    28e6:	505c                	lw	a5,36(s0)
    28e8:	4c4c                	lw	a1,28(s0)
    28ea:	86ca                	mv	a3,s2
    28ec:	8526                	mv	a0,s1
    28ee:	c632                	sw	a2,12(sp)
    28f0:	9782                	jalr	a5
    28f2:	4632                	lw	a2,12(sp)
    28f4:	00a04a63          	bgtz	a0,2908 <__sflush_r+0x152>
    28f8:	00c45783          	lhu	a5,12(s0)
    28fc:	557d                	li	a0,-1
    28fe:	0407e793          	ori	a5,a5,64
    2902:	00f41623          	sh	a5,12(s0)
    2906:	b5e5                	j	27ee <__sflush_r+0x38>
    2908:	962a                	add	a2,a2,a0
    290a:	40a90933          	sub	s2,s2,a0
    290e:	bfd1                	j	28e2 <__sflush_r+0x12c>

00002910 <_fflush_r>:
    2910:	1101                	addi	sp,sp,-32
    2912:	cc22                	sw	s0,24(sp)
    2914:	ce06                	sw	ra,28(sp)
    2916:	842a                	mv	s0,a0
    2918:	c519                	beqz	a0,2926 <_fflush_r+0x16>
    291a:	595c                	lw	a5,52(a0)
    291c:	e789                	bnez	a5,2926 <_fflush_r+0x16>
    291e:	c62e                	sw	a1,12(sp)
    2920:	d2bfd0ef          	jal	64a <__sinit>
    2924:	45b2                	lw	a1,12(sp)
    2926:	00c59783          	lh	a5,12(a1)
    292a:	c791                	beqz	a5,2936 <_fflush_r+0x26>
    292c:	8522                	mv	a0,s0
    292e:	4462                	lw	s0,24(sp)
    2930:	40f2                	lw	ra,28(sp)
    2932:	6105                	addi	sp,sp,32
    2934:	b549                	j	27b6 <__sflush_r>
    2936:	40f2                	lw	ra,28(sp)
    2938:	4462                	lw	s0,24(sp)
    293a:	4501                	li	a0,0
    293c:	6105                	addi	sp,sp,32
    293e:	8082                	ret

00002940 <fflush>:
    2940:	85aa                	mv	a1,a0
    2942:	ed01                	bnez	a0,295a <fflush+0x1a>
    2944:	6621                	lui	a2,0x8
    2946:	658d                	lui	a1,0x3
    2948:	6521                	lui	a0,0x8
    294a:	53860613          	addi	a2,a2,1336 # 8538 <__sglue>
    294e:	91058593          	addi	a1,a1,-1776 # 2910 <_fflush_r>
    2952:	54850513          	addi	a0,a0,1352 # 8548 <_impure_data>
    2956:	d29fd06f          	j	67e <_fwalk_sglue>
    295a:	86c1a503          	lw	a0,-1940(gp) # 8c4c <_impure_ptr>
    295e:	bf4d                	j	2910 <_fflush_r>

00002960 <__sfvwrite_r>:
    2960:	461c                	lw	a5,8(a2)
    2962:	2c078563          	beqz	a5,2c2c <__sfvwrite_r+0x2cc>
    2966:	00c5d783          	lhu	a5,12(a1)
    296a:	7139                	addi	sp,sp,-64
    296c:	dc22                	sw	s0,56(sp)
    296e:	d64e                	sw	s3,44(sp)
    2970:	d256                	sw	s5,36(sp)
    2972:	de06                	sw	ra,60(sp)
    2974:	da26                	sw	s1,52(sp)
    2976:	d84a                	sw	s2,48(sp)
    2978:	d452                	sw	s4,40(sp)
    297a:	d05a                	sw	s6,32(sp)
    297c:	ce5e                	sw	s7,28(sp)
    297e:	cc62                	sw	s8,24(sp)
    2980:	ca66                	sw	s9,20(sp)
    2982:	c86a                	sw	s10,16(sp)
    2984:	c66e                	sw	s11,12(sp)
    2986:	8ba1                	andi	a5,a5,8
    2988:	8ab2                	mv	s5,a2
    298a:	842e                	mv	s0,a1
    298c:	89aa                	mv	s3,a0
    298e:	c399                	beqz	a5,2994 <__sfvwrite_r+0x34>
    2990:	499c                	lw	a5,16(a1)
    2992:	e78d                	bnez	a5,29bc <__sfvwrite_r+0x5c>
    2994:	85a2                	mv	a1,s0
    2996:	854e                	mv	a0,s3
    2998:	2c61                	jal	2c30 <__swsetup_r>
    299a:	c10d                	beqz	a0,29bc <__sfvwrite_r+0x5c>
    299c:	557d                	li	a0,-1
    299e:	50f2                	lw	ra,60(sp)
    29a0:	5462                	lw	s0,56(sp)
    29a2:	54d2                	lw	s1,52(sp)
    29a4:	5942                	lw	s2,48(sp)
    29a6:	59b2                	lw	s3,44(sp)
    29a8:	5a22                	lw	s4,40(sp)
    29aa:	5a92                	lw	s5,36(sp)
    29ac:	5b02                	lw	s6,32(sp)
    29ae:	4bf2                	lw	s7,28(sp)
    29b0:	4c62                	lw	s8,24(sp)
    29b2:	4cd2                	lw	s9,20(sp)
    29b4:	4d42                	lw	s10,16(sp)
    29b6:	4db2                	lw	s11,12(sp)
    29b8:	6121                	addi	sp,sp,64
    29ba:	8082                	ret
    29bc:	00c41783          	lh	a5,12(s0)
    29c0:	000aaa03          	lw	s4,0(s5)
    29c4:	0027f713          	andi	a4,a5,2
    29c8:	eb5d                	bnez	a4,2a7e <__sfvwrite_r+0x11e>
    29ca:	8b85                	andi	a5,a5,1
    29cc:	12078c63          	beqz	a5,2b04 <__sfvwrite_r+0x1a4>
    29d0:	4b81                	li	s7,0
    29d2:	4501                	li	a0,0
    29d4:	4b01                	li	s6,0
    29d6:	4901                	li	s2,0
    29d8:	20090c63          	beqz	s2,2bf0 <__sfvwrite_r+0x290>
    29dc:	e919                	bnez	a0,29f2 <__sfvwrite_r+0x92>
    29de:	864a                	mv	a2,s2
    29e0:	45a9                	li	a1,10
    29e2:	855a                	mv	a0,s6
    29e4:	267d                	jal	2d92 <memchr>
    29e6:	00190b93          	addi	s7,s2,1
    29ea:	c501                	beqz	a0,29f2 <__sfvwrite_r+0x92>
    29ec:	0505                	addi	a0,a0,1
    29ee:	41650bb3          	sub	s7,a0,s6
    29f2:	8c5e                	mv	s8,s7
    29f4:	01797363          	bgeu	s2,s7,29fa <__sfvwrite_r+0x9a>
    29f8:	8c4a                	mv	s8,s2
    29fa:	4854                	lw	a3,20(s0)
    29fc:	4404                	lw	s1,8(s0)
    29fe:	4008                	lw	a0,0(s0)
    2a00:	481c                	lw	a5,16(s0)
    2a02:	94b6                	add	s1,s1,a3
    2a04:	1ea7fd63          	bgeu	a5,a0,2bfe <__sfvwrite_r+0x29e>
    2a08:	1f84db63          	bge	s1,s8,2bfe <__sfvwrite_r+0x29e>
    2a0c:	85da                	mv	a1,s6
    2a0e:	8626                	mv	a2,s1
    2a10:	26a9                	jal	2d5a <memmove>
    2a12:	401c                	lw	a5,0(s0)
    2a14:	85a2                	mv	a1,s0
    2a16:	854e                	mv	a0,s3
    2a18:	97a6                	add	a5,a5,s1
    2a1a:	c01c                	sw	a5,0(s0)
    2a1c:	3dd5                	jal	2910 <_fflush_r>
    2a1e:	ed61                	bnez	a0,2af6 <__sfvwrite_r+0x196>
    2a20:	409b8bb3          	sub	s7,s7,s1
    2a24:	4505                	li	a0,1
    2a26:	000b9663          	bnez	s7,2a32 <__sfvwrite_r+0xd2>
    2a2a:	85a2                	mv	a1,s0
    2a2c:	854e                	mv	a0,s3
    2a2e:	35cd                	jal	2910 <_fflush_r>
    2a30:	e179                	bnez	a0,2af6 <__sfvwrite_r+0x196>
    2a32:	008aa783          	lw	a5,8(s5)
    2a36:	8f85                	sub	a5,a5,s1
    2a38:	00faa423          	sw	a5,8(s5)
    2a3c:	cf9d                	beqz	a5,2a7a <__sfvwrite_r+0x11a>
    2a3e:	9b26                	add	s6,s6,s1
    2a40:	40990933          	sub	s2,s2,s1
    2a44:	bf51                	j	29d8 <__sfvwrite_r+0x78>
    2a46:	000a2903          	lw	s2,0(s4)
    2a4a:	004a2483          	lw	s1,4(s4)
    2a4e:	0a21                	addi	s4,s4,8
    2a50:	d8fd                	beqz	s1,2a46 <__sfvwrite_r+0xe6>
    2a52:	86a6                	mv	a3,s1
    2a54:	009b7663          	bgeu	s6,s1,2a60 <__sfvwrite_r+0x100>
    2a58:	800006b7          	lui	a3,0x80000
    2a5c:	c0068693          	addi	a3,a3,-1024 # 7ffffc00 <_sp+0x7fff3c90>
    2a60:	505c                	lw	a5,36(s0)
    2a62:	4c4c                	lw	a1,28(s0)
    2a64:	864a                	mv	a2,s2
    2a66:	854e                	mv	a0,s3
    2a68:	9782                	jalr	a5
    2a6a:	08a05663          	blez	a0,2af6 <__sfvwrite_r+0x196>
    2a6e:	008aa783          	lw	a5,8(s5)
    2a72:	8f89                	sub	a5,a5,a0
    2a74:	00faa423          	sw	a5,8(s5)
    2a78:	eb91                	bnez	a5,2a8c <__sfvwrite_r+0x12c>
    2a7a:	4501                	li	a0,0
    2a7c:	b70d                	j	299e <__sfvwrite_r+0x3e>
    2a7e:	80000b37          	lui	s6,0x80000
    2a82:	4901                	li	s2,0
    2a84:	4481                	li	s1,0
    2a86:	c00b0b13          	addi	s6,s6,-1024 # 7ffffc00 <_sp+0x7fff3c90>
    2a8a:	b7d9                	j	2a50 <__sfvwrite_r+0xf0>
    2a8c:	992a                	add	s2,s2,a0
    2a8e:	8c89                	sub	s1,s1,a0
    2a90:	b7c1                	j	2a50 <__sfvwrite_r+0xf0>
    2a92:	000a2b03          	lw	s6,0(s4)
    2a96:	004a2483          	lw	s1,4(s4)
    2a9a:	0a21                	addi	s4,s4,8
    2a9c:	d8fd                	beqz	s1,2a92 <__sfvwrite_r+0x132>
    2a9e:	00c41783          	lh	a5,12(s0)
    2aa2:	00842d03          	lw	s10,8(s0)
    2aa6:	4008                	lw	a0,0(s0)
    2aa8:	2007f713          	andi	a4,a5,512
    2aac:	0e070763          	beqz	a4,2b9a <__sfvwrite_r+0x23a>
    2ab0:	8dea                	mv	s11,s10
    2ab2:	0fa4e063          	bltu	s1,s10,2b92 <__sfvwrite_r+0x232>
    2ab6:	4807f713          	andi	a4,a5,1152
    2aba:	cf71                	beqz	a4,2b96 <__sfvwrite_r+0x236>
    2abc:	01442903          	lw	s2,20(s0)
    2ac0:	480c                	lw	a1,16(s0)
    2ac2:	03890933          	mul	s2,s2,s8
    2ac6:	40b50db3          	sub	s11,a0,a1
    2aca:	001d8713          	addi	a4,s11,1
    2ace:	9726                	add	a4,a4,s1
    2ad0:	03994933          	div	s2,s2,s9
    2ad4:	864a                	mv	a2,s2
    2ad6:	00e97463          	bgeu	s2,a4,2ade <__sfvwrite_r+0x17e>
    2ada:	893a                	mv	s2,a4
    2adc:	863a                	mv	a2,a4
    2ade:	4007f793          	andi	a5,a5,1024
    2ae2:	cbc1                	beqz	a5,2b72 <__sfvwrite_r+0x212>
    2ae4:	85b2                	mv	a1,a2
    2ae6:	854e                	mv	a0,s3
    2ae8:	a3afe0ef          	jal	d22 <_malloc_r>
    2aec:	8d2a                	mv	s10,a0
    2aee:	e11d                	bnez	a0,2b14 <__sfvwrite_r+0x1b4>
    2af0:	47b1                	li	a5,12
    2af2:	00f9a023          	sw	a5,0(s3)
    2af6:	00c45783          	lhu	a5,12(s0)
    2afa:	0407e793          	ori	a5,a5,64
    2afe:	00f41623          	sh	a5,12(s0)
    2b02:	bd69                	j	299c <__sfvwrite_r+0x3c>
    2b04:	80000bb7          	lui	s7,0x80000
    2b08:	4b01                	li	s6,0
    2b0a:	4481                	li	s1,0
    2b0c:	1bfd                	addi	s7,s7,-1 # 7fffffff <_sp+0x7fff408f>
    2b0e:	4c0d                	li	s8,3
    2b10:	4c89                	li	s9,2
    2b12:	b769                	j	2a9c <__sfvwrite_r+0x13c>
    2b14:	480c                	lw	a1,16(s0)
    2b16:	866e                	mv	a2,s11
    2b18:	2495                	jal	2d7c <memcpy>
    2b1a:	00c45783          	lhu	a5,12(s0)
    2b1e:	b7f7f793          	andi	a5,a5,-1153
    2b22:	0807e793          	ori	a5,a5,128
    2b26:	00f41623          	sh	a5,12(s0)
    2b2a:	01a42823          	sw	s10,16(s0)
    2b2e:	01242a23          	sw	s2,20(s0)
    2b32:	9d6e                	add	s10,s10,s11
    2b34:	41b90933          	sub	s2,s2,s11
    2b38:	01a42023          	sw	s10,0(s0)
    2b3c:	01242423          	sw	s2,8(s0)
    2b40:	8d26                	mv	s10,s1
    2b42:	8926                	mv	s2,s1
    2b44:	8da6                	mv	s11,s1
    2b46:	4008                	lw	a0,0(s0)
    2b48:	866e                	mv	a2,s11
    2b4a:	85da                	mv	a1,s6
    2b4c:	2439                	jal	2d5a <memmove>
    2b4e:	441c                	lw	a5,8(s0)
    2b50:	41a787b3          	sub	a5,a5,s10
    2b54:	c41c                	sw	a5,8(s0)
    2b56:	401c                	lw	a5,0(s0)
    2b58:	97ee                	add	a5,a5,s11
    2b5a:	c01c                	sw	a5,0(s0)
    2b5c:	008aa783          	lw	a5,8(s5)
    2b60:	412787b3          	sub	a5,a5,s2
    2b64:	00faa423          	sw	a5,8(s5)
    2b68:	db89                	beqz	a5,2a7a <__sfvwrite_r+0x11a>
    2b6a:	9b4a                	add	s6,s6,s2
    2b6c:	412484b3          	sub	s1,s1,s2
    2b70:	b735                	j	2a9c <__sfvwrite_r+0x13c>
    2b72:	854e                	mv	a0,s3
    2b74:	1bb010ef          	jal	452e <_realloc_r>
    2b78:	8d2a                	mv	s10,a0
    2b7a:	f945                	bnez	a0,2b2a <__sfvwrite_r+0x1ca>
    2b7c:	480c                	lw	a1,16(s0)
    2b7e:	854e                	mv	a0,s3
    2b80:	808fe0ef          	jal	b88 <_free_r>
    2b84:	00c45783          	lhu	a5,12(s0)
    2b88:	f7f7f793          	andi	a5,a5,-129
    2b8c:	00f41623          	sh	a5,12(s0)
    2b90:	b785                	j	2af0 <__sfvwrite_r+0x190>
    2b92:	8d26                	mv	s10,s1
    2b94:	b77d                	j	2b42 <__sfvwrite_r+0x1e2>
    2b96:	8926                	mv	s2,s1
    2b98:	b77d                	j	2b46 <__sfvwrite_r+0x1e6>
    2b9a:	481c                	lw	a5,16(s0)
    2b9c:	00a7e563          	bltu	a5,a0,2ba6 <__sfvwrite_r+0x246>
    2ba0:	4854                	lw	a3,20(s0)
    2ba2:	02d4f663          	bgeu	s1,a3,2bce <__sfvwrite_r+0x26e>
    2ba6:	896a                	mv	s2,s10
    2ba8:	01a4f363          	bgeu	s1,s10,2bae <__sfvwrite_r+0x24e>
    2bac:	8926                	mv	s2,s1
    2bae:	864a                	mv	a2,s2
    2bb0:	85da                	mv	a1,s6
    2bb2:	2265                	jal	2d5a <memmove>
    2bb4:	441c                	lw	a5,8(s0)
    2bb6:	4018                	lw	a4,0(s0)
    2bb8:	412787b3          	sub	a5,a5,s2
    2bbc:	974a                	add	a4,a4,s2
    2bbe:	c41c                	sw	a5,8(s0)
    2bc0:	c018                	sw	a4,0(s0)
    2bc2:	ffc9                	bnez	a5,2b5c <__sfvwrite_r+0x1fc>
    2bc4:	85a2                	mv	a1,s0
    2bc6:	854e                	mv	a0,s3
    2bc8:	33a1                	jal	2910 <_fflush_r>
    2bca:	d949                	beqz	a0,2b5c <__sfvwrite_r+0x1fc>
    2bcc:	b72d                	j	2af6 <__sfvwrite_r+0x196>
    2bce:	87a6                	mv	a5,s1
    2bd0:	009bf363          	bgeu	s7,s1,2bd6 <__sfvwrite_r+0x276>
    2bd4:	87de                	mv	a5,s7
    2bd6:	02d7c7b3          	div	a5,a5,a3
    2bda:	5058                	lw	a4,36(s0)
    2bdc:	4c4c                	lw	a1,28(s0)
    2bde:	865a                	mv	a2,s6
    2be0:	854e                	mv	a0,s3
    2be2:	02d786b3          	mul	a3,a5,a3
    2be6:	9702                	jalr	a4
    2be8:	892a                	mv	s2,a0
    2bea:	f6a049e3          	bgtz	a0,2b5c <__sfvwrite_r+0x1fc>
    2bee:	b721                	j	2af6 <__sfvwrite_r+0x196>
    2bf0:	000a2b03          	lw	s6,0(s4)
    2bf4:	004a2903          	lw	s2,4(s4)
    2bf8:	4501                	li	a0,0
    2bfa:	0a21                	addi	s4,s4,8
    2bfc:	bbf1                	j	29d8 <__sfvwrite_r+0x78>
    2bfe:	00dc4b63          	blt	s8,a3,2c14 <__sfvwrite_r+0x2b4>
    2c02:	505c                	lw	a5,36(s0)
    2c04:	4c4c                	lw	a1,28(s0)
    2c06:	865a                	mv	a2,s6
    2c08:	854e                	mv	a0,s3
    2c0a:	9782                	jalr	a5
    2c0c:	84aa                	mv	s1,a0
    2c0e:	e0a049e3          	bgtz	a0,2a20 <__sfvwrite_r+0xc0>
    2c12:	b5d5                	j	2af6 <__sfvwrite_r+0x196>
    2c14:	8662                	mv	a2,s8
    2c16:	85da                	mv	a1,s6
    2c18:	2289                	jal	2d5a <memmove>
    2c1a:	441c                	lw	a5,8(s0)
    2c1c:	84e2                	mv	s1,s8
    2c1e:	418787b3          	sub	a5,a5,s8
    2c22:	c41c                	sw	a5,8(s0)
    2c24:	401c                	lw	a5,0(s0)
    2c26:	97e2                	add	a5,a5,s8
    2c28:	c01c                	sw	a5,0(s0)
    2c2a:	bbdd                	j	2a20 <__sfvwrite_r+0xc0>
    2c2c:	4501                	li	a0,0
    2c2e:	8082                	ret

00002c30 <__swsetup_r>:
    2c30:	1141                	addi	sp,sp,-16
    2c32:	c226                	sw	s1,4(sp)
    2c34:	84aa                	mv	s1,a0
    2c36:	86c1a503          	lw	a0,-1940(gp) # 8c4c <_impure_ptr>
    2c3a:	c422                	sw	s0,8(sp)
    2c3c:	c606                	sw	ra,12(sp)
    2c3e:	842e                	mv	s0,a1
    2c40:	c509                	beqz	a0,2c4a <__swsetup_r+0x1a>
    2c42:	595c                	lw	a5,52(a0)
    2c44:	e399                	bnez	a5,2c4a <__swsetup_r+0x1a>
    2c46:	a05fd0ef          	jal	64a <__sinit>
    2c4a:	00c41783          	lh	a5,12(s0)
    2c4e:	0087f713          	andi	a4,a5,8
    2c52:	eb31                	bnez	a4,2ca6 <__swsetup_r+0x76>
    2c54:	0107f713          	andi	a4,a5,16
    2c58:	ef09                	bnez	a4,2c72 <__swsetup_r+0x42>
    2c5a:	4725                	li	a4,9
    2c5c:	c098                	sw	a4,0(s1)
    2c5e:	0407e793          	ori	a5,a5,64
    2c62:	00f41623          	sh	a5,12(s0)
    2c66:	557d                	li	a0,-1
    2c68:	40b2                	lw	ra,12(sp)
    2c6a:	4422                	lw	s0,8(sp)
    2c6c:	4492                	lw	s1,4(sp)
    2c6e:	0141                	addi	sp,sp,16
    2c70:	8082                	ret
    2c72:	0047f713          	andi	a4,a5,4
    2c76:	c705                	beqz	a4,2c9e <__swsetup_r+0x6e>
    2c78:	580c                	lw	a1,48(s0)
    2c7a:	c991                	beqz	a1,2c8e <__swsetup_r+0x5e>
    2c7c:	04040793          	addi	a5,s0,64
    2c80:	00f58563          	beq	a1,a5,2c8a <__swsetup_r+0x5a>
    2c84:	8526                	mv	a0,s1
    2c86:	f03fd0ef          	jal	b88 <_free_r>
    2c8a:	02042823          	sw	zero,48(s0)
    2c8e:	00c45783          	lhu	a5,12(s0)
    2c92:	4818                	lw	a4,16(s0)
    2c94:	00042223          	sw	zero,4(s0)
    2c98:	fdb7f793          	andi	a5,a5,-37
    2c9c:	c018                	sw	a4,0(s0)
    2c9e:	0087e793          	ori	a5,a5,8
    2ca2:	00f41623          	sh	a5,12(s0)
    2ca6:	481c                	lw	a5,16(s0)
    2ca8:	ef81                	bnez	a5,2cc0 <__swsetup_r+0x90>
    2caa:	445c                	lw	a5,12(s0)
    2cac:	20000713          	li	a4,512
    2cb0:	2807f793          	andi	a5,a5,640
    2cb4:	00e78663          	beq	a5,a4,2cc0 <__swsetup_r+0x90>
    2cb8:	85a2                	mv	a1,s0
    2cba:	8526                	mv	a0,s1
    2cbc:	469010ef          	jal	4924 <__smakebuf_r>
    2cc0:	00c41783          	lh	a5,12(s0)
    2cc4:	0017f713          	andi	a4,a5,1
    2cc8:	cb19                	beqz	a4,2cde <__swsetup_r+0xae>
    2cca:	4858                	lw	a4,20(s0)
    2ccc:	00042423          	sw	zero,8(s0)
    2cd0:	40e00733          	neg	a4,a4
    2cd4:	cc18                	sw	a4,24(s0)
    2cd6:	4818                	lw	a4,16(s0)
    2cd8:	cb11                	beqz	a4,2cec <__swsetup_r+0xbc>
    2cda:	4501                	li	a0,0
    2cdc:	b771                	j	2c68 <__swsetup_r+0x38>
    2cde:	0027f713          	andi	a4,a5,2
    2ce2:	4681                	li	a3,0
    2ce4:	e311                	bnez	a4,2ce8 <__swsetup_r+0xb8>
    2ce6:	4854                	lw	a3,20(s0)
    2ce8:	c414                	sw	a3,8(s0)
    2cea:	b7f5                	j	2cd6 <__swsetup_r+0xa6>
    2cec:	0807f713          	andi	a4,a5,128
    2cf0:	d76d                	beqz	a4,2cda <__swsetup_r+0xaa>
    2cf2:	b7b5                	j	2c5e <__swsetup_r+0x2e>

00002cf4 <strncpy>:
    2cf4:	87aa                	mv	a5,a0
    2cf6:	ca09                	beqz	a2,2d08 <strncpy+0x14>
    2cf8:	0005c703          	lbu	a4,0(a1)
    2cfc:	0585                	addi	a1,a1,1
    2cfe:	0785                	addi	a5,a5,1
    2d00:	fee78fa3          	sb	a4,-1(a5)
    2d04:	167d                	addi	a2,a2,-1
    2d06:	fb65                	bnez	a4,2cf6 <strncpy+0x2>
    2d08:	963e                	add	a2,a2,a5
    2d0a:	a021                	j	2d12 <strncpy+0x1e>
    2d0c:	0785                	addi	a5,a5,1
    2d0e:	fe078fa3          	sb	zero,-1(a5)
    2d12:	fec79de3          	bne	a5,a2,2d0c <strncpy+0x18>
    2d16:	8082                	ret

00002d18 <__localeconv_l>:
    2d18:	0f050513          	addi	a0,a0,240
    2d1c:	8082                	ret

00002d1e <_localeconv_r>:
    2d1e:	6525                	lui	a0,0x9
    2d20:	b6050513          	addi	a0,a0,-1184 # 8b60 <__global_locale+0xf0>
    2d24:	8082                	ret

00002d26 <localeconv>:
    2d26:	6525                	lui	a0,0x9
    2d28:	b6050513          	addi	a0,a0,-1184 # 8b60 <__global_locale+0xf0>
    2d2c:	8082                	ret

00002d2e <_sbrk_r>:
    2d2e:	1141                	addi	sp,sp,-16
    2d30:	c422                	sw	s0,8(sp)
    2d32:	c226                	sw	s1,4(sp)
    2d34:	84aa                	mv	s1,a0
    2d36:	852e                	mv	a0,a1
    2d38:	c606                	sw	ra,12(sp)
    2d3a:	8801a423          	sw	zero,-1912(gp) # 8c68 <errno>
    2d3e:	ed8fd0ef          	jal	416 <_sbrk>
    2d42:	57fd                	li	a5,-1
    2d44:	00f51663          	bne	a0,a5,2d50 <_sbrk_r+0x22>
    2d48:	8881a783          	lw	a5,-1912(gp) # 8c68 <errno>
    2d4c:	c391                	beqz	a5,2d50 <_sbrk_r+0x22>
    2d4e:	c09c                	sw	a5,0(s1)
    2d50:	40b2                	lw	ra,12(sp)
    2d52:	4422                	lw	s0,8(sp)
    2d54:	4492                	lw	s1,4(sp)
    2d56:	0141                	addi	sp,sp,16
    2d58:	8082                	ret

00002d5a <memmove>:
    2d5a:	c205                	beqz	a2,2d7a <memmove+0x20>
    2d5c:	872a                	mv	a4,a0
    2d5e:	4685                	li	a3,1
    2d60:	00b56763          	bltu	a0,a1,2d6e <memmove+0x14>
    2d64:	56fd                	li	a3,-1
    2d66:	9732                	add	a4,a4,a2
    2d68:	95b2                	add	a1,a1,a2
    2d6a:	9736                	add	a4,a4,a3
    2d6c:	95b6                	add	a1,a1,a3
    2d6e:	0005c783          	lbu	a5,0(a1)
    2d72:	167d                	addi	a2,a2,-1
    2d74:	00f70023          	sb	a5,0(a4)
    2d78:	fa6d                	bnez	a2,2d6a <memmove+0x10>
    2d7a:	8082                	ret

00002d7c <memcpy>:
    2d7c:	86aa                	mv	a3,a0
    2d7e:	ca09                	beqz	a2,2d90 <memcpy+0x14>
    2d80:	0005c703          	lbu	a4,0(a1)
    2d84:	00e68023          	sb	a4,0(a3)
    2d88:	167d                	addi	a2,a2,-1
    2d8a:	0685                	addi	a3,a3,1
    2d8c:	0585                	addi	a1,a1,1
    2d8e:	fa6d                	bnez	a2,2d80 <memcpy+0x4>
    2d90:	8082                	ret

00002d92 <memchr>:
    2d92:	0ff5f593          	zext.b	a1,a1
    2d96:	962a                	add	a2,a2,a0
    2d98:	00c51463          	bne	a0,a2,2da0 <memchr+0xe>
    2d9c:	4501                	li	a0,0
    2d9e:	8082                	ret
    2da0:	00054783          	lbu	a5,0(a0)
    2da4:	feb78de3          	beq	a5,a1,2d9e <memchr+0xc>
    2da8:	0505                	addi	a0,a0,1
    2daa:	b7fd                	j	2d98 <memchr+0x6>

00002dac <frexp>:
    2dac:	00159713          	slli	a4,a1,0x1
    2db0:	8305                	srli	a4,a4,0x1
    2db2:	00062023          	sw	zero,0(a2)
    2db6:	7ff008b7          	lui	a7,0x7ff00
    2dba:	86aa                	mv	a3,a0
    2dbc:	87ae                	mv	a5,a1
    2dbe:	07177463          	bgeu	a4,a7,2e26 <frexp+0x7a>
    2dc2:	00a768b3          	or	a7,a4,a0
    2dc6:	06088063          	beqz	a7,2e26 <frexp+0x7a>
    2dca:	1141                	addi	sp,sp,-16
    2dcc:	c422                	sw	s0,8(sp)
    2dce:	8432                	mv	s0,a2
    2dd0:	0145d613          	srli	a2,a1,0x14
    2dd4:	c606                	sw	ra,12(sp)
    2dd6:	7ff67613          	andi	a2,a2,2047
    2dda:	882e                	mv	a6,a1
    2ddc:	e205                	bnez	a2,2dfc <frexp+0x50>
    2dde:	8241a683          	lw	a3,-2012(gp) # 8c04 <__SDATA_BEGIN__+0x24>
    2de2:	8201a603          	lw	a2,-2016(gp) # 8c00 <__SDATA_BEGIN__+0x20>
    2de6:	3f3030ef          	jal	69d8 <__muldf3>
    2dea:	00159793          	slli	a5,a1,0x1
    2dee:	0017d713          	srli	a4,a5,0x1
    2df2:	fca00793          	li	a5,-54
    2df6:	86aa                	mv	a3,a0
    2df8:	882e                	mv	a6,a1
    2dfa:	c01c                	sw	a5,0(s0)
    2dfc:	401c                	lw	a5,0(s0)
    2dfe:	8751                	srai	a4,a4,0x14
    2e00:	c0270713          	addi	a4,a4,-1022
    2e04:	97ba                	add	a5,a5,a4
    2e06:	c01c                	sw	a5,0(s0)
    2e08:	801007b7          	lui	a5,0x80100
    2e0c:	40b2                	lw	ra,12(sp)
    2e0e:	4422                	lw	s0,8(sp)
    2e10:	17fd                	addi	a5,a5,-1 # 800fffff <_sp+0x800f408f>
    2e12:	00f87833          	and	a6,a6,a5
    2e16:	3fe007b7          	lui	a5,0x3fe00
    2e1a:	00f867b3          	or	a5,a6,a5
    2e1e:	8536                	mv	a0,a3
    2e20:	85be                	mv	a1,a5
    2e22:	0141                	addi	sp,sp,16
    2e24:	8082                	ret
    2e26:	8536                	mv	a0,a3
    2e28:	85be                	mv	a1,a5
    2e2a:	8082                	ret

00002e2c <quorem>:
    2e2c:	1101                	addi	sp,sp,-32
    2e2e:	cc22                	sw	s0,24(sp)
    2e30:	491c                	lw	a5,16(a0)
    2e32:	4980                	lw	s0,16(a1)
    2e34:	ce06                	sw	ra,28(sp)
    2e36:	ca26                	sw	s1,20(sp)
    2e38:	c84a                	sw	s2,16(sp)
    2e3a:	c64e                	sw	s3,12(sp)
    2e3c:	c452                	sw	s4,8(sp)
    2e3e:	c256                	sw	s5,4(sp)
    2e40:	1087cf63          	blt	a5,s0,2f5e <quorem+0x132>
    2e44:	147d                	addi	s0,s0,-1
    2e46:	00241693          	slli	a3,s0,0x2
    2e4a:	01458913          	addi	s2,a1,20
    2e4e:	00d90a33          	add	s4,s2,a3
    2e52:	01450993          	addi	s3,a0,20
    2e56:	000a2783          	lw	a5,0(s4)
    2e5a:	96ce                	add	a3,a3,s3
    2e5c:	4298                	lw	a4,0(a3)
    2e5e:	0785                	addi	a5,a5,1 # 3fe00001 <_sp+0x3fdf4091>
    2e60:	02f754b3          	divu	s1,a4,a5
    2e64:	06f76763          	bltu	a4,a5,2ed2 <quorem+0xa6>
    2e68:	834e                	mv	t1,s3
    2e6a:	88ca                	mv	a7,s2
    2e6c:	4e01                	li	t3,0
    2e6e:	4e81                	li	t4,0
    2e70:	0008a703          	lw	a4,0(a7) # 7ff00000 <_sp+0x7fef4090>
    2e74:	0891                	addi	a7,a7,4
    2e76:	0311                	addi	t1,t1,4
    2e78:	01071813          	slli	a6,a4,0x10
    2e7c:	01085813          	srli	a6,a6,0x10
    2e80:	02980833          	mul	a6,a6,s1
    2e84:	8341                	srli	a4,a4,0x10
    2e86:	02970733          	mul	a4,a4,s1
    2e8a:	9872                	add	a6,a6,t3
    2e8c:	01085793          	srli	a5,a6,0x10
    2e90:	0842                	slli	a6,a6,0x10
    2e92:	01085813          	srli	a6,a6,0x10
    2e96:	973e                	add	a4,a4,a5
    2e98:	ffc32783          	lw	a5,-4(t1)
    2e9c:	01075e13          	srli	t3,a4,0x10
    2ea0:	0742                	slli	a4,a4,0x10
    2ea2:	01079613          	slli	a2,a5,0x10
    2ea6:	8241                	srli	a2,a2,0x10
    2ea8:	41060633          	sub	a2,a2,a6
    2eac:	9676                	add	a2,a2,t4
    2eae:	8341                	srli	a4,a4,0x10
    2eb0:	83c1                	srli	a5,a5,0x10
    2eb2:	8f99                	sub	a5,a5,a4
    2eb4:	41065713          	srai	a4,a2,0x10
    2eb8:	97ba                	add	a5,a5,a4
    2eba:	0642                	slli	a2,a2,0x10
    2ebc:	4107de93          	srai	t4,a5,0x10
    2ec0:	8241                	srli	a2,a2,0x10
    2ec2:	07c2                	slli	a5,a5,0x10
    2ec4:	8fd1                	or	a5,a5,a2
    2ec6:	fef32e23          	sw	a5,-4(t1)
    2eca:	fb1a73e3          	bgeu	s4,a7,2e70 <quorem+0x44>
    2ece:	429c                	lw	a5,0(a3)
    2ed0:	cbad                	beqz	a5,2f42 <quorem+0x116>
    2ed2:	8aaa                	mv	s5,a0
    2ed4:	1ae010ef          	jal	4082 <__mcmp>
    2ed8:	04054863          	bltz	a0,2f28 <quorem+0xfc>
    2edc:	0485                	addi	s1,s1,1
    2ede:	864e                	mv	a2,s3
    2ee0:	874a                	mv	a4,s2
    2ee2:	4501                	li	a0,0
    2ee4:	430c                	lw	a1,0(a4)
    2ee6:	421c                	lw	a5,0(a2)
    2ee8:	0711                	addi	a4,a4,4
    2eea:	01059813          	slli	a6,a1,0x10
    2eee:	01079693          	slli	a3,a5,0x10
    2ef2:	82c1                	srli	a3,a3,0x10
    2ef4:	01085813          	srli	a6,a6,0x10
    2ef8:	410686b3          	sub	a3,a3,a6
    2efc:	96aa                	add	a3,a3,a0
    2efe:	81c1                	srli	a1,a1,0x10
    2f00:	83c1                	srli	a5,a5,0x10
    2f02:	8f8d                	sub	a5,a5,a1
    2f04:	4106d593          	srai	a1,a3,0x10
    2f08:	97ae                	add	a5,a5,a1
    2f0a:	06c2                	slli	a3,a3,0x10
    2f0c:	4107d513          	srai	a0,a5,0x10
    2f10:	82c1                	srli	a3,a3,0x10
    2f12:	07c2                	slli	a5,a5,0x10
    2f14:	8fd5                	or	a5,a5,a3
    2f16:	c21c                	sw	a5,0(a2)
    2f18:	0611                	addi	a2,a2,4
    2f1a:	fcea75e3          	bgeu	s4,a4,2ee4 <quorem+0xb8>
    2f1e:	00241793          	slli	a5,s0,0x2
    2f22:	97ce                	add	a5,a5,s3
    2f24:	4398                	lw	a4,0(a5)
    2f26:	c715                	beqz	a4,2f52 <quorem+0x126>
    2f28:	8526                	mv	a0,s1
    2f2a:	40f2                	lw	ra,28(sp)
    2f2c:	4462                	lw	s0,24(sp)
    2f2e:	44d2                	lw	s1,20(sp)
    2f30:	4942                	lw	s2,16(sp)
    2f32:	49b2                	lw	s3,12(sp)
    2f34:	4a22                	lw	s4,8(sp)
    2f36:	4a92                	lw	s5,4(sp)
    2f38:	6105                	addi	sp,sp,32
    2f3a:	8082                	ret
    2f3c:	429c                	lw	a5,0(a3)
    2f3e:	e789                	bnez	a5,2f48 <quorem+0x11c>
    2f40:	147d                	addi	s0,s0,-1
    2f42:	16f1                	addi	a3,a3,-4
    2f44:	fed9ece3          	bltu	s3,a3,2f3c <quorem+0x110>
    2f48:	c900                	sw	s0,16(a0)
    2f4a:	b761                	j	2ed2 <quorem+0xa6>
    2f4c:	4398                	lw	a4,0(a5)
    2f4e:	e709                	bnez	a4,2f58 <quorem+0x12c>
    2f50:	147d                	addi	s0,s0,-1
    2f52:	17f1                	addi	a5,a5,-4
    2f54:	fef9ece3          	bltu	s3,a5,2f4c <quorem+0x120>
    2f58:	008aa823          	sw	s0,16(s5)
    2f5c:	b7f1                	j	2f28 <quorem+0xfc>
    2f5e:	4501                	li	a0,0
    2f60:	b7e9                	j	2f2a <quorem+0xfe>

00002f62 <_dtoa_r>:
    2f62:	7171                	addi	sp,sp,-176
    2f64:	d14a                	sw	s2,160(sp)
    2f66:	de2e                	sw	a1,60(sp)
    2f68:	892e                	mv	s2,a1
    2f6a:	5d0c                	lw	a1,56(a0)
    2f6c:	d522                	sw	s0,168(sp)
    2f6e:	d706                	sw	ra,172(sp)
    2f70:	d326                	sw	s1,164(sp)
    2f72:	cf4e                	sw	s3,156(sp)
    2f74:	cd52                	sw	s4,152(sp)
    2f76:	cb56                	sw	s5,148(sp)
    2f78:	c95a                	sw	s6,144(sp)
    2f7a:	c75e                	sw	s7,140(sp)
    2f7c:	c562                	sw	s8,136(sp)
    2f7e:	c366                	sw	s9,132(sp)
    2f80:	c16a                	sw	s10,128(sp)
    2f82:	deee                	sw	s11,124(sp)
    2f84:	c42a                	sw	a0,8(sp)
    2f86:	cc3a                	sw	a4,24(sp)
    2f88:	da3e                	sw	a5,52(sp)
    2f8a:	d246                	sw	a7,36(sp)
    2f8c:	d632                	sw	a2,44(sp)
    2f8e:	8436                	mv	s0,a3
    2f90:	c185                	beqz	a1,2fb0 <_dtoa_r+0x4e>
    2f92:	5d58                	lw	a4,60(a0)
    2f94:	4785                	li	a5,1
    2f96:	c832                	sw	a2,16(sp)
    2f98:	00e797b3          	sll	a5,a5,a4
    2f9c:	c59c                	sw	a5,8(a1)
    2f9e:	c1d8                	sw	a4,4(a1)
    2fa0:	c642                	sw	a6,12(sp)
    2fa2:	379000ef          	jal	3b1a <_Bfree>
    2fa6:	47a2                	lw	a5,8(sp)
    2fa8:	4642                	lw	a2,16(sp)
    2faa:	4832                	lw	a6,12(sp)
    2fac:	0207ac23          	sw	zero,56(a5)
    2fb0:	89b2                	mv	s3,a2
    2fb2:	06065663          	bgez	a2,301e <_dtoa_r+0xbc>
    2fb6:	4785                	li	a5,1
    2fb8:	0606                	slli	a2,a2,0x1
    2fba:	00f82023          	sw	a5,0(a6)
    2fbe:	00165793          	srli	a5,a2,0x1
    2fc2:	d63e                	sw	a5,44(sp)
    2fc4:	89be                	mv	s3,a5
    2fc6:	7ff007b7          	lui	a5,0x7ff00
    2fca:	00f9f733          	and	a4,s3,a5
    2fce:	04f71b63          	bne	a4,a5,3024 <_dtoa_r+0xc2>
    2fd2:	5752                	lw	a4,52(sp)
    2fd4:	6789                	lui	a5,0x2
    2fd6:	09b2                	slli	s3,s3,0xc
    2fd8:	70f78793          	addi	a5,a5,1807 # 270f <__sprint_r+0x15>
    2fdc:	00c9d993          	srli	s3,s3,0xc
    2fe0:	c31c                	sw	a5,0(a4)
    2fe2:	0129e9b3          	or	s3,s3,s2
    2fe6:	2a0988e3          	beqz	s3,3a96 <_dtoa_r+0xb34>
    2fea:	5712                	lw	a4,36(sp)
    2fec:	67a1                	lui	a5,0x8
    2fee:	d4078493          	addi	s1,a5,-704 # 7d40 <crc_32_tab+0x4e8>
    2ff2:	c711                	beqz	a4,2ffe <_dtoa_r+0x9c>
    2ff4:	67a1                	lui	a5,0x8
    2ff6:	d4378793          	addi	a5,a5,-701 # 7d43 <crc_32_tab+0x4eb>
    2ffa:	5712                	lw	a4,36(sp)
    2ffc:	c31c                	sw	a5,0(a4)
    2ffe:	50ba                	lw	ra,172(sp)
    3000:	542a                	lw	s0,168(sp)
    3002:	590a                	lw	s2,160(sp)
    3004:	49fa                	lw	s3,156(sp)
    3006:	4a6a                	lw	s4,152(sp)
    3008:	4ada                	lw	s5,148(sp)
    300a:	4b4a                	lw	s6,144(sp)
    300c:	4bba                	lw	s7,140(sp)
    300e:	4c2a                	lw	s8,136(sp)
    3010:	4c9a                	lw	s9,132(sp)
    3012:	4d0a                	lw	s10,128(sp)
    3014:	5df6                	lw	s11,124(sp)
    3016:	8526                	mv	a0,s1
    3018:	549a                	lw	s1,164(sp)
    301a:	614d                	addi	sp,sp,176
    301c:	8082                	ret
    301e:	00082023          	sw	zero,0(a6)
    3022:	b755                	j	2fc6 <_dtoa_r+0x64>
    3024:	5bb2                	lw	s7,44(sp)
    3026:	4601                	li	a2,0
    3028:	4681                	li	a3,0
    302a:	854a                	mv	a0,s2
    302c:	85de                	mv	a1,s7
    302e:	8b4a                	mv	s6,s2
    3030:	ce4a                	sw	s2,28(sp)
    3032:	d05e                	sw	s7,32(sp)
    3034:	7e2030ef          	jal	6816 <__eqdf2>
    3038:	ed19                	bnez	a0,3056 <_dtoa_r+0xf4>
    303a:	5752                	lw	a4,52(sp)
    303c:	4785                	li	a5,1
    303e:	c31c                	sw	a5,0(a4)
    3040:	5792                	lw	a5,36(sp)
    3042:	c791                	beqz	a5,304e <_dtoa_r+0xec>
    3044:	5712                	lw	a4,36(sp)
    3046:	67a1                	lui	a5,0x8
    3048:	d3178793          	addi	a5,a5,-719 # 7d31 <crc_32_tab+0x4d9>
    304c:	c31c                	sw	a5,0(a4)
    304e:	67a1                	lui	a5,0x8
    3050:	d3078493          	addi	s1,a5,-720 # 7d30 <crc_32_tab+0x4d8>
    3054:	b76d                	j	2ffe <_dtoa_r+0x9c>
    3056:	4522                	lw	a0,8(sp)
    3058:	10b8                	addi	a4,sp,104
    305a:	10f4                	addi	a3,sp,108
    305c:	865e                	mv	a2,s7
    305e:	85ca                	mv	a1,s2
    3060:	2a8010ef          	jal	4308 <__d2b>
    3064:	c62a                	sw	a0,12(sp)
    3066:	0149da13          	srli	s4,s3,0x14
    306a:	5aa6                	lw	s5,104(sp)
    306c:	100a0b63          	beqz	s4,3182 <_dtoa_r+0x220>
    3070:	09b2                	slli	s3,s3,0xc
    3072:	00c9d993          	srli	s3,s3,0xc
    3076:	3ff007b7          	lui	a5,0x3ff00
    307a:	00f9e9b3          	or	s3,s3,a5
    307e:	c01a0a13          	addi	s4,s4,-1023
    3082:	dc02                	sw	zero,56(sp)
    3084:	8281a603          	lw	a2,-2008(gp) # 8c08 <__SDATA_BEGIN__+0x28>
    3088:	82c1a683          	lw	a3,-2004(gp) # 8c0c <__SDATA_BEGIN__+0x2c>
    308c:	855a                	mv	a0,s6
    308e:	85ce                	mv	a1,s3
    3090:	593030ef          	jal	6e22 <__subdf3>
    3094:	8301a603          	lw	a2,-2000(gp) # 8c10 <__SDATA_BEGIN__+0x30>
    3098:	8341a683          	lw	a3,-1996(gp) # 8c14 <__SDATA_BEGIN__+0x34>
    309c:	13d030ef          	jal	69d8 <__muldf3>
    30a0:	8381a603          	lw	a2,-1992(gp) # 8c18 <__SDATA_BEGIN__+0x38>
    30a4:	83c1a683          	lw	a3,-1988(gp) # 8c1c <__SDATA_BEGIN__+0x3c>
    30a8:	47f020ef          	jal	5d26 <__adddf3>
    30ac:	892a                	mv	s2,a0
    30ae:	8552                	mv	a0,s4
    30b0:	89ae                	mv	s3,a1
    30b2:	3ba040ef          	jal	746c <__floatsidf>
    30b6:	8401a603          	lw	a2,-1984(gp) # 8c20 <__SDATA_BEGIN__+0x40>
    30ba:	8441a683          	lw	a3,-1980(gp) # 8c24 <__SDATA_BEGIN__+0x44>
    30be:	11b030ef          	jal	69d8 <__muldf3>
    30c2:	862a                	mv	a2,a0
    30c4:	86ae                	mv	a3,a1
    30c6:	854a                	mv	a0,s2
    30c8:	85ce                	mv	a1,s3
    30ca:	45d020ef          	jal	5d26 <__adddf3>
    30ce:	8b2a                	mv	s6,a0
    30d0:	8bae                	mv	s7,a1
    30d2:	338040ef          	jal	740a <__fixdfsi>
    30d6:	89aa                	mv	s3,a0
    30d8:	4601                	li	a2,0
    30da:	4681                	li	a3,0
    30dc:	855a                	mv	a0,s6
    30de:	85de                	mv	a1,s7
    30e0:	047030ef          	jal	6926 <__ledf2>
    30e4:	00055d63          	bgez	a0,30fe <_dtoa_r+0x19c>
    30e8:	854e                	mv	a0,s3
    30ea:	382040ef          	jal	746c <__floatsidf>
    30ee:	865a                	mv	a2,s6
    30f0:	86de                	mv	a3,s7
    30f2:	724030ef          	jal	6816 <__eqdf2>
    30f6:	00a03533          	snez	a0,a0
    30fa:	40a989b3          	sub	s3,s3,a0
    30fe:	4705                	li	a4,1
    3100:	47d9                	li	a5,22
    3102:	d83a                	sw	a4,48(sp)
    3104:	0337e263          	bltu	a5,s3,3128 <_dtoa_r+0x1c6>
    3108:	6721                	lui	a4,0x8
    310a:	00399793          	slli	a5,s3,0x3
    310e:	03870713          	addi	a4,a4,56 # 8038 <__mprec_tens>
    3112:	97ba                	add	a5,a5,a4
    3114:	4390                	lw	a2,0(a5)
    3116:	43d4                	lw	a3,4(a5)
    3118:	4572                	lw	a0,28(sp)
    311a:	5582                	lw	a1,32(sp)
    311c:	00b030ef          	jal	6926 <__ledf2>
    3120:	00055363          	bgez	a0,3126 <_dtoa_r+0x1c4>
    3124:	19fd                	addi	s3,s3,-1
    3126:	d802                	sw	zero,48(sp)
    3128:	414a8ab3          	sub	s5,s5,s4
    312c:	fffa8c13          	addi	s8,s5,-1
    3130:	4b01                	li	s6,0
    3132:	000c5663          	bgez	s8,313e <_dtoa_r+0x1dc>
    3136:	4b05                	li	s6,1
    3138:	415b0b33          	sub	s6,s6,s5
    313c:	4c01                	li	s8,0
    313e:	0809c363          	bltz	s3,31c4 <_dtoa_r+0x262>
    3142:	9c4e                	add	s8,s8,s3
    3144:	d44e                	sw	s3,40(sp)
    3146:	c802                	sw	zero,16(sp)
    3148:	47a5                	li	a5,9
    314a:	0e87e163          	bltu	a5,s0,322c <_dtoa_r+0x2ca>
    314e:	4795                	li	a5,5
    3150:	4905                	li	s2,1
    3152:	0087d463          	bge	a5,s0,315a <_dtoa_r+0x1f8>
    3156:	1471                	addi	s0,s0,-4
    3158:	4901                	li	s2,0
    315a:	4791                	li	a5,4
    315c:	06f40b63          	beq	s0,a5,31d2 <_dtoa_r+0x270>
    3160:	4795                	li	a5,5
    3162:	0af40963          	beq	s0,a5,3214 <_dtoa_r+0x2b2>
    3166:	4789                	li	a5,2
    3168:	0af40463          	beq	s0,a5,3210 <_dtoa_r+0x2ae>
    316c:	478d                	li	a5,3
    316e:	ca02                	sw	zero,20(sp)
    3170:	0af40463          	beq	s0,a5,3218 <_dtoa_r+0x2b6>
    3174:	4785                	li	a5,1
    3176:	ca3e                	sw	a5,20(sp)
    3178:	5cfd                	li	s9,-1
    317a:	8be6                	mv	s7,s9
    317c:	47c9                	li	a5,18
    317e:	cc02                	sw	zero,24(sp)
    3180:	a085                	j	31e0 <_dtoa_r+0x27e>
    3182:	5a36                	lw	s4,108(sp)
    3184:	02000793          	li	a5,32
    3188:	9a56                	add	s4,s4,s5
    318a:	432a0713          	addi	a4,s4,1074
    318e:	02e7d763          	bge	a5,a4,31bc <_dtoa_r+0x25a>
    3192:	04000793          	li	a5,64
    3196:	8f99                	sub	a5,a5,a4
    3198:	00f999b3          	sll	s3,s3,a5
    319c:	412a0793          	addi	a5,s4,1042
    31a0:	00f957b3          	srl	a5,s2,a5
    31a4:	00f9e533          	or	a0,s3,a5
    31a8:	326040ef          	jal	74ce <__floatunsidf>
    31ac:	fe1009b7          	lui	s3,0xfe100
    31b0:	4785                	li	a5,1
    31b2:	8b2a                	mv	s6,a0
    31b4:	99ae                	add	s3,s3,a1
    31b6:	1a7d                	addi	s4,s4,-1
    31b8:	dc3e                	sw	a5,56(sp)
    31ba:	b5e9                	j	3084 <_dtoa_r+0x122>
    31bc:	8f99                	sub	a5,a5,a4
    31be:	00f91533          	sll	a0,s2,a5
    31c2:	b7dd                	j	31a8 <_dtoa_r+0x246>
    31c4:	413007b3          	neg	a5,s3
    31c8:	413b0b33          	sub	s6,s6,s3
    31cc:	c83e                	sw	a5,16(sp)
    31ce:	d402                	sw	zero,40(sp)
    31d0:	bfa5                	j	3148 <_dtoa_r+0x1e6>
    31d2:	4785                	li	a5,1
    31d4:	ca3e                	sw	a5,20(sp)
    31d6:	47e2                	lw	a5,24(sp)
    31d8:	04f05e63          	blez	a5,3234 <_dtoa_r+0x2d2>
    31dc:	8cbe                	mv	s9,a5
    31de:	8bbe                	mv	s7,a5
    31e0:	4581                	li	a1,0
    31e2:	4711                	li	a4,4
    31e4:	01470693          	addi	a3,a4,20
    31e8:	04d7fb63          	bgeu	a5,a3,323e <_dtoa_r+0x2dc>
    31ec:	47a2                	lw	a5,8(sp)
    31ee:	dfcc                	sw	a1,60(a5)
    31f0:	853e                	mv	a0,a5
    31f2:	0c5000ef          	jal	3ab6 <_Balloc>
    31f6:	84aa                	mv	s1,a0
    31f8:	e531                	bnez	a0,3244 <_dtoa_r+0x2e2>
    31fa:	66a1                	lui	a3,0x8
    31fc:	d4468693          	addi	a3,a3,-700 # 7d44 <crc_32_tab+0x4ec>
    3200:	4601                	li	a2,0
    3202:	1af00593          	li	a1,431
    3206:	6521                	lui	a0,0x8
    3208:	d5850513          	addi	a0,a0,-680 # 7d58 <crc_32_tab+0x500>
    320c:	005010ef          	jal	4a10 <__assert_func>
    3210:	ca02                	sw	zero,20(sp)
    3212:	b7d1                	j	31d6 <_dtoa_r+0x274>
    3214:	4785                	li	a5,1
    3216:	ca3e                	sw	a5,20(sp)
    3218:	47e2                	lw	a5,24(sp)
    321a:	00f98cb3          	add	s9,s3,a5
    321e:	001c8b93          	addi	s7,s9,1
    3222:	87de                	mv	a5,s7
    3224:	fb704ee3          	bgtz	s7,31e0 <_dtoa_r+0x27e>
    3228:	4785                	li	a5,1
    322a:	bf5d                	j	31e0 <_dtoa_r+0x27e>
    322c:	4905                	li	s2,1
    322e:	4401                	li	s0,0
    3230:	ca4a                	sw	s2,20(sp)
    3232:	b799                	j	3178 <_dtoa_r+0x216>
    3234:	4c85                	li	s9,1
    3236:	8be6                	mv	s7,s9
    3238:	87e6                	mv	a5,s9
    323a:	cc66                	sw	s9,24(sp)
    323c:	b755                	j	31e0 <_dtoa_r+0x27e>
    323e:	0585                	addi	a1,a1,1
    3240:	0706                	slli	a4,a4,0x1
    3242:	b74d                	j	31e4 <_dtoa_r+0x282>
    3244:	47a2                	lw	a5,8(sp)
    3246:	df88                	sw	a0,56(a5)
    3248:	00fbb793          	sltiu	a5,s7,15
    324c:	c7f1                	beqz	a5,3318 <_dtoa_r+0x3b6>
    324e:	0c090563          	beqz	s2,3318 <_dtoa_r+0x3b6>
    3252:	19305a63          	blez	s3,33e6 <_dtoa_r+0x484>
    3256:	00f9f793          	andi	a5,s3,15
    325a:	6721                	lui	a4,0x8
    325c:	03870713          	addi	a4,a4,56 # 8038 <__mprec_tens>
    3260:	078e                	slli	a5,a5,0x3
    3262:	97ba                	add	a5,a5,a4
    3264:	4049da13          	srai	s4,s3,0x4
    3268:	4398                	lw	a4,0(a5)
    326a:	0047ad83          	lw	s11,4(a5) # 3ff00004 <_sp+0x3fef4094>
    326e:	6921                	lui	s2,0x8
    3270:	010a7793          	andi	a5,s4,16
    3274:	12890913          	addi	s2,s2,296 # 8128 <__mprec_bigtens>
    3278:	16078363          	beqz	a5,33de <_dtoa_r+0x47c>
    327c:	02092603          	lw	a2,32(s2)
    3280:	02492683          	lw	a3,36(s2)
    3284:	4572                	lw	a0,28(sp)
    3286:	5582                	lw	a1,32(sp)
    3288:	c0ba                	sw	a4,64(sp)
    328a:	00fa7a13          	andi	s4,s4,15
    328e:	052030ef          	jal	62e0 <__divdf3>
    3292:	4706                	lw	a4,64(sp)
    3294:	882a                	mv	a6,a0
    3296:	8d2e                	mv	s10,a1
    3298:	4a8d                	li	s5,3
    329a:	100a1e63          	bnez	s4,33b6 <_dtoa_r+0x454>
    329e:	863a                	mv	a2,a4
    32a0:	85ea                	mv	a1,s10
    32a2:	86ee                	mv	a3,s11
    32a4:	8542                	mv	a0,a6
    32a6:	03a030ef          	jal	62e0 <__divdf3>
    32aa:	872a                	mv	a4,a0
    32ac:	8d2e                	mv	s10,a1
    32ae:	57c2                	lw	a5,48(sp)
    32b0:	18079c63          	bnez	a5,3448 <_dtoa_r+0x4e6>
    32b4:	8dce                	mv	s11,s3
    32b6:	895e                	mv	s2,s7
    32b8:	8556                	mv	a0,s5
    32ba:	c0ba                	sw	a4,64(sp)
    32bc:	1b0040ef          	jal	746c <__floatsidf>
    32c0:	4606                	lw	a2,64(sp)
    32c2:	86ea                	mv	a3,s10
    32c4:	fcc00a37          	lui	s4,0xfcc00
    32c8:	710030ef          	jal	69d8 <__muldf3>
    32cc:	8581a603          	lw	a2,-1960(gp) # 8c38 <__SDATA_BEGIN__+0x58>
    32d0:	85c1a683          	lw	a3,-1956(gp) # 8c3c <__SDATA_BEGIN__+0x5c>
    32d4:	253020ef          	jal	5d26 <__adddf3>
    32d8:	4706                	lw	a4,64(sp)
    32da:	8aaa                	mv	s5,a0
    32dc:	9a2e                	add	s4,s4,a1
    32de:	1a091463          	bnez	s2,3486 <_dtoa_r+0x524>
    32e2:	8601a603          	lw	a2,-1952(gp) # 8c40 <__SDATA_BEGIN__+0x60>
    32e6:	8641a683          	lw	a3,-1948(gp) # 8c44 <__SDATA_BEGIN__+0x64>
    32ea:	853a                	mv	a0,a4
    32ec:	85ea                	mv	a1,s10
    32ee:	335030ef          	jal	6e22 <__subdf3>
    32f2:	8656                	mv	a2,s5
    32f4:	86d2                	mv	a3,s4
    32f6:	c0aa                	sw	a0,64(sp)
    32f8:	c2ae                	sw	a1,68(sp)
    32fa:	57a030ef          	jal	6874 <__gedf2>
    32fe:	5aa04463          	bgtz	a0,38a6 <_dtoa_r+0x944>
    3302:	4506                	lw	a0,64(sp)
    3304:	4596                	lw	a1,68(sp)
    3306:	800007b7          	lui	a5,0x80000
    330a:	8656                	mv	a2,s5
    330c:	00fa46b3          	xor	a3,s4,a5
    3310:	616030ef          	jal	6926 <__ledf2>
    3314:	32054a63          	bltz	a0,3648 <_dtoa_r+0x6e6>
    3318:	57b6                	lw	a5,108(sp)
    331a:	3a07c363          	bltz	a5,36c0 <_dtoa_r+0x75e>
    331e:	00f9a713          	slti	a4,s3,15
    3322:	38070f63          	beqz	a4,36c0 <_dtoa_r+0x75e>
    3326:	6721                	lui	a4,0x8
    3328:	00399793          	slli	a5,s3,0x3
    332c:	03870713          	addi	a4,a4,56 # 8038 <__mprec_tens>
    3330:	97ba                	add	a5,a5,a4
    3332:	0007ad03          	lw	s10,0(a5) # 80000000 <_sp+0x7fff4090>
    3336:	0047ad83          	lw	s11,4(a5)
    333a:	01704563          	bgtz	s7,3344 <_dtoa_r+0x3e2>
    333e:	47e2                	lw	a5,24(sp)
    3340:	2e07c263          	bltz	a5,3624 <_dtoa_r+0x6c2>
    3344:	8501ac03          	lw	s8,-1968(gp) # 8c30 <__SDATA_BEGIN__+0x50>
    3348:	8541ac83          	lw	s9,-1964(gp) # 8c34 <__SDATA_BEGIN__+0x54>
    334c:	00148a93          	addi	s5,s1,1
    3350:	9ba6                	add	s7,s7,s1
    3352:	4572                	lw	a0,28(sp)
    3354:	5582                	lw	a1,32(sp)
    3356:	866a                	mv	a2,s10
    3358:	86ee                	mv	a3,s11
    335a:	787020ef          	jal	62e0 <__divdf3>
    335e:	0ac040ef          	jal	740a <__fixdfsi>
    3362:	8a2a                	mv	s4,a0
    3364:	108040ef          	jal	746c <__floatsidf>
    3368:	866a                	mv	a2,s10
    336a:	86ee                	mv	a3,s11
    336c:	66c030ef          	jal	69d8 <__muldf3>
    3370:	862a                	mv	a2,a0
    3372:	86ae                	mv	a3,a1
    3374:	4572                	lw	a0,28(sp)
    3376:	5582                	lw	a1,32(sp)
    3378:	8956                	mv	s2,s5
    337a:	2a9030ef          	jal	6e22 <__subdf3>
    337e:	030a0793          	addi	a5,s4,48 # fcc00030 <_sp+0xfcbf40c0>
    3382:	fefa8fa3          	sb	a5,-1(s5)
    3386:	862a                	mv	a2,a0
    3388:	86ae                	mv	a3,a1
    338a:	315b9d63          	bne	s7,s5,36a4 <_dtoa_r+0x742>
    338e:	199020ef          	jal	5d26 <__adddf3>
    3392:	866a                	mv	a2,s10
    3394:	86ee                	mv	a3,s11
    3396:	8aaa                	mv	s5,a0
    3398:	8b2e                	mv	s6,a1
    339a:	4da030ef          	jal	6874 <__gedf2>
    339e:	2ea04063          	bgtz	a0,367e <_dtoa_r+0x71c>
    33a2:	866a                	mv	a2,s10
    33a4:	86ee                	mv	a3,s11
    33a6:	8556                	mv	a0,s5
    33a8:	85da                	mv	a1,s6
    33aa:	46c030ef          	jal	6816 <__eqdf2>
    33ae:	2c050463          	beqz	a0,3676 <_dtoa_r+0x714>
    33b2:	8dce                	mv	s11,s3
    33b4:	a491                	j	35f8 <_dtoa_r+0x696>
    33b6:	001a7693          	andi	a3,s4,1
    33ba:	ce91                	beqz	a3,33d6 <_dtoa_r+0x474>
    33bc:	00092603          	lw	a2,0(s2)
    33c0:	00492683          	lw	a3,4(s2)
    33c4:	853a                	mv	a0,a4
    33c6:	85ee                	mv	a1,s11
    33c8:	c0c2                	sw	a6,64(sp)
    33ca:	60e030ef          	jal	69d8 <__muldf3>
    33ce:	4806                	lw	a6,64(sp)
    33d0:	0a85                	addi	s5,s5,1
    33d2:	872a                	mv	a4,a0
    33d4:	8dae                	mv	s11,a1
    33d6:	401a5a13          	srai	s4,s4,0x1
    33da:	0921                	addi	s2,s2,8
    33dc:	bd7d                	j	329a <_dtoa_r+0x338>
    33de:	4872                	lw	a6,28(sp)
    33e0:	5d02                	lw	s10,32(sp)
    33e2:	4a89                	li	s5,2
    33e4:	bd5d                	j	329a <_dtoa_r+0x338>
    33e6:	04098d63          	beqz	s3,3440 <_dtoa_r+0x4de>
    33ea:	41300933          	neg	s2,s3
    33ee:	00f97793          	andi	a5,s2,15
    33f2:	6721                	lui	a4,0x8
    33f4:	03870713          	addi	a4,a4,56 # 8038 <__mprec_tens>
    33f8:	078e                	slli	a5,a5,0x3
    33fa:	97ba                	add	a5,a5,a4
    33fc:	4390                	lw	a2,0(a5)
    33fe:	43d4                	lw	a3,4(a5)
    3400:	4572                	lw	a0,28(sp)
    3402:	5582                	lw	a1,32(sp)
    3404:	6a21                	lui	s4,0x8
    3406:	40495913          	srai	s2,s2,0x4
    340a:	5ce030ef          	jal	69d8 <__muldf3>
    340e:	872a                	mv	a4,a0
    3410:	8d2e                	mv	s10,a1
    3412:	128a0a13          	addi	s4,s4,296 # 8128 <__mprec_bigtens>
    3416:	4a89                	li	s5,2
    3418:	e8090be3          	beqz	s2,32ae <_dtoa_r+0x34c>
    341c:	00197693          	andi	a3,s2,1
    3420:	ce81                	beqz	a3,3438 <_dtoa_r+0x4d6>
    3422:	000a2603          	lw	a2,0(s4)
    3426:	004a2683          	lw	a3,4(s4)
    342a:	853a                	mv	a0,a4
    342c:	85ea                	mv	a1,s10
    342e:	5aa030ef          	jal	69d8 <__muldf3>
    3432:	0a85                	addi	s5,s5,1
    3434:	872a                	mv	a4,a0
    3436:	8d2e                	mv	s10,a1
    3438:	40195913          	srai	s2,s2,0x1
    343c:	0a21                	addi	s4,s4,8
    343e:	bfe9                	j	3418 <_dtoa_r+0x4b6>
    3440:	4772                	lw	a4,28(sp)
    3442:	5d02                	lw	s10,32(sp)
    3444:	4a89                	li	s5,2
    3446:	b5a5                	j	32ae <_dtoa_r+0x34c>
    3448:	8481a603          	lw	a2,-1976(gp) # 8c28 <__SDATA_BEGIN__+0x48>
    344c:	84c1a683          	lw	a3,-1972(gp) # 8c2c <__SDATA_BEGIN__+0x4c>
    3450:	853a                	mv	a0,a4
    3452:	85ea                	mv	a1,s10
    3454:	c0ba                	sw	a4,64(sp)
    3456:	4d0030ef          	jal	6926 <__ledf2>
    345a:	4706                	lw	a4,64(sp)
    345c:	e4055ce3          	bgez	a0,32b4 <_dtoa_r+0x352>
    3460:	e40b8ae3          	beqz	s7,32b4 <_dtoa_r+0x352>
    3464:	eb905ae3          	blez	s9,3318 <_dtoa_r+0x3b6>
    3468:	8501a603          	lw	a2,-1968(gp) # 8c30 <__SDATA_BEGIN__+0x50>
    346c:	8541a683          	lw	a3,-1964(gp) # 8c34 <__SDATA_BEGIN__+0x54>
    3470:	853a                	mv	a0,a4
    3472:	85ea                	mv	a1,s10
    3474:	564030ef          	jal	69d8 <__muldf3>
    3478:	fff98d93          	addi	s11,s3,-1 # fe0fffff <_sp+0xfe0f408f>
    347c:	872a                	mv	a4,a0
    347e:	8d2e                	mv	s10,a1
    3480:	0a85                	addi	s5,s5,1
    3482:	8966                	mv	s2,s9
    3484:	bd15                	j	32b8 <_dtoa_r+0x356>
    3486:	fff90693          	addi	a3,s2,-1
    348a:	6621                	lui	a2,0x8
    348c:	47d2                	lw	a5,20(sp)
    348e:	068e                	slli	a3,a3,0x3
    3490:	03860613          	addi	a2,a2,56 # 8038 <__mprec_tens>
    3494:	96b2                	add	a3,a3,a2
    3496:	c4ba                	sw	a4,72(sp)
    3498:	4288                	lw	a0,0(a3)
    349a:	42cc                	lw	a1,4(a3)
    349c:	cfc5                	beqz	a5,3554 <_dtoa_r+0x5f2>
    349e:	86ae                	mv	a3,a1
    34a0:	862a                	mv	a2,a0
    34a2:	8181a503          	lw	a0,-2024(gp) # 8bf8 <__SDATA_BEGIN__+0x18>
    34a6:	81c1a583          	lw	a1,-2020(gp) # 8bfc <__SDATA_BEGIN__+0x1c>
    34aa:	637020ef          	jal	62e0 <__divdf3>
    34ae:	86d2                	mv	a3,s4
    34b0:	8656                	mv	a2,s5
    34b2:	171030ef          	jal	6e22 <__subdf3>
    34b6:	012487b3          	add	a5,s1,s2
    34ba:	84c1a803          	lw	a6,-1972(gp) # 8c2c <__SDATA_BEGIN__+0x4c>
    34be:	ccbe                	sw	a5,88(sp)
    34c0:	8481a783          	lw	a5,-1976(gp) # 8c28 <__SDATA_BEGIN__+0x48>
    34c4:	cac2                	sw	a6,84(sp)
    34c6:	c8be                	sw	a5,80(sp)
    34c8:	8541a803          	lw	a6,-1964(gp) # 8c34 <__SDATA_BEGIN__+0x54>
    34cc:	8501a783          	lw	a5,-1968(gp) # 8c30 <__SDATA_BEGIN__+0x50>
    34d0:	4726                	lw	a4,72(sp)
    34d2:	8aaa                	mv	s5,a0
    34d4:	8a2e                	mv	s4,a1
    34d6:	8926                	mv	s2,s1
    34d8:	c0be                	sw	a5,64(sp)
    34da:	c2c2                	sw	a6,68(sp)
    34dc:	853a                	mv	a0,a4
    34de:	85ea                	mv	a1,s10
    34e0:	c4ba                	sw	a4,72(sp)
    34e2:	729030ef          	jal	740a <__fixdfsi>
    34e6:	ceaa                	sw	a0,92(sp)
    34e8:	785030ef          	jal	746c <__floatsidf>
    34ec:	862a                	mv	a2,a0
    34ee:	4526                	lw	a0,72(sp)
    34f0:	86ae                	mv	a3,a1
    34f2:	85ea                	mv	a1,s10
    34f4:	12f030ef          	jal	6e22 <__subdf3>
    34f8:	47f6                	lw	a5,92(sp)
    34fa:	0905                	addi	s2,s2,1
    34fc:	8656                	mv	a2,s5
    34fe:	03078793          	addi	a5,a5,48
    3502:	fef90fa3          	sb	a5,-1(s2)
    3506:	86d2                	mv	a3,s4
    3508:	c4aa                	sw	a0,72(sp)
    350a:	c6ae                	sw	a1,76(sp)
    350c:	41a030ef          	jal	6926 <__ledf2>
    3510:	0e054463          	bltz	a0,35f8 <_dtoa_r+0x696>
    3514:	4626                	lw	a2,72(sp)
    3516:	46b6                	lw	a3,76(sp)
    3518:	4546                	lw	a0,80(sp)
    351a:	45d6                	lw	a1,84(sp)
    351c:	107030ef          	jal	6e22 <__subdf3>
    3520:	8656                	mv	a2,s5
    3522:	86d2                	mv	a3,s4
    3524:	402030ef          	jal	6926 <__ledf2>
    3528:	14054c63          	bltz	a0,3680 <_dtoa_r+0x71e>
    352c:	47e6                	lw	a5,88(sp)
    352e:	def905e3          	beq	s2,a5,3318 <_dtoa_r+0x3b6>
    3532:	4606                	lw	a2,64(sp)
    3534:	4696                	lw	a3,68(sp)
    3536:	8556                	mv	a0,s5
    3538:	85d2                	mv	a1,s4
    353a:	49e030ef          	jal	69d8 <__muldf3>
    353e:	4606                	lw	a2,64(sp)
    3540:	4696                	lw	a3,68(sp)
    3542:	8aaa                	mv	s5,a0
    3544:	8a2e                	mv	s4,a1
    3546:	4526                	lw	a0,72(sp)
    3548:	45b6                	lw	a1,76(sp)
    354a:	48e030ef          	jal	69d8 <__muldf3>
    354e:	872a                	mv	a4,a0
    3550:	8d2e                	mv	s10,a1
    3552:	b769                	j	34dc <_dtoa_r+0x57a>
    3554:	8656                	mv	a2,s5
    3556:	86d2                	mv	a3,s4
    3558:	480030ef          	jal	69d8 <__muldf3>
    355c:	012487b3          	add	a5,s1,s2
    3560:	8541a803          	lw	a6,-1964(gp) # 8c34 <__SDATA_BEGIN__+0x54>
    3564:	ccbe                	sw	a5,88(sp)
    3566:	8501a783          	lw	a5,-1968(gp) # 8c30 <__SDATA_BEGIN__+0x50>
    356a:	4726                	lw	a4,72(sp)
    356c:	c0aa                	sw	a0,64(sp)
    356e:	c2ae                	sw	a1,68(sp)
    3570:	8aa6                	mv	s5,s1
    3572:	c8be                	sw	a5,80(sp)
    3574:	cac2                	sw	a6,84(sp)
    3576:	853a                	mv	a0,a4
    3578:	85ea                	mv	a1,s10
    357a:	c4ba                	sw	a4,72(sp)
    357c:	68f030ef          	jal	740a <__fixdfsi>
    3580:	03050a13          	addi	s4,a0,48
    3584:	6e9030ef          	jal	746c <__floatsidf>
    3588:	862a                	mv	a2,a0
    358a:	4526                	lw	a0,72(sp)
    358c:	86ae                	mv	a3,a1
    358e:	85ea                	mv	a1,s10
    3590:	093030ef          	jal	6e22 <__subdf3>
    3594:	47e6                	lw	a5,88(sp)
    3596:	0a85                	addi	s5,s5,1
    3598:	c4aa                	sw	a0,72(sp)
    359a:	c6ae                	sw	a1,76(sp)
    359c:	ff4a8fa3          	sb	s4,-1(s5)
    35a0:	06fa9b63          	bne	s5,a5,3616 <_dtoa_r+0x6b4>
    35a4:	8181a603          	lw	a2,-2024(gp) # 8bf8 <__SDATA_BEGIN__+0x18>
    35a8:	81c1a683          	lw	a3,-2020(gp) # 8bfc <__SDATA_BEGIN__+0x1c>
    35ac:	4506                	lw	a0,64(sp)
    35ae:	4596                	lw	a1,68(sp)
    35b0:	9926                	add	s2,s2,s1
    35b2:	774020ef          	jal	5d26 <__adddf3>
    35b6:	862a                	mv	a2,a0
    35b8:	86ae                	mv	a3,a1
    35ba:	4526                	lw	a0,72(sp)
    35bc:	45b6                	lw	a1,76(sp)
    35be:	2b6030ef          	jal	6874 <__gedf2>
    35c2:	0aa04f63          	bgtz	a0,3680 <_dtoa_r+0x71e>
    35c6:	4606                	lw	a2,64(sp)
    35c8:	4696                	lw	a3,68(sp)
    35ca:	8181a503          	lw	a0,-2024(gp) # 8bf8 <__SDATA_BEGIN__+0x18>
    35ce:	81c1a583          	lw	a1,-2020(gp) # 8bfc <__SDATA_BEGIN__+0x1c>
    35d2:	051030ef          	jal	6e22 <__subdf3>
    35d6:	862a                	mv	a2,a0
    35d8:	86ae                	mv	a3,a1
    35da:	4526                	lw	a0,72(sp)
    35dc:	45b6                	lw	a1,76(sp)
    35de:	348030ef          	jal	6926 <__ledf2>
    35e2:	d2055be3          	bgez	a0,3318 <_dtoa_r+0x3b6>
    35e6:	03000713          	li	a4,48
    35ea:	87ca                	mv	a5,s2
    35ec:	fff94683          	lbu	a3,-1(s2)
    35f0:	197d                	addi	s2,s2,-1
    35f2:	fee68ce3          	beq	a3,a4,35ea <_dtoa_r+0x688>
    35f6:	893e                	mv	s2,a5
    35f8:	45b2                	lw	a1,12(sp)
    35fa:	4522                	lw	a0,8(sp)
    35fc:	2b39                	jal	3b1a <_Bfree>
    35fe:	5752                	lw	a4,52(sp)
    3600:	001d8793          	addi	a5,s11,1
    3604:	00090023          	sb	zero,0(s2)
    3608:	c31c                	sw	a5,0(a4)
    360a:	5792                	lw	a5,36(sp)
    360c:	9e0789e3          	beqz	a5,2ffe <_dtoa_r+0x9c>
    3610:	0127a023          	sw	s2,0(a5)
    3614:	b2ed                	j	2ffe <_dtoa_r+0x9c>
    3616:	4646                	lw	a2,80(sp)
    3618:	46d6                	lw	a3,84(sp)
    361a:	3be030ef          	jal	69d8 <__muldf3>
    361e:	872a                	mv	a4,a0
    3620:	8d2e                	mv	s10,a1
    3622:	bf91                	j	3576 <_dtoa_r+0x614>
    3624:	020b9263          	bnez	s7,3648 <_dtoa_r+0x6e6>
    3628:	8601a603          	lw	a2,-1952(gp) # 8c40 <__SDATA_BEGIN__+0x60>
    362c:	8641a683          	lw	a3,-1948(gp) # 8c44 <__SDATA_BEGIN__+0x64>
    3630:	856a                	mv	a0,s10
    3632:	85ee                	mv	a1,s11
    3634:	3a4030ef          	jal	69d8 <__muldf3>
    3638:	862a                	mv	a2,a0
    363a:	86ae                	mv	a3,a1
    363c:	4572                	lw	a0,28(sp)
    363e:	5582                	lw	a1,32(sp)
    3640:	2e6030ef          	jal	6926 <__ledf2>
    3644:	26a04063          	bgtz	a0,38a4 <_dtoa_r+0x942>
    3648:	4a81                	li	s5,0
    364a:	4a01                	li	s4,0
    364c:	47e2                	lw	a5,24(sp)
    364e:	8926                	mv	s2,s1
    3650:	fff7cd93          	not	s11,a5
    3654:	4b01                	li	s6,0
    3656:	4522                	lw	a0,8(sp)
    3658:	85d6                	mv	a1,s5
    365a:	21c1                	jal	3b1a <_Bfree>
    365c:	f80a0ee3          	beqz	s4,35f8 <_dtoa_r+0x696>
    3660:	014b0763          	beq	s6,s4,366e <_dtoa_r+0x70c>
    3664:	000b0563          	beqz	s6,366e <_dtoa_r+0x70c>
    3668:	4522                	lw	a0,8(sp)
    366a:	85da                	mv	a1,s6
    366c:	217d                	jal	3b1a <_Bfree>
    366e:	4522                	lw	a0,8(sp)
    3670:	85d2                	mv	a1,s4
    3672:	2165                	jal	3b1a <_Bfree>
    3674:	b751                	j	35f8 <_dtoa_r+0x696>
    3676:	001a7a13          	andi	s4,s4,1
    367a:	d20a0ce3          	beqz	s4,33b2 <_dtoa_r+0x450>
    367e:	8dce                	mv	s11,s3
    3680:	87ca                	mv	a5,s2
    3682:	03900693          	li	a3,57
    3686:	893e                	mv	s2,a5
    3688:	fff7c703          	lbu	a4,-1(a5)
    368c:	17fd                	addi	a5,a5,-1
    368e:	00d71763          	bne	a4,a3,369c <_dtoa_r+0x73a>
    3692:	fef49ae3          	bne	s1,a5,3686 <_dtoa_r+0x724>
    3696:	0d85                	addi	s11,s11,1
    3698:	03000713          	li	a4,48
    369c:	0705                	addi	a4,a4,1
    369e:	00e78023          	sb	a4,0(a5)
    36a2:	bf99                	j	35f8 <_dtoa_r+0x696>
    36a4:	8662                	mv	a2,s8
    36a6:	86e6                	mv	a3,s9
    36a8:	330030ef          	jal	69d8 <__muldf3>
    36ac:	4601                	li	a2,0
    36ae:	4681                	li	a3,0
    36b0:	ce2a                	sw	a0,28(sp)
    36b2:	d02e                	sw	a1,32(sp)
    36b4:	0a85                	addi	s5,s5,1
    36b6:	160030ef          	jal	6816 <__eqdf2>
    36ba:	c8051ce3          	bnez	a0,3352 <_dtoa_r+0x3f0>
    36be:	b9d5                	j	33b2 <_dtoa_r+0x450>
    36c0:	4752                	lw	a4,20(sp)
    36c2:	16070f63          	beqz	a4,3840 <_dtoa_r+0x8de>
    36c6:	4705                	li	a4,1
    36c8:	14874163          	blt	a4,s0,380a <_dtoa_r+0x8a8>
    36cc:	5762                	lw	a4,56(sp)
    36ce:	43378793          	addi	a5,a5,1075
    36d2:	e709                	bnez	a4,36dc <_dtoa_r+0x77a>
    36d4:	5726                	lw	a4,104(sp)
    36d6:	03600793          	li	a5,54
    36da:	8f99                	sub	a5,a5,a4
    36dc:	4ac2                	lw	s5,16(sp)
    36de:	895a                	mv	s2,s6
    36e0:	4522                	lw	a0,8(sp)
    36e2:	4585                	li	a1,1
    36e4:	9b3e                	add	s6,s6,a5
    36e6:	9c3e                	add	s8,s8,a5
    36e8:	2db1                	jal	3d44 <__i2b>
    36ea:	8a2a                	mv	s4,a0
    36ec:	00090e63          	beqz	s2,3708 <_dtoa_r+0x7a6>
    36f0:	01805c63          	blez	s8,3708 <_dtoa_r+0x7a6>
    36f4:	87ca                	mv	a5,s2
    36f6:	012c5363          	bge	s8,s2,36fc <_dtoa_r+0x79a>
    36fa:	87e2                	mv	a5,s8
    36fc:	40fb0b33          	sub	s6,s6,a5
    3700:	40f90933          	sub	s2,s2,a5
    3704:	40fc0c33          	sub	s8,s8,a5
    3708:	47c2                	lw	a5,16(sp)
    370a:	cf9d                	beqz	a5,3748 <_dtoa_r+0x7e6>
    370c:	47d2                	lw	a5,20(sp)
    370e:	12078d63          	beqz	a5,3848 <_dtoa_r+0x8e6>
    3712:	4db2                	lw	s11,12(sp)
    3714:	020a8563          	beqz	s5,373e <_dtoa_r+0x7dc>
    3718:	4522                	lw	a0,8(sp)
    371a:	85d2                	mv	a1,s4
    371c:	8656                	mv	a2,s5
    371e:	2fe9                	jal	3ef8 <__pow5mult>
    3720:	85aa                	mv	a1,a0
    3722:	4632                	lw	a2,12(sp)
    3724:	8a2a                	mv	s4,a0
    3726:	4522                	lw	a0,8(sp)
    3728:	25b9                	jal	3d76 <__multiply>
    372a:	8daa                	mv	s11,a0
    372c:	45b2                	lw	a1,12(sp)
    372e:	4522                	lw	a0,8(sp)
    3730:	26ed                	jal	3b1a <_Bfree>
    3732:	47c2                	lw	a5,16(sp)
    3734:	c66e                	sw	s11,12(sp)
    3736:	415787b3          	sub	a5,a5,s5
    373a:	c83e                	sw	a5,16(sp)
    373c:	c791                	beqz	a5,3748 <_dtoa_r+0x7e6>
    373e:	4642                	lw	a2,16(sp)
    3740:	85ee                	mv	a1,s11
    3742:	4522                	lw	a0,8(sp)
    3744:	2f55                	jal	3ef8 <__pow5mult>
    3746:	c62a                	sw	a0,12(sp)
    3748:	4522                	lw	a0,8(sp)
    374a:	4585                	li	a1,1
    374c:	2be5                	jal	3d44 <__i2b>
    374e:	57a2                	lw	a5,40(sp)
    3750:	8aaa                	mv	s5,a0
    3752:	34078d63          	beqz	a5,3aac <_dtoa_r+0xb4a>
    3756:	85aa                	mv	a1,a0
    3758:	4522                	lw	a0,8(sp)
    375a:	863e                	mv	a2,a5
    375c:	4d01                	li	s10,0
    375e:	2f69                	jal	3ef8 <__pow5mult>
    3760:	4785                	li	a5,1
    3762:	8aaa                	mv	s5,a0
    3764:	0087c963          	blt	a5,s0,3776 <_dtoa_r+0x814>
    3768:	57f2                	lw	a5,60(sp)
    376a:	0e078263          	beqz	a5,384e <_dtoa_r+0x8ec>
    376e:	4d01                	li	s10,0
    3770:	57a2                	lw	a5,40(sp)
    3772:	4505                	li	a0,1
    3774:	cf81                	beqz	a5,378c <_dtoa_r+0x82a>
    3776:	010aa783          	lw	a5,16(s5)
    377a:	078d                	addi	a5,a5,3
    377c:	078a                	slli	a5,a5,0x2
    377e:	97d6                	add	a5,a5,s5
    3780:	43c8                	lw	a0,4(a5)
    3782:	2b09                	jal	3c94 <__hi0bits>
    3784:	02000793          	li	a5,32
    3788:	40a78533          	sub	a0,a5,a0
    378c:	9562                	add	a0,a0,s8
    378e:	897d                	andi	a0,a0,31
    3790:	0e050463          	beqz	a0,3878 <_dtoa_r+0x916>
    3794:	476d                	li	a4,27
    3796:	47f1                	li	a5,28
    3798:	0ca74a63          	blt	a4,a0,386c <_dtoa_r+0x90a>
    379c:	8f89                	sub	a5,a5,a0
    379e:	9b3e                	add	s6,s6,a5
    37a0:	993e                	add	s2,s2,a5
    37a2:	9c3e                	add	s8,s8,a5
    37a4:	01605763          	blez	s6,37b2 <_dtoa_r+0x850>
    37a8:	45b2                	lw	a1,12(sp)
    37aa:	4522                	lw	a0,8(sp)
    37ac:	865a                	mv	a2,s6
    37ae:	27c5                	jal	3f8e <__lshift>
    37b0:	c62a                	sw	a0,12(sp)
    37b2:	01805763          	blez	s8,37c0 <_dtoa_r+0x85e>
    37b6:	4522                	lw	a0,8(sp)
    37b8:	85d6                	mv	a1,s5
    37ba:	8662                	mv	a2,s8
    37bc:	2fc9                	jal	3f8e <__lshift>
    37be:	8aaa                	mv	s5,a0
    37c0:	57c2                	lw	a5,48(sp)
    37c2:	c799                	beqz	a5,37d0 <_dtoa_r+0x86e>
    37c4:	4532                	lw	a0,12(sp)
    37c6:	85d6                	mv	a1,s5
    37c8:	0bb000ef          	jal	4082 <__mcmp>
    37cc:	0a054b63          	bltz	a0,3882 <_dtoa_r+0x920>
    37d0:	8dce                	mv	s11,s3
    37d2:	8cde                	mv	s9,s7
    37d4:	0d904c63          	bgtz	s9,38ac <_dtoa_r+0x94a>
    37d8:	00342793          	slti	a5,s0,3
    37dc:	ebe1                	bnez	a5,38ac <_dtoa_r+0x94a>
    37de:	e60c97e3          	bnez	s9,364c <_dtoa_r+0x6ea>
    37e2:	4522                	lw	a0,8(sp)
    37e4:	85d6                	mv	a1,s5
    37e6:	4681                	li	a3,0
    37e8:	4615                	li	a2,5
    37ea:	2689                	jal	3b2c <__multadd>
    37ec:	8aaa                	mv	s5,a0
    37ee:	85aa                	mv	a1,a0
    37f0:	4532                	lw	a0,12(sp)
    37f2:	091000ef          	jal	4082 <__mcmp>
    37f6:	e4a05be3          	blez	a0,364c <_dtoa_r+0x6ea>
    37fa:	03100793          	li	a5,49
    37fe:	00148913          	addi	s2,s1,1
    3802:	00f48023          	sb	a5,0(s1)
    3806:	0d85                	addi	s11,s11,1
    3808:	b5b1                	j	3654 <_dtoa_r+0x6f2>
    380a:	47c2                	lw	a5,16(sp)
    380c:	fffb8a93          	addi	s5,s7,-1
    3810:	0157c963          	blt	a5,s5,3822 <_dtoa_r+0x8c0>
    3814:	41578ab3          	sub	s5,a5,s5
    3818:	020bc063          	bltz	s7,3838 <_dtoa_r+0x8d6>
    381c:	895a                	mv	s2,s6
    381e:	87de                	mv	a5,s7
    3820:	b5c1                	j	36e0 <_dtoa_r+0x77e>
    3822:	47c2                	lw	a5,16(sp)
    3824:	5722                	lw	a4,40(sp)
    3826:	c856                	sw	s5,16(sp)
    3828:	40fa87b3          	sub	a5,s5,a5
    382c:	97ba                	add	a5,a5,a4
    382e:	d43e                	sw	a5,40(sp)
    3830:	895a                	mv	s2,s6
    3832:	87de                	mv	a5,s7
    3834:	4a81                	li	s5,0
    3836:	b56d                	j	36e0 <_dtoa_r+0x77e>
    3838:	417b0933          	sub	s2,s6,s7
    383c:	4781                	li	a5,0
    383e:	b54d                	j	36e0 <_dtoa_r+0x77e>
    3840:	4ac2                	lw	s5,16(sp)
    3842:	895a                	mv	s2,s6
    3844:	4a01                	li	s4,0
    3846:	b55d                	j	36ec <_dtoa_r+0x78a>
    3848:	4642                	lw	a2,16(sp)
    384a:	45b2                	lw	a1,12(sp)
    384c:	bddd                	j	3742 <_dtoa_r+0x7e0>
    384e:	57b2                	lw	a5,44(sp)
    3850:	07b2                	slli	a5,a5,0xc
    3852:	f0079ee3          	bnez	a5,376e <_dtoa_r+0x80c>
    3856:	5732                	lw	a4,44(sp)
    3858:	01475793          	srli	a5,a4,0x14
    385c:	7ff7f793          	andi	a5,a5,2047
    3860:	f00787e3          	beqz	a5,376e <_dtoa_r+0x80c>
    3864:	0b05                	addi	s6,s6,1
    3866:	0c05                	addi	s8,s8,1
    3868:	4d05                	li	s10,1
    386a:	b719                	j	3770 <_dtoa_r+0x80e>
    386c:	f2f50ce3          	beq	a0,a5,37a4 <_dtoa_r+0x842>
    3870:	02000793          	li	a5,32
    3874:	40a78533          	sub	a0,a5,a0
    3878:	0571                	addi	a0,a0,28
    387a:	9b2a                	add	s6,s6,a0
    387c:	992a                	add	s2,s2,a0
    387e:	9c2a                	add	s8,s8,a0
    3880:	b715                	j	37a4 <_dtoa_r+0x842>
    3882:	45b2                	lw	a1,12(sp)
    3884:	4522                	lw	a0,8(sp)
    3886:	4681                	li	a3,0
    3888:	4629                	li	a2,10
    388a:	244d                	jal	3b2c <__multadd>
    388c:	47d2                	lw	a5,20(sp)
    388e:	c62a                	sw	a0,12(sp)
    3890:	fff98d93          	addi	s11,s3,-1
    3894:	d3a1                	beqz	a5,37d4 <_dtoa_r+0x872>
    3896:	4522                	lw	a0,8(sp)
    3898:	85d2                	mv	a1,s4
    389a:	4681                	li	a3,0
    389c:	4629                	li	a2,10
    389e:	2479                	jal	3b2c <__multadd>
    38a0:	8a2a                	mv	s4,a0
    38a2:	bf0d                	j	37d4 <_dtoa_r+0x872>
    38a4:	8dce                	mv	s11,s3
    38a6:	4a81                	li	s5,0
    38a8:	4a01                	li	s4,0
    38aa:	bf81                	j	37fa <_dtoa_r+0x898>
    38ac:	47d2                	lw	a5,20(sp)
    38ae:	16078763          	beqz	a5,3a1c <_dtoa_r+0xaba>
    38b2:	01205763          	blez	s2,38c0 <_dtoa_r+0x95e>
    38b6:	4522                	lw	a0,8(sp)
    38b8:	85d2                	mv	a1,s4
    38ba:	864a                	mv	a2,s2
    38bc:	2dc9                	jal	3f8e <__lshift>
    38be:	8a2a                	mv	s4,a0
    38c0:	8552                	mv	a0,s4
    38c2:	020d0d63          	beqz	s10,38fc <_dtoa_r+0x99a>
    38c6:	004a2583          	lw	a1,4(s4)
    38ca:	4522                	lw	a0,8(sp)
    38cc:	22ed                	jal	3ab6 <_Balloc>
    38ce:	892a                	mv	s2,a0
    38d0:	e909                	bnez	a0,38e2 <_dtoa_r+0x980>
    38d2:	66a1                	lui	a3,0x8
    38d4:	d4468693          	addi	a3,a3,-700 # 7d44 <crc_32_tab+0x4ec>
    38d8:	4601                	li	a2,0
    38da:	2ef00593          	li	a1,751
    38de:	929ff06f          	j	3206 <_dtoa_r+0x2a4>
    38e2:	010a2603          	lw	a2,16(s4)
    38e6:	00ca0593          	addi	a1,s4,12
    38ea:	0531                	addi	a0,a0,12
    38ec:	0609                	addi	a2,a2,2
    38ee:	060a                	slli	a2,a2,0x2
    38f0:	c8cff0ef          	jal	2d7c <memcpy>
    38f4:	4522                	lw	a0,8(sp)
    38f6:	4605                	li	a2,1
    38f8:	85ca                	mv	a1,s2
    38fa:	2d51                	jal	3f8e <__lshift>
    38fc:	009c87b3          	add	a5,s9,s1
    3900:	cc3e                	sw	a5,24(sp)
    3902:	57f2                	lw	a5,60(sp)
    3904:	8b52                	mv	s6,s4
    3906:	00148c13          	addi	s8,s1,1
    390a:	8b85                	andi	a5,a5,1
    390c:	8a2a                	mv	s4,a0
    390e:	c83e                	sw	a5,16(sp)
    3910:	4532                	lw	a0,12(sp)
    3912:	85d6                	mv	a1,s5
    3914:	fffc0c93          	addi	s9,s8,-1
    3918:	d14ff0ef          	jal	2e2c <quorem>
    391c:	8d2a                	mv	s10,a0
    391e:	03050993          	addi	s3,a0,48
    3922:	4532                	lw	a0,12(sp)
    3924:	85da                	mv	a1,s6
    3926:	2fb1                	jal	4082 <__mcmp>
    3928:	8baa                	mv	s7,a0
    392a:	4522                	lw	a0,8(sp)
    392c:	85d6                	mv	a1,s5
    392e:	8652                	mv	a2,s4
    3930:	2761                	jal	40b8 <__mdiff>
    3932:	4554                	lw	a3,12(a0)
    3934:	4752                	lw	a4,20(sp)
    3936:	85aa                	mv	a1,a0
    3938:	e691                	bnez	a3,3944 <_dtoa_r+0x9e2>
    393a:	ce2a                	sw	a0,28(sp)
    393c:	4532                	lw	a0,12(sp)
    393e:	2791                	jal	4082 <__mcmp>
    3940:	45f2                	lw	a1,28(sp)
    3942:	872a                	mv	a4,a0
    3944:	4522                	lw	a0,8(sp)
    3946:	ce3a                	sw	a4,28(sp)
    3948:	8962                	mv	s2,s8
    394a:	2ac1                	jal	3b1a <_Bfree>
    394c:	4772                	lw	a4,28(sp)
    394e:	47c2                	lw	a5,16(sp)
    3950:	008766b3          	or	a3,a4,s0
    3954:	8edd                	or	a3,a3,a5
    3956:	ee81                	bnez	a3,396e <_dtoa_r+0xa0c>
    3958:	03900713          	li	a4,57
    395c:	04e98563          	beq	s3,a4,39a6 <_dtoa_r+0xa44>
    3960:	01705463          	blez	s7,3968 <_dtoa_r+0xa06>
    3964:	031d0993          	addi	s3,s10,49
    3968:	013c8023          	sb	s3,0(s9)
    396c:	b1ed                	j	3656 <_dtoa_r+0x6f4>
    396e:	000bc963          	bltz	s7,3980 <_dtoa_r+0xa1e>
    3972:	47c2                	lw	a5,16(sp)
    3974:	008bebb3          	or	s7,s7,s0
    3978:	00fbebb3          	or	s7,s7,a5
    397c:	040b9663          	bnez	s7,39c8 <_dtoa_r+0xa66>
    3980:	fee054e3          	blez	a4,3968 <_dtoa_r+0xa06>
    3984:	45b2                	lw	a1,12(sp)
    3986:	4522                	lw	a0,8(sp)
    3988:	4605                	li	a2,1
    398a:	2511                	jal	3f8e <__lshift>
    398c:	85d6                	mv	a1,s5
    398e:	c62a                	sw	a0,12(sp)
    3990:	2dcd                	jal	4082 <__mcmp>
    3992:	00a04663          	bgtz	a0,399e <_dtoa_r+0xa3c>
    3996:	f969                	bnez	a0,3968 <_dtoa_r+0xa06>
    3998:	0019f713          	andi	a4,s3,1
    399c:	d771                	beqz	a4,3968 <_dtoa_r+0xa06>
    399e:	03900713          	li	a4,57
    39a2:	fce991e3          	bne	s3,a4,3964 <_dtoa_r+0xa02>
    39a6:	03900793          	li	a5,57
    39aa:	00fc8023          	sb	a5,0(s9)
    39ae:	87ca                	mv	a5,s2
    39b0:	03900693          	li	a3,57
    39b4:	893e                	mv	s2,a5
    39b6:	fff94703          	lbu	a4,-1(s2)
    39ba:	17fd                	addi	a5,a5,-1
    39bc:	0cd70563          	beq	a4,a3,3a86 <_dtoa_r+0xb24>
    39c0:	0705                	addi	a4,a4,1
    39c2:	00e78023          	sb	a4,0(a5)
    39c6:	b941                	j	3656 <_dtoa_r+0x6f4>
    39c8:	00e05b63          	blez	a4,39de <_dtoa_r+0xa7c>
    39cc:	03900713          	li	a4,57
    39d0:	fce98be3          	beq	s3,a4,39a6 <_dtoa_r+0xa44>
    39d4:	00198793          	addi	a5,s3,1
    39d8:	00fc8023          	sb	a5,0(s9)
    39dc:	b9ad                	j	3656 <_dtoa_r+0x6f4>
    39de:	47e2                	lw	a5,24(sp)
    39e0:	ff3c0fa3          	sb	s3,-1(s8)
    39e4:	07878a63          	beq	a5,s8,3a58 <_dtoa_r+0xaf6>
    39e8:	45b2                	lw	a1,12(sp)
    39ea:	4522                	lw	a0,8(sp)
    39ec:	4681                	li	a3,0
    39ee:	4629                	li	a2,10
    39f0:	2a35                	jal	3b2c <__multadd>
    39f2:	c62a                	sw	a0,12(sp)
    39f4:	4681                	li	a3,0
    39f6:	4522                	lw	a0,8(sp)
    39f8:	4629                	li	a2,10
    39fa:	85da                	mv	a1,s6
    39fc:	014b1763          	bne	s6,s4,3a0a <_dtoa_r+0xaa8>
    3a00:	2235                	jal	3b2c <__multadd>
    3a02:	8b2a                	mv	s6,a0
    3a04:	8a2a                	mv	s4,a0
    3a06:	0c05                	addi	s8,s8,1
    3a08:	b721                	j	3910 <_dtoa_r+0x9ae>
    3a0a:	220d                	jal	3b2c <__multadd>
    3a0c:	8b2a                	mv	s6,a0
    3a0e:	4522                	lw	a0,8(sp)
    3a10:	85d2                	mv	a1,s4
    3a12:	4681                	li	a3,0
    3a14:	4629                	li	a2,10
    3a16:	2a19                	jal	3b2c <__multadd>
    3a18:	8a2a                	mv	s4,a0
    3a1a:	b7f5                	j	3a06 <_dtoa_r+0xaa4>
    3a1c:	4901                	li	s2,0
    3a1e:	4532                	lw	a0,12(sp)
    3a20:	85d6                	mv	a1,s5
    3a22:	c0aff0ef          	jal	2e2c <quorem>
    3a26:	01248733          	add	a4,s1,s2
    3a2a:	03050993          	addi	s3,a0,48
    3a2e:	01370023          	sb	s3,0(a4)
    3a32:	0905                	addi	s2,s2,1
    3a34:	01995963          	bge	s2,s9,3a46 <_dtoa_r+0xae4>
    3a38:	45b2                	lw	a1,12(sp)
    3a3a:	4522                	lw	a0,8(sp)
    3a3c:	4681                	li	a3,0
    3a3e:	4629                	li	a2,10
    3a40:	20f5                	jal	3b2c <__multadd>
    3a42:	c62a                	sw	a0,12(sp)
    3a44:	bfe9                	j	3a1e <_dtoa_r+0xabc>
    3a46:	4901                	li	s2,0
    3a48:	01905463          	blez	s9,3a50 <_dtoa_r+0xaee>
    3a4c:	fffc8913          	addi	s2,s9,-1
    3a50:	00148713          	addi	a4,s1,1
    3a54:	993a                	add	s2,s2,a4
    3a56:	4b01                	li	s6,0
    3a58:	45b2                	lw	a1,12(sp)
    3a5a:	4522                	lw	a0,8(sp)
    3a5c:	4605                	li	a2,1
    3a5e:	2b05                	jal	3f8e <__lshift>
    3a60:	85d6                	mv	a1,s5
    3a62:	c62a                	sw	a0,12(sp)
    3a64:	2d39                	jal	4082 <__mcmp>
    3a66:	f4a044e3          	bgtz	a0,39ae <_dtoa_r+0xa4c>
    3a6a:	e501                	bnez	a0,3a72 <_dtoa_r+0xb10>
    3a6c:	0019f793          	andi	a5,s3,1
    3a70:	ff9d                	bnez	a5,39ae <_dtoa_r+0xa4c>
    3a72:	87ca                	mv	a5,s2
    3a74:	03000713          	li	a4,48
    3a78:	893e                	mv	s2,a5
    3a7a:	fff7c683          	lbu	a3,-1(a5)
    3a7e:	17fd                	addi	a5,a5,-1
    3a80:	fee68ce3          	beq	a3,a4,3a78 <_dtoa_r+0xb16>
    3a84:	bec9                	j	3656 <_dtoa_r+0x6f4>
    3a86:	f2f497e3          	bne	s1,a5,39b4 <_dtoa_r+0xa52>
    3a8a:	03100793          	li	a5,49
    3a8e:	0d85                	addi	s11,s11,1
    3a90:	00f48023          	sb	a5,0(s1)
    3a94:	b6c9                	j	3656 <_dtoa_r+0x6f4>
    3a96:	5712                	lw	a4,36(sp)
    3a98:	67a1                	lui	a5,0x8
    3a9a:	d3478493          	addi	s1,a5,-716 # 7d34 <crc_32_tab+0x4dc>
    3a9e:	d6070063          	beqz	a4,2ffe <_dtoa_r+0x9c>
    3aa2:	67a1                	lui	a5,0x8
    3aa4:	d3c78793          	addi	a5,a5,-708 # 7d3c <crc_32_tab+0x4e4>
    3aa8:	d52ff06f          	j	2ffa <_dtoa_r+0x98>
    3aac:	4505                	li	a0,1
    3aae:	4d01                	li	s10,0
    3ab0:	cc854ee3          	blt	a0,s0,378c <_dtoa_r+0x82a>
    3ab4:	b955                	j	3768 <_dtoa_r+0x806>

00003ab6 <_Balloc>:
    3ab6:	417c                	lw	a5,68(a0)
    3ab8:	1141                	addi	sp,sp,-16
    3aba:	c422                	sw	s0,8(sp)
    3abc:	c226                	sw	s1,4(sp)
    3abe:	c606                	sw	ra,12(sp)
    3ac0:	c04a                	sw	s2,0(sp)
    3ac2:	84aa                	mv	s1,a0
    3ac4:	842e                	mv	s0,a1
    3ac6:	eb89                	bnez	a5,3ad8 <_Balloc+0x22>
    3ac8:	02100613          	li	a2,33
    3acc:	4591                	li	a1,4
    3ace:	781000ef          	jal	4a4e <_calloc_r>
    3ad2:	c0e8                	sw	a0,68(s1)
    3ad4:	87aa                	mv	a5,a0
    3ad6:	cd01                	beqz	a0,3aee <_Balloc+0x38>
    3ad8:	00241713          	slli	a4,s0,0x2
    3adc:	973e                	add	a4,a4,a5
    3ade:	431c                	lw	a5,0(a4)
    3ae0:	cf91                	beqz	a5,3afc <_Balloc+0x46>
    3ae2:	4394                	lw	a3,0(a5)
    3ae4:	c314                	sw	a3,0(a4)
    3ae6:	0007a823          	sw	zero,16(a5)
    3aea:	0007a623          	sw	zero,12(a5)
    3aee:	40b2                	lw	ra,12(sp)
    3af0:	4422                	lw	s0,8(sp)
    3af2:	4492                	lw	s1,4(sp)
    3af4:	4902                	lw	s2,0(sp)
    3af6:	853e                	mv	a0,a5
    3af8:	0141                	addi	sp,sp,16
    3afa:	8082                	ret
    3afc:	4585                	li	a1,1
    3afe:	00859933          	sll	s2,a1,s0
    3b02:	00590613          	addi	a2,s2,5
    3b06:	060a                	slli	a2,a2,0x2
    3b08:	8526                	mv	a0,s1
    3b0a:	745000ef          	jal	4a4e <_calloc_r>
    3b0e:	87aa                	mv	a5,a0
    3b10:	dd79                	beqz	a0,3aee <_Balloc+0x38>
    3b12:	c140                	sw	s0,4(a0)
    3b14:	01252423          	sw	s2,8(a0)
    3b18:	b7f9                	j	3ae6 <_Balloc+0x30>

00003b1a <_Bfree>:
    3b1a:	c981                	beqz	a1,3b2a <_Bfree+0x10>
    3b1c:	41d8                	lw	a4,4(a1)
    3b1e:	417c                	lw	a5,68(a0)
    3b20:	070a                	slli	a4,a4,0x2
    3b22:	97ba                	add	a5,a5,a4
    3b24:	4398                	lw	a4,0(a5)
    3b26:	c198                	sw	a4,0(a1)
    3b28:	c38c                	sw	a1,0(a5)
    3b2a:	8082                	ret

00003b2c <__multadd>:
    3b2c:	1101                	addi	sp,sp,-32
    3b2e:	cc22                	sw	s0,24(sp)
    3b30:	ca26                	sw	s1,20(sp)
    3b32:	c84a                	sw	s2,16(sp)
    3b34:	4984                	lw	s1,16(a1)
    3b36:	842e                	mv	s0,a1
    3b38:	8936                	mv	s2,a3
    3b3a:	ce06                	sw	ra,28(sp)
    3b3c:	01458693          	addi	a3,a1,20
    3b40:	c64e                	sw	s3,12(sp)
    3b42:	c452                	sw	s4,8(sp)
    3b44:	4581                	li	a1,0
    3b46:	429c                	lw	a5,0(a3)
    3b48:	0585                	addi	a1,a1,1
    3b4a:	01079713          	slli	a4,a5,0x10
    3b4e:	8341                	srli	a4,a4,0x10
    3b50:	02c70733          	mul	a4,a4,a2
    3b54:	83c1                	srli	a5,a5,0x10
    3b56:	02c787b3          	mul	a5,a5,a2
    3b5a:	974a                	add	a4,a4,s2
    3b5c:	01075813          	srli	a6,a4,0x10
    3b60:	0742                	slli	a4,a4,0x10
    3b62:	8341                	srli	a4,a4,0x10
    3b64:	97c2                	add	a5,a5,a6
    3b66:	0107d913          	srli	s2,a5,0x10
    3b6a:	07c2                	slli	a5,a5,0x10
    3b6c:	97ba                	add	a5,a5,a4
    3b6e:	c29c                	sw	a5,0(a3)
    3b70:	0691                	addi	a3,a3,4
    3b72:	fc95cae3          	blt	a1,s1,3b46 <__multadd+0x1a>
    3b76:	04090a63          	beqz	s2,3bca <__multadd+0x9e>
    3b7a:	441c                	lw	a5,8(s0)
    3b7c:	02f4cf63          	blt	s1,a5,3bba <__multadd+0x8e>
    3b80:	404c                	lw	a1,4(s0)
    3b82:	8a2a                	mv	s4,a0
    3b84:	0585                	addi	a1,a1,1
    3b86:	3f05                	jal	3ab6 <_Balloc>
    3b88:	89aa                	mv	s3,a0
    3b8a:	ed01                	bnez	a0,3ba2 <__multadd+0x76>
    3b8c:	66a1                	lui	a3,0x8
    3b8e:	6521                	lui	a0,0x8
    3b90:	d4468693          	addi	a3,a3,-700 # 7d44 <crc_32_tab+0x4ec>
    3b94:	4601                	li	a2,0
    3b96:	0ba00593          	li	a1,186
    3b9a:	dd050513          	addi	a0,a0,-560 # 7dd0 <crc_32_tab+0x578>
    3b9e:	673000ef          	jal	4a10 <__assert_func>
    3ba2:	4810                	lw	a2,16(s0)
    3ba4:	00c40593          	addi	a1,s0,12
    3ba8:	0531                	addi	a0,a0,12
    3baa:	0609                	addi	a2,a2,2
    3bac:	060a                	slli	a2,a2,0x2
    3bae:	9ceff0ef          	jal	2d7c <memcpy>
    3bb2:	85a2                	mv	a1,s0
    3bb4:	8552                	mv	a0,s4
    3bb6:	3795                	jal	3b1a <_Bfree>
    3bb8:	844e                	mv	s0,s3
    3bba:	00448793          	addi	a5,s1,4
    3bbe:	078a                	slli	a5,a5,0x2
    3bc0:	97a2                	add	a5,a5,s0
    3bc2:	0127a223          	sw	s2,4(a5)
    3bc6:	0485                	addi	s1,s1,1
    3bc8:	c804                	sw	s1,16(s0)
    3bca:	40f2                	lw	ra,28(sp)
    3bcc:	8522                	mv	a0,s0
    3bce:	4462                	lw	s0,24(sp)
    3bd0:	44d2                	lw	s1,20(sp)
    3bd2:	4942                	lw	s2,16(sp)
    3bd4:	49b2                	lw	s3,12(sp)
    3bd6:	4a22                	lw	s4,8(sp)
    3bd8:	6105                	addi	sp,sp,32
    3bda:	8082                	ret

00003bdc <__s2b>:
    3bdc:	7179                	addi	sp,sp,-48
    3bde:	00868793          	addi	a5,a3,8
    3be2:	ce4e                	sw	s3,28(sp)
    3be4:	89b6                	mv	s3,a3
    3be6:	46a5                	li	a3,9
    3be8:	02d7c7b3          	div	a5,a5,a3
    3bec:	d422                	sw	s0,40(sp)
    3bee:	d226                	sw	s1,36(sp)
    3bf0:	ca56                	sw	s5,20(sp)
    3bf2:	842e                	mv	s0,a1
    3bf4:	d606                	sw	ra,44(sp)
    3bf6:	d04a                	sw	s2,32(sp)
    3bf8:	cc52                	sw	s4,24(sp)
    3bfa:	8aaa                	mv	s5,a0
    3bfc:	84b2                	mv	s1,a2
    3bfe:	4685                	li	a3,1
    3c00:	4581                	li	a1,0
    3c02:	02f6c263          	blt	a3,a5,3c26 <__s2b+0x4a>
    3c06:	8556                	mv	a0,s5
    3c08:	c63a                	sw	a4,12(sp)
    3c0a:	3575                	jal	3ab6 <_Balloc>
    3c0c:	4732                	lw	a4,12(sp)
    3c0e:	ed19                	bnez	a0,3c2c <__s2b+0x50>
    3c10:	66a1                	lui	a3,0x8
    3c12:	6521                	lui	a0,0x8
    3c14:	d4468693          	addi	a3,a3,-700 # 7d44 <crc_32_tab+0x4ec>
    3c18:	4601                	li	a2,0
    3c1a:	0d300593          	li	a1,211
    3c1e:	dd050513          	addi	a0,a0,-560 # 7dd0 <crc_32_tab+0x578>
    3c22:	5ef000ef          	jal	4a10 <__assert_func>
    3c26:	0686                	slli	a3,a3,0x1
    3c28:	0585                	addi	a1,a1,1
    3c2a:	bfe1                	j	3c02 <__s2b+0x26>
    3c2c:	4785                	li	a5,1
    3c2e:	c91c                	sw	a5,16(a0)
    3c30:	c958                	sw	a4,20(a0)
    3c32:	47a5                	li	a5,9
    3c34:	0497dd63          	bge	a5,s1,3c8e <__s2b+0xb2>
    3c38:	00f40933          	add	s2,s0,a5
    3c3c:	8a4a                	mv	s4,s2
    3c3e:	9426                	add	s0,s0,s1
    3c40:	000a4683          	lbu	a3,0(s4)
    3c44:	0a05                	addi	s4,s4,1
    3c46:	85aa                	mv	a1,a0
    3c48:	fd068693          	addi	a3,a3,-48
    3c4c:	4629                	li	a2,10
    3c4e:	8556                	mv	a0,s5
    3c50:	3df1                	jal	3b2c <__multadd>
    3c52:	fe8a17e3          	bne	s4,s0,3c40 <__s2b+0x64>
    3c56:	9926                	add	s2,s2,s1
    3c58:	ff890413          	addi	s0,s2,-8
    3c5c:	8926                	mv	s2,s1
    3c5e:	a829                	j	3c78 <__s2b+0x9c>
    3c60:	409907b3          	sub	a5,s2,s1
    3c64:	97a2                	add	a5,a5,s0
    3c66:	0007c683          	lbu	a3,0(a5)
    3c6a:	85aa                	mv	a1,a0
    3c6c:	4629                	li	a2,10
    3c6e:	fd068693          	addi	a3,a3,-48
    3c72:	8556                	mv	a0,s5
    3c74:	3d65                	jal	3b2c <__multadd>
    3c76:	0905                	addi	s2,s2,1
    3c78:	ff3944e3          	blt	s2,s3,3c60 <__s2b+0x84>
    3c7c:	50b2                	lw	ra,44(sp)
    3c7e:	5422                	lw	s0,40(sp)
    3c80:	5492                	lw	s1,36(sp)
    3c82:	5902                	lw	s2,32(sp)
    3c84:	49f2                	lw	s3,28(sp)
    3c86:	4a62                	lw	s4,24(sp)
    3c88:	4ad2                	lw	s5,20(sp)
    3c8a:	6145                	addi	sp,sp,48
    3c8c:	8082                	ret
    3c8e:	0429                	addi	s0,s0,10
    3c90:	84be                	mv	s1,a5
    3c92:	b7e9                	j	3c5c <__s2b+0x80>

00003c94 <__hi0bits>:
    3c94:	87aa                	mv	a5,a0
    3c96:	6741                	lui	a4,0x10
    3c98:	4501                	li	a0,0
    3c9a:	00e7f463          	bgeu	a5,a4,3ca2 <__hi0bits+0xe>
    3c9e:	07c2                	slli	a5,a5,0x10
    3ca0:	4541                	li	a0,16
    3ca2:	01000737          	lui	a4,0x1000
    3ca6:	00e7f463          	bgeu	a5,a4,3cae <__hi0bits+0x1a>
    3caa:	0521                	addi	a0,a0,8
    3cac:	07a2                	slli	a5,a5,0x8
    3cae:	10000737          	lui	a4,0x10000
    3cb2:	00e7f463          	bgeu	a5,a4,3cba <__hi0bits+0x26>
    3cb6:	0511                	addi	a0,a0,4
    3cb8:	0792                	slli	a5,a5,0x4
    3cba:	40000737          	lui	a4,0x40000
    3cbe:	00e7f463          	bgeu	a5,a4,3cc6 <__hi0bits+0x32>
    3cc2:	0509                	addi	a0,a0,2
    3cc4:	078a                	slli	a5,a5,0x2
    3cc6:	0007ca63          	bltz	a5,3cda <__hi0bits+0x46>
    3cca:	00179713          	slli	a4,a5,0x1
    3cce:	00075463          	bgez	a4,3cd6 <__hi0bits+0x42>
    3cd2:	0505                	addi	a0,a0,1
    3cd4:	8082                	ret
    3cd6:	02000513          	li	a0,32
    3cda:	8082                	ret

00003cdc <__lo0bits>:
    3cdc:	411c                	lw	a5,0(a0)
    3cde:	0077f713          	andi	a4,a5,7
    3ce2:	c30d                	beqz	a4,3d04 <__lo0bits+0x28>
    3ce4:	0017f693          	andi	a3,a5,1
    3ce8:	4701                	li	a4,0
    3cea:	e699                	bnez	a3,3cf8 <__lo0bits+0x1c>
    3cec:	0027f713          	andi	a4,a5,2
    3cf0:	c711                	beqz	a4,3cfc <__lo0bits+0x20>
    3cf2:	8385                	srli	a5,a5,0x1
    3cf4:	c11c                	sw	a5,0(a0)
    3cf6:	4705                	li	a4,1
    3cf8:	853a                	mv	a0,a4
    3cfa:	8082                	ret
    3cfc:	8389                	srli	a5,a5,0x2
    3cfe:	c11c                	sw	a5,0(a0)
    3d00:	4709                	li	a4,2
    3d02:	bfdd                	j	3cf8 <__lo0bits+0x1c>
    3d04:	01079693          	slli	a3,a5,0x10
    3d08:	82c1                	srli	a3,a3,0x10
    3d0a:	e299                	bnez	a3,3d10 <__lo0bits+0x34>
    3d0c:	83c1                	srli	a5,a5,0x10
    3d0e:	4741                	li	a4,16
    3d10:	0ff7f693          	zext.b	a3,a5
    3d14:	e299                	bnez	a3,3d1a <__lo0bits+0x3e>
    3d16:	0721                	addi	a4,a4,8 # 40000008 <_sp+0x3fff4098>
    3d18:	83a1                	srli	a5,a5,0x8
    3d1a:	00f7f693          	andi	a3,a5,15
    3d1e:	e299                	bnez	a3,3d24 <__lo0bits+0x48>
    3d20:	0711                	addi	a4,a4,4
    3d22:	8391                	srli	a5,a5,0x4
    3d24:	0037f693          	andi	a3,a5,3
    3d28:	e299                	bnez	a3,3d2e <__lo0bits+0x52>
    3d2a:	0709                	addi	a4,a4,2
    3d2c:	8389                	srli	a5,a5,0x2
    3d2e:	0017f693          	andi	a3,a5,1
    3d32:	e681                	bnez	a3,3d3a <__lo0bits+0x5e>
    3d34:	8385                	srli	a5,a5,0x1
    3d36:	c781                	beqz	a5,3d3e <__lo0bits+0x62>
    3d38:	0705                	addi	a4,a4,1
    3d3a:	c11c                	sw	a5,0(a0)
    3d3c:	bf75                	j	3cf8 <__lo0bits+0x1c>
    3d3e:	02000713          	li	a4,32
    3d42:	bf5d                	j	3cf8 <__lo0bits+0x1c>

00003d44 <__i2b>:
    3d44:	1141                	addi	sp,sp,-16
    3d46:	c422                	sw	s0,8(sp)
    3d48:	842e                	mv	s0,a1
    3d4a:	4585                	li	a1,1
    3d4c:	c606                	sw	ra,12(sp)
    3d4e:	33a5                	jal	3ab6 <_Balloc>
    3d50:	ed01                	bnez	a0,3d68 <__i2b+0x24>
    3d52:	66a1                	lui	a3,0x8
    3d54:	6521                	lui	a0,0x8
    3d56:	d4468693          	addi	a3,a3,-700 # 7d44 <crc_32_tab+0x4ec>
    3d5a:	4601                	li	a2,0
    3d5c:	14500593          	li	a1,325
    3d60:	dd050513          	addi	a0,a0,-560 # 7dd0 <crc_32_tab+0x578>
    3d64:	4ad000ef          	jal	4a10 <__assert_func>
    3d68:	40b2                	lw	ra,12(sp)
    3d6a:	c940                	sw	s0,20(a0)
    3d6c:	4422                	lw	s0,8(sp)
    3d6e:	4705                	li	a4,1
    3d70:	c918                	sw	a4,16(a0)
    3d72:	0141                	addi	sp,sp,16
    3d74:	8082                	ret

00003d76 <__multiply>:
    3d76:	7179                	addi	sp,sp,-48
    3d78:	d226                	sw	s1,36(sp)
    3d7a:	d04a                	sw	s2,32(sp)
    3d7c:	4984                	lw	s1,16(a1)
    3d7e:	01062903          	lw	s2,16(a2)
    3d82:	ce4e                	sw	s3,28(sp)
    3d84:	d606                	sw	ra,44(sp)
    3d86:	d422                	sw	s0,40(sp)
    3d88:	89ae                	mv	s3,a1
    3d8a:	0124c863          	blt	s1,s2,3d9a <__multiply+0x24>
    3d8e:	87ca                	mv	a5,s2
    3d90:	8926                	mv	s2,s1
    3d92:	84be                	mv	s1,a5
    3d94:	87b2                	mv	a5,a2
    3d96:	89be                	mv	s3,a5
    3d98:	862e                	mv	a2,a1
    3d9a:	461c                	lw	a5,8(a2)
    3d9c:	424c                	lw	a1,4(a2)
    3d9e:	00990433          	add	s0,s2,s1
    3da2:	0087a7b3          	slt	a5,a5,s0
    3da6:	95be                	add	a1,a1,a5
    3da8:	c632                	sw	a2,12(sp)
    3daa:	3331                	jal	3ab6 <_Balloc>
    3dac:	4632                	lw	a2,12(sp)
    3dae:	ed01                	bnez	a0,3dc6 <__multiply+0x50>
    3db0:	66a1                	lui	a3,0x8
    3db2:	6521                	lui	a0,0x8
    3db4:	d4468693          	addi	a3,a3,-700 # 7d44 <crc_32_tab+0x4ec>
    3db8:	4601                	li	a2,0
    3dba:	16200593          	li	a1,354
    3dbe:	dd050513          	addi	a0,a0,-560 # 7dd0 <crc_32_tab+0x578>
    3dc2:	44f000ef          	jal	4a10 <__assert_func>
    3dc6:	01450893          	addi	a7,a0,20
    3dca:	00241313          	slli	t1,s0,0x2
    3dce:	9346                	add	t1,t1,a7
    3dd0:	87c6                	mv	a5,a7
    3dd2:	0467e563          	bltu	a5,t1,3e1c <__multiply+0xa6>
    3dd6:	01460e93          	addi	t4,a2,20
    3dda:	00291713          	slli	a4,s2,0x2
    3dde:	9776                	add	a4,a4,t4
    3de0:	01560e13          	addi	t3,a2,21
    3de4:	01498593          	addi	a1,s3,20
    3de8:	00249813          	slli	a6,s1,0x2
    3dec:	01c73e33          	sltu	t3,a4,t3
    3df0:	40c70633          	sub	a2,a4,a2
    3df4:	982e                	add	a6,a6,a1
    3df6:	001e4e13          	xori	t3,t3,1
    3dfa:	162d                	addi	a2,a2,-21
    3dfc:	0305e463          	bltu	a1,a6,3e24 <__multiply+0xae>
    3e00:	00805663          	blez	s0,3e0c <__multiply+0x96>
    3e04:	ffc32783          	lw	a5,-4(t1)
    3e08:	1371                	addi	t1,t1,-4
    3e0a:	c7ed                	beqz	a5,3ef4 <__multiply+0x17e>
    3e0c:	50b2                	lw	ra,44(sp)
    3e0e:	c900                	sw	s0,16(a0)
    3e10:	5422                	lw	s0,40(sp)
    3e12:	5492                	lw	s1,36(sp)
    3e14:	5902                	lw	s2,32(sp)
    3e16:	49f2                	lw	s3,28(sp)
    3e18:	6145                	addi	sp,sp,48
    3e1a:	8082                	ret
    3e1c:	0007a023          	sw	zero,0(a5)
    3e20:	0791                	addi	a5,a5,4
    3e22:	bf45                	j	3dd2 <__multiply+0x5c>
    3e24:	0005d383          	lhu	t2,0(a1)
    3e28:	06038063          	beqz	t2,3e88 <__multiply+0x112>
    3e2c:	8fc6                	mv	t6,a7
    3e2e:	8f76                	mv	t5,t4
    3e30:	4481                	li	s1,0
    3e32:	000f2783          	lw	a5,0(t5)
    3e36:	000fa283          	lw	t0,0(t6)
    3e3a:	0f11                	addi	t5,t5,4
    3e3c:	01079693          	slli	a3,a5,0x10
    3e40:	82c1                	srli	a3,a3,0x10
    3e42:	027686b3          	mul	a3,a3,t2
    3e46:	83c1                	srli	a5,a5,0x10
    3e48:	01029913          	slli	s2,t0,0x10
    3e4c:	01095913          	srli	s2,s2,0x10
    3e50:	0102d293          	srli	t0,t0,0x10
    3e54:	0f91                	addi	t6,t6,4
    3e56:	027787b3          	mul	a5,a5,t2
    3e5a:	96ca                	add	a3,a3,s2
    3e5c:	96a6                	add	a3,a3,s1
    3e5e:	9796                	add	a5,a5,t0
    3e60:	0106d293          	srli	t0,a3,0x10
    3e64:	9796                	add	a5,a5,t0
    3e66:	06c2                	slli	a3,a3,0x10
    3e68:	0107d493          	srli	s1,a5,0x10
    3e6c:	82c1                	srli	a3,a3,0x10
    3e6e:	07c2                	slli	a5,a5,0x10
    3e70:	8fd5                	or	a5,a5,a3
    3e72:	feffae23          	sw	a5,-4(t6)
    3e76:	faef6ee3          	bltu	t5,a4,3e32 <__multiply+0xbc>
    3e7a:	4781                	li	a5,0
    3e7c:	000e0463          	beqz	t3,3e84 <__multiply+0x10e>
    3e80:	ffc67793          	andi	a5,a2,-4
    3e84:	97c6                	add	a5,a5,a7
    3e86:	c3c4                	sw	s1,4(a5)
    3e88:	0025d383          	lhu	t2,2(a1)
    3e8c:	06038163          	beqz	t2,3eee <__multiply+0x178>
    3e90:	0008a783          	lw	a5,0(a7)
    3e94:	8f76                	mv	t5,t4
    3e96:	82c6                	mv	t0,a7
    3e98:	8fbe                	mv	t6,a5
    3e9a:	4481                	li	s1,0
    3e9c:	000f5683          	lhu	a3,0(t5)
    3ea0:	010fdf93          	srli	t6,t6,0x10
    3ea4:	07c2                	slli	a5,a5,0x10
    3ea6:	027686b3          	mul	a3,a3,t2
    3eaa:	83c1                	srli	a5,a5,0x10
    3eac:	0f11                	addi	t5,t5,4
    3eae:	0291                	addi	t0,t0,4
    3eb0:	96a6                	add	a3,a3,s1
    3eb2:	96fe                	add	a3,a3,t6
    3eb4:	01069f93          	slli	t6,a3,0x10
    3eb8:	00ffe7b3          	or	a5,t6,a5
    3ebc:	fef2ae23          	sw	a5,-4(t0)
    3ec0:	ffef5783          	lhu	a5,-2(t5)
    3ec4:	0002af83          	lw	t6,0(t0)
    3ec8:	82c1                	srli	a3,a3,0x10
    3eca:	027787b3          	mul	a5,a5,t2
    3ece:	010f9493          	slli	s1,t6,0x10
    3ed2:	80c1                	srli	s1,s1,0x10
    3ed4:	97a6                	add	a5,a5,s1
    3ed6:	97b6                	add	a5,a5,a3
    3ed8:	0107d493          	srli	s1,a5,0x10
    3edc:	fcef60e3          	bltu	t5,a4,3e9c <__multiply+0x126>
    3ee0:	4681                	li	a3,0
    3ee2:	000e0463          	beqz	t3,3eea <__multiply+0x174>
    3ee6:	ffc67693          	andi	a3,a2,-4
    3eea:	96c6                	add	a3,a3,a7
    3eec:	c2dc                	sw	a5,4(a3)
    3eee:	0591                	addi	a1,a1,4
    3ef0:	0891                	addi	a7,a7,4
    3ef2:	b729                	j	3dfc <__multiply+0x86>
    3ef4:	147d                	addi	s0,s0,-1
    3ef6:	b729                	j	3e00 <__multiply+0x8a>

00003ef8 <__pow5mult>:
    3ef8:	1101                	addi	sp,sp,-32
    3efa:	cc22                	sw	s0,24(sp)
    3efc:	c84a                	sw	s2,16(sp)
    3efe:	c64e                	sw	s3,12(sp)
    3f00:	ce06                	sw	ra,28(sp)
    3f02:	ca26                	sw	s1,20(sp)
    3f04:	c452                	sw	s4,8(sp)
    3f06:	00367793          	andi	a5,a2,3
    3f0a:	89aa                	mv	s3,a0
    3f0c:	8932                	mv	s2,a2
    3f0e:	842e                	mv	s0,a1
    3f10:	cb99                	beqz	a5,3f26 <__pow5mult+0x2e>
    3f12:	17fd                	addi	a5,a5,-1
    3f14:	6721                	lui	a4,0x8
    3f16:	02870713          	addi	a4,a4,40 # 8028 <p05.0>
    3f1a:	078a                	slli	a5,a5,0x2
    3f1c:	97ba                	add	a5,a5,a4
    3f1e:	4390                	lw	a2,0(a5)
    3f20:	4681                	li	a3,0
    3f22:	3129                	jal	3b2c <__multadd>
    3f24:	842a                	mv	s0,a0
    3f26:	40295913          	srai	s2,s2,0x2
    3f2a:	04090963          	beqz	s2,3f7c <__pow5mult+0x84>
    3f2e:	0409a483          	lw	s1,64(s3)
    3f32:	e891                	bnez	s1,3f46 <__pow5mult+0x4e>
    3f34:	27100593          	li	a1,625
    3f38:	854e                	mv	a0,s3
    3f3a:	3529                	jal	3d44 <__i2b>
    3f3c:	04a9a023          	sw	a0,64(s3)
    3f40:	84aa                	mv	s1,a0
    3f42:	00052023          	sw	zero,0(a0)
    3f46:	00197793          	andi	a5,s2,1
    3f4a:	8a22                	mv	s4,s0
    3f4c:	40195913          	srai	s2,s2,0x1
    3f50:	cb99                	beqz	a5,3f66 <__pow5mult+0x6e>
    3f52:	85a2                	mv	a1,s0
    3f54:	8626                	mv	a2,s1
    3f56:	854e                	mv	a0,s3
    3f58:	3d39                	jal	3d76 <__multiply>
    3f5a:	842a                	mv	s0,a0
    3f5c:	85d2                	mv	a1,s4
    3f5e:	854e                	mv	a0,s3
    3f60:	3e6d                	jal	3b1a <_Bfree>
    3f62:	00090d63          	beqz	s2,3f7c <__pow5mult+0x84>
    3f66:	4088                	lw	a0,0(s1)
    3f68:	e901                	bnez	a0,3f78 <__pow5mult+0x80>
    3f6a:	8626                	mv	a2,s1
    3f6c:	85a6                	mv	a1,s1
    3f6e:	854e                	mv	a0,s3
    3f70:	3519                	jal	3d76 <__multiply>
    3f72:	c088                	sw	a0,0(s1)
    3f74:	00052023          	sw	zero,0(a0)
    3f78:	84aa                	mv	s1,a0
    3f7a:	b7f1                	j	3f46 <__pow5mult+0x4e>
    3f7c:	40f2                	lw	ra,28(sp)
    3f7e:	8522                	mv	a0,s0
    3f80:	4462                	lw	s0,24(sp)
    3f82:	44d2                	lw	s1,20(sp)
    3f84:	4942                	lw	s2,16(sp)
    3f86:	49b2                	lw	s3,12(sp)
    3f88:	4a22                	lw	s4,8(sp)
    3f8a:	6105                	addi	sp,sp,32
    3f8c:	8082                	ret

00003f8e <__lshift>:
    3f8e:	7179                	addi	sp,sp,-48
    3f90:	d422                	sw	s0,40(sp)
    3f92:	842e                	mv	s0,a1
    3f94:	d04a                	sw	s2,32(sp)
    3f96:	01042903          	lw	s2,16(s0)
    3f9a:	d226                	sw	s1,36(sp)
    3f9c:	41cc                	lw	a1,4(a1)
    3f9e:	40565493          	srai	s1,a2,0x5
    3fa2:	441c                	lw	a5,8(s0)
    3fa4:	9926                	add	s2,s2,s1
    3fa6:	cc52                	sw	s4,24(sp)
    3fa8:	ca56                	sw	s5,20(sp)
    3faa:	d606                	sw	ra,44(sp)
    3fac:	ce4e                	sw	s3,28(sp)
    3fae:	8aaa                	mv	s5,a0
    3fb0:	00190a13          	addi	s4,s2,1
    3fb4:	0347c363          	blt	a5,s4,3fda <__lshift+0x4c>
    3fb8:	8556                	mv	a0,s5
    3fba:	c632                	sw	a2,12(sp)
    3fbc:	3ced                	jal	3ab6 <_Balloc>
    3fbe:	4632                	lw	a2,12(sp)
    3fc0:	89aa                	mv	s3,a0
    3fc2:	ed19                	bnez	a0,3fe0 <__lshift+0x52>
    3fc4:	66a1                	lui	a3,0x8
    3fc6:	6521                	lui	a0,0x8
    3fc8:	d4468693          	addi	a3,a3,-700 # 7d44 <crc_32_tab+0x4ec>
    3fcc:	4601                	li	a2,0
    3fce:	1de00593          	li	a1,478
    3fd2:	dd050513          	addi	a0,a0,-560 # 7dd0 <crc_32_tab+0x578>
    3fd6:	23b000ef          	jal	4a10 <__assert_func>
    3fda:	0585                	addi	a1,a1,1
    3fdc:	0786                	slli	a5,a5,0x1
    3fde:	bfd9                	j	3fb4 <__lshift+0x26>
    3fe0:	01450693          	addi	a3,a0,20
    3fe4:	8736                	mv	a4,a3
    3fe6:	4781                	li	a5,0
    3fe8:	0697cf63          	blt	a5,s1,4066 <__lshift+0xd8>
    3fec:	fff4c793          	not	a5,s1
    3ff0:	87fd                	srai	a5,a5,0x1f
    3ff2:	4818                	lw	a4,16(s0)
    3ff4:	8cfd                	and	s1,s1,a5
    3ff6:	048a                	slli	s1,s1,0x2
    3ff8:	96a6                	add	a3,a3,s1
    3ffa:	01440793          	addi	a5,s0,20
    3ffe:	070a                	slli	a4,a4,0x2
    4000:	8a7d                	andi	a2,a2,31
    4002:	8836                	mv	a6,a3
    4004:	973e                	add	a4,a4,a5
    4006:	c62d                	beqz	a2,4070 <__lshift+0xe2>
    4008:	02000893          	li	a7,32
    400c:	40c888b3          	sub	a7,a7,a2
    4010:	4581                	li	a1,0
    4012:	4388                	lw	a0,0(a5)
    4014:	8336                	mv	t1,a3
    4016:	0691                	addi	a3,a3,4
    4018:	00c51533          	sll	a0,a0,a2
    401c:	8dc9                	or	a1,a1,a0
    401e:	00b32023          	sw	a1,0(t1)
    4022:	438c                	lw	a1,0(a5)
    4024:	0791                	addi	a5,a5,4
    4026:	0115d5b3          	srl	a1,a1,a7
    402a:	fee7e4e3          	bltu	a5,a4,4012 <__lshift+0x84>
    402e:	01540793          	addi	a5,s0,21
    4032:	4681                	li	a3,0
    4034:	00f76663          	bltu	a4,a5,4040 <__lshift+0xb2>
    4038:	8f01                	sub	a4,a4,s0
    403a:	172d                	addi	a4,a4,-21
    403c:	ffc77693          	andi	a3,a4,-4
    4040:	9836                	add	a6,a6,a3
    4042:	00b82223          	sw	a1,4(a6)
    4046:	ed85                	bnez	a1,407e <__lshift+0xf0>
    4048:	0129a823          	sw	s2,16(s3)
    404c:	8556                	mv	a0,s5
    404e:	85a2                	mv	a1,s0
    4050:	34e9                	jal	3b1a <_Bfree>
    4052:	50b2                	lw	ra,44(sp)
    4054:	5422                	lw	s0,40(sp)
    4056:	5492                	lw	s1,36(sp)
    4058:	5902                	lw	s2,32(sp)
    405a:	4a62                	lw	s4,24(sp)
    405c:	4ad2                	lw	s5,20(sp)
    405e:	854e                	mv	a0,s3
    4060:	49f2                	lw	s3,28(sp)
    4062:	6145                	addi	sp,sp,48
    4064:	8082                	ret
    4066:	00072023          	sw	zero,0(a4)
    406a:	0785                	addi	a5,a5,1
    406c:	0711                	addi	a4,a4,4
    406e:	bfad                	j	3fe8 <__lshift+0x5a>
    4070:	438c                	lw	a1,0(a5)
    4072:	0791                	addi	a5,a5,4
    4074:	c28c                	sw	a1,0(a3)
    4076:	0691                	addi	a3,a3,4
    4078:	fee7ece3          	bltu	a5,a4,4070 <__lshift+0xe2>
    407c:	b7f1                	j	4048 <__lshift+0xba>
    407e:	8952                	mv	s2,s4
    4080:	b7e1                	j	4048 <__lshift+0xba>

00004082 <__mcmp>:
    4082:	4914                	lw	a3,16(a0)
    4084:	499c                	lw	a5,16(a1)
    4086:	872a                	mv	a4,a0
    4088:	40f68533          	sub	a0,a3,a5
    408c:	02f69563          	bne	a3,a5,40b6 <__mcmp+0x34>
    4090:	078a                	slli	a5,a5,0x2
    4092:	0751                	addi	a4,a4,20
    4094:	05d1                	addi	a1,a1,20
    4096:	00f706b3          	add	a3,a4,a5
    409a:	95be                	add	a1,a1,a5
    409c:	16f1                	addi	a3,a3,-4
    409e:	15f1                	addi	a1,a1,-4
    40a0:	4290                	lw	a2,0(a3)
    40a2:	419c                	lw	a5,0(a1)
    40a4:	00f60763          	beq	a2,a5,40b2 <__mcmp+0x30>
    40a8:	4505                	li	a0,1
    40aa:	00f67663          	bgeu	a2,a5,40b6 <__mcmp+0x34>
    40ae:	557d                	li	a0,-1
    40b0:	8082                	ret
    40b2:	fed765e3          	bltu	a4,a3,409c <__mcmp+0x1a>
    40b6:	8082                	ret

000040b8 <__mdiff>:
    40b8:	1101                	addi	sp,sp,-32
    40ba:	cc22                	sw	s0,24(sp)
    40bc:	842e                	mv	s0,a1
    40be:	c64e                	sw	s3,12(sp)
    40c0:	85b2                	mv	a1,a2
    40c2:	89aa                	mv	s3,a0
    40c4:	8522                	mv	a0,s0
    40c6:	ca26                	sw	s1,20(sp)
    40c8:	ce06                	sw	ra,28(sp)
    40ca:	c84a                	sw	s2,16(sp)
    40cc:	84b2                	mv	s1,a2
    40ce:	3f55                	jal	4082 <__mcmp>
    40d0:	e91d                	bnez	a0,4106 <__mdiff+0x4e>
    40d2:	4581                	li	a1,0
    40d4:	854e                	mv	a0,s3
    40d6:	32c5                	jal	3ab6 <_Balloc>
    40d8:	ed01                	bnez	a0,40f0 <__mdiff+0x38>
    40da:	66a1                	lui	a3,0x8
    40dc:	d4468693          	addi	a3,a3,-700 # 7d44 <crc_32_tab+0x4ec>
    40e0:	4601                	li	a2,0
    40e2:	23700593          	li	a1,567
    40e6:	6521                	lui	a0,0x8
    40e8:	dd050513          	addi	a0,a0,-560 # 7dd0 <crc_32_tab+0x578>
    40ec:	125000ef          	jal	4a10 <__assert_func>
    40f0:	4785                	li	a5,1
    40f2:	c91c                	sw	a5,16(a0)
    40f4:	00052a23          	sw	zero,20(a0)
    40f8:	40f2                	lw	ra,28(sp)
    40fa:	4462                	lw	s0,24(sp)
    40fc:	44d2                	lw	s1,20(sp)
    40fe:	4942                	lw	s2,16(sp)
    4100:	49b2                	lw	s3,12(sp)
    4102:	6105                	addi	sp,sp,32
    4104:	8082                	ret
    4106:	4901                	li	s2,0
    4108:	00055663          	bgez	a0,4114 <__mdiff+0x5c>
    410c:	87a2                	mv	a5,s0
    410e:	4905                	li	s2,1
    4110:	8426                	mv	s0,s1
    4112:	84be                	mv	s1,a5
    4114:	404c                	lw	a1,4(s0)
    4116:	854e                	mv	a0,s3
    4118:	3a79                	jal	3ab6 <_Balloc>
    411a:	e901                	bnez	a0,412a <__mdiff+0x72>
    411c:	66a1                	lui	a3,0x8
    411e:	d4468693          	addi	a3,a3,-700 # 7d44 <crc_32_tab+0x4ec>
    4122:	4601                	li	a2,0
    4124:	24500593          	li	a1,581
    4128:	bf7d                	j	40e6 <__mdiff+0x2e>
    412a:	01042803          	lw	a6,16(s0)
    412e:	489c                	lw	a5,16(s1)
    4130:	0451                	addi	s0,s0,20
    4132:	00281893          	slli	a7,a6,0x2
    4136:	01448613          	addi	a2,s1,20
    413a:	078a                	slli	a5,a5,0x2
    413c:	01450593          	addi	a1,a0,20
    4140:	01252623          	sw	s2,12(a0)
    4144:	98a2                	add	a7,a7,s0
    4146:	97b2                	add	a5,a5,a2
    4148:	8eae                	mv	t4,a1
    414a:	8f22                	mv	t5,s0
    414c:	4301                	li	t1,0
    414e:	000f2703          	lw	a4,0(t5)
    4152:	00062e03          	lw	t3,0(a2)
    4156:	0611                	addi	a2,a2,4
    4158:	01071693          	slli	a3,a4,0x10
    415c:	010e1f93          	slli	t6,t3,0x10
    4160:	82c1                	srli	a3,a3,0x10
    4162:	010fdf93          	srli	t6,t6,0x10
    4166:	41f686b3          	sub	a3,a3,t6
    416a:	969a                	add	a3,a3,t1
    416c:	8341                	srli	a4,a4,0x10
    416e:	010e5e13          	srli	t3,t3,0x10
    4172:	4106d313          	srai	t1,a3,0x10
    4176:	41c70733          	sub	a4,a4,t3
    417a:	971a                	add	a4,a4,t1
    417c:	06c2                	slli	a3,a3,0x10
    417e:	41075313          	srai	t1,a4,0x10
    4182:	82c1                	srli	a3,a3,0x10
    4184:	0742                	slli	a4,a4,0x10
    4186:	8ed9                	or	a3,a3,a4
    4188:	00dea023          	sw	a3,0(t4)
    418c:	0f11                	addi	t5,t5,4
    418e:	0e91                	addi	t4,t4,4
    4190:	faf66fe3          	bltu	a2,a5,414e <__mdiff+0x96>
    4194:	01548693          	addi	a3,s1,21
    4198:	4701                	li	a4,0
    419a:	00d7e663          	bltu	a5,a3,41a6 <__mdiff+0xee>
    419e:	8f85                	sub	a5,a5,s1
    41a0:	17ad                	addi	a5,a5,-21
    41a2:	ffc7f713          	andi	a4,a5,-4
    41a6:	00e406b3          	add	a3,s0,a4
    41aa:	00e58e33          	add	t3,a1,a4
    41ae:	00468e93          	addi	t4,a3,4
    41b2:	0e11                	addi	t3,t3,4
    41b4:	8676                	mv	a2,t4
    41b6:	8d81                	sub	a1,a1,s0
    41b8:	03166363          	bltu	a2,a7,41de <__mdiff+0x126>
    41bc:	00168713          	addi	a4,a3,1
    41c0:	4781                	li	a5,0
    41c2:	00e8e763          	bltu	a7,a4,41d0 <__mdiff+0x118>
    41c6:	088d                	addi	a7,a7,3
    41c8:	41d888b3          	sub	a7,a7,t4
    41cc:	ffc8f793          	andi	a5,a7,-4
    41d0:	97f2                	add	a5,a5,t3
    41d2:	17f1                	addi	a5,a5,-4
    41d4:	4398                	lw	a4,0(a5)
    41d6:	cb1d                	beqz	a4,420c <__mdiff+0x154>
    41d8:	01052823          	sw	a6,16(a0)
    41dc:	bf31                	j	40f8 <__mdiff+0x40>
    41de:	4218                	lw	a4,0(a2)
    41e0:	8f1a                	mv	t5,t1
    41e2:	00b60fb3          	add	t6,a2,a1
    41e6:	01071793          	slli	a5,a4,0x10
    41ea:	83c1                	srli	a5,a5,0x10
    41ec:	979a                	add	a5,a5,t1
    41ee:	87c1                	srai	a5,a5,0x10
    41f0:	01075313          	srli	t1,a4,0x10
    41f4:	977a                	add	a4,a4,t5
    41f6:	979a                	add	a5,a5,t1
    41f8:	0742                	slli	a4,a4,0x10
    41fa:	4107d313          	srai	t1,a5,0x10
    41fe:	8341                	srli	a4,a4,0x10
    4200:	07c2                	slli	a5,a5,0x10
    4202:	8f5d                	or	a4,a4,a5
    4204:	0611                	addi	a2,a2,4
    4206:	00efa023          	sw	a4,0(t6)
    420a:	b77d                	j	41b8 <__mdiff+0x100>
    420c:	187d                	addi	a6,a6,-1
    420e:	b7d1                	j	41d2 <__mdiff+0x11a>

00004210 <__ulp>:
    4210:	7ff007b7          	lui	a5,0x7ff00
    4214:	8dfd                	and	a1,a1,a5
    4216:	fcc007b7          	lui	a5,0xfcc00
    421a:	95be                	add	a1,a1,a5
    421c:	00b04d63          	bgtz	a1,4236 <__ulp+0x26>
    4220:	40b005b3          	neg	a1,a1
    4224:	4145d793          	srai	a5,a1,0x14
    4228:	474d                	li	a4,19
    422a:	00f74863          	blt	a4,a5,423a <__ulp+0x2a>
    422e:	000805b7          	lui	a1,0x80
    4232:	40f5d5b3          	sra	a1,a1,a5
    4236:	4781                	li	a5,0
    4238:	a819                	j	424e <__ulp+0x3e>
    423a:	fec78713          	addi	a4,a5,-20 # fcbfffec <_sp+0xfcbf407c>
    423e:	47f9                	li	a5,30
    4240:	00e7c963          	blt	a5,a4,4252 <__ulp+0x42>
    4244:	800007b7          	lui	a5,0x80000
    4248:	00e7d7b3          	srl	a5,a5,a4
    424c:	4581                	li	a1,0
    424e:	853e                	mv	a0,a5
    4250:	8082                	ret
    4252:	4581                	li	a1,0
    4254:	4785                	li	a5,1
    4256:	bfe5                	j	424e <__ulp+0x3e>

00004258 <__b2d>:
    4258:	7179                	addi	sp,sp,-48
    425a:	d226                	sw	s1,36(sp)
    425c:	4904                	lw	s1,16(a0)
    425e:	ce4e                	sw	s3,28(sp)
    4260:	01450993          	addi	s3,a0,20
    4264:	048a                	slli	s1,s1,0x2
    4266:	94ce                	add	s1,s1,s3
    4268:	d422                	sw	s0,40(sp)
    426a:	ffc4a403          	lw	s0,-4(s1)
    426e:	d04a                	sw	s2,32(sp)
    4270:	c62e                	sw	a1,12(sp)
    4272:	8522                	mv	a0,s0
    4274:	d606                	sw	ra,44(sp)
    4276:	3c39                	jal	3c94 <__hi0bits>
    4278:	45b2                	lw	a1,12(sp)
    427a:	02000793          	li	a5,32
    427e:	8f89                	sub	a5,a5,a0
    4280:	c19c                	sw	a5,0(a1)
    4282:	47a9                	li	a5,10
    4284:	ffc48913          	addi	s2,s1,-4
    4288:	02a7cd63          	blt	a5,a0,42c2 <__b2d+0x6a>
    428c:	46ad                	li	a3,11
    428e:	8e89                	sub	a3,a3,a0
    4290:	3ff007b7          	lui	a5,0x3ff00
    4294:	00d45733          	srl	a4,s0,a3
    4298:	8f5d                	or	a4,a4,a5
    429a:	4781                	li	a5,0
    429c:	0129f463          	bgeu	s3,s2,42a4 <__b2d+0x4c>
    42a0:	ff84a783          	lw	a5,-8(s1)
    42a4:	0555                	addi	a0,a0,21
    42a6:	00a41433          	sll	s0,s0,a0
    42aa:	00d7d7b3          	srl	a5,a5,a3
    42ae:	8fc1                	or	a5,a5,s0
    42b0:	50b2                	lw	ra,44(sp)
    42b2:	5422                	lw	s0,40(sp)
    42b4:	5492                	lw	s1,36(sp)
    42b6:	5902                	lw	s2,32(sp)
    42b8:	49f2                	lw	s3,28(sp)
    42ba:	853e                	mv	a0,a5
    42bc:	85ba                	mv	a1,a4
    42be:	6145                	addi	sp,sp,48
    42c0:	8082                	ret
    42c2:	4781                	li	a5,0
    42c4:	0129f663          	bgeu	s3,s2,42d0 <__b2d+0x78>
    42c8:	ff84a783          	lw	a5,-8(s1)
    42cc:	ff848913          	addi	s2,s1,-8
    42d0:	1555                	addi	a0,a0,-11
    42d2:	c51d                	beqz	a0,4300 <__b2d+0xa8>
    42d4:	02000613          	li	a2,32
    42d8:	8e09                	sub	a2,a2,a0
    42da:	00c7d733          	srl	a4,a5,a2
    42de:	00a41433          	sll	s0,s0,a0
    42e2:	8c59                	or	s0,s0,a4
    42e4:	3ff00737          	lui	a4,0x3ff00
    42e8:	8f41                	or	a4,a4,s0
    42ea:	4681                	li	a3,0
    42ec:	0129f463          	bgeu	s3,s2,42f4 <__b2d+0x9c>
    42f0:	ffc92683          	lw	a3,-4(s2)
    42f4:	00a797b3          	sll	a5,a5,a0
    42f8:	00c6d6b3          	srl	a3,a3,a2
    42fc:	8fd5                	or	a5,a5,a3
    42fe:	bf4d                	j	42b0 <__b2d+0x58>
    4300:	3ff00737          	lui	a4,0x3ff00
    4304:	8f41                	or	a4,a4,s0
    4306:	b76d                	j	42b0 <__b2d+0x58>

00004308 <__d2b>:
    4308:	7179                	addi	sp,sp,-48
    430a:	d422                	sw	s0,40(sp)
    430c:	842e                	mv	s0,a1
    430e:	4585                	li	a1,1
    4310:	d226                	sw	s1,36(sp)
    4312:	d04a                	sw	s2,32(sp)
    4314:	cc52                	sw	s4,24(sp)
    4316:	d606                	sw	ra,44(sp)
    4318:	ce4e                	sw	s3,28(sp)
    431a:	84b2                	mv	s1,a2
    431c:	8936                	mv	s2,a3
    431e:	8a3a                	mv	s4,a4
    4320:	f96ff0ef          	jal	3ab6 <_Balloc>
    4324:	e919                	bnez	a0,433a <__d2b+0x32>
    4326:	66a1                	lui	a3,0x8
    4328:	6521                	lui	a0,0x8
    432a:	d4468693          	addi	a3,a3,-700 # 7d44 <crc_32_tab+0x4ec>
    432e:	4601                	li	a2,0
    4330:	30f00593          	li	a1,783
    4334:	dd050513          	addi	a0,a0,-560 # 7dd0 <crc_32_tab+0x578>
    4338:	2de1                	jal	4a10 <__assert_func>
    433a:	00c49793          	slli	a5,s1,0xc
    433e:	80d1                	srli	s1,s1,0x14
    4340:	7ff4f493          	andi	s1,s1,2047
    4344:	89aa                	mv	s3,a0
    4346:	83b1                	srli	a5,a5,0xc
    4348:	c481                	beqz	s1,4350 <__d2b+0x48>
    434a:	00100737          	lui	a4,0x100
    434e:	8fd9                	or	a5,a5,a4
    4350:	c63e                	sw	a5,12(sp)
    4352:	c035                	beqz	s0,43b6 <__d2b+0xae>
    4354:	0028                	addi	a0,sp,8
    4356:	c422                	sw	s0,8(sp)
    4358:	3251                	jal	3cdc <__lo0bits>
    435a:	46a2                	lw	a3,8(sp)
    435c:	c931                	beqz	a0,43b0 <__d2b+0xa8>
    435e:	4732                	lw	a4,12(sp)
    4360:	02000793          	li	a5,32
    4364:	8f89                	sub	a5,a5,a0
    4366:	00f717b3          	sll	a5,a4,a5
    436a:	8fd5                	or	a5,a5,a3
    436c:	00a75733          	srl	a4,a4,a0
    4370:	00f9aa23          	sw	a5,20(s3)
    4374:	c63a                	sw	a4,12(sp)
    4376:	4432                	lw	s0,12(sp)
    4378:	0089ac23          	sw	s0,24(s3)
    437c:	00803433          	snez	s0,s0
    4380:	0405                	addi	s0,s0,1
    4382:	0089a823          	sw	s0,16(s3)
    4386:	c0a9                	beqz	s1,43c8 <__d2b+0xc0>
    4388:	bcd48493          	addi	s1,s1,-1075
    438c:	94aa                	add	s1,s1,a0
    438e:	00992023          	sw	s1,0(s2)
    4392:	03500413          	li	s0,53
    4396:	40a40533          	sub	a0,s0,a0
    439a:	50b2                	lw	ra,44(sp)
    439c:	5422                	lw	s0,40(sp)
    439e:	00aa2023          	sw	a0,0(s4)
    43a2:	5492                	lw	s1,36(sp)
    43a4:	5902                	lw	s2,32(sp)
    43a6:	4a62                	lw	s4,24(sp)
    43a8:	854e                	mv	a0,s3
    43aa:	49f2                	lw	s3,28(sp)
    43ac:	6145                	addi	sp,sp,48
    43ae:	8082                	ret
    43b0:	00d9aa23          	sw	a3,20(s3)
    43b4:	b7c9                	j	4376 <__d2b+0x6e>
    43b6:	0068                	addi	a0,sp,12
    43b8:	3215                	jal	3cdc <__lo0bits>
    43ba:	47b2                	lw	a5,12(sp)
    43bc:	02050513          	addi	a0,a0,32
    43c0:	4405                	li	s0,1
    43c2:	00f9aa23          	sw	a5,20(s3)
    43c6:	bf75                	j	4382 <__d2b+0x7a>
    43c8:	00241793          	slli	a5,s0,0x2
    43cc:	bce50513          	addi	a0,a0,-1074
    43d0:	97ce                	add	a5,a5,s3
    43d2:	00a92023          	sw	a0,0(s2)
    43d6:	4b88                	lw	a0,16(a5)
    43d8:	0416                	slli	s0,s0,0x5
    43da:	386d                	jal	3c94 <__hi0bits>
    43dc:	bf6d                	j	4396 <__d2b+0x8e>

000043de <__ratio>:
    43de:	7179                	addi	sp,sp,-48
    43e0:	d04a                	sw	s2,32(sp)
    43e2:	892e                	mv	s2,a1
    43e4:	002c                	addi	a1,sp,8
    43e6:	d606                	sw	ra,44(sp)
    43e8:	d422                	sw	s0,40(sp)
    43ea:	d226                	sw	s1,36(sp)
    43ec:	ce4e                	sw	s3,28(sp)
    43ee:	cc52                	sw	s4,24(sp)
    43f0:	89aa                	mv	s3,a0
    43f2:	359d                	jal	4258 <__b2d>
    43f4:	8a2a                	mv	s4,a0
    43f6:	84ae                	mv	s1,a1
    43f8:	842e                	mv	s0,a1
    43fa:	854a                	mv	a0,s2
    43fc:	006c                	addi	a1,sp,12
    43fe:	3da9                	jal	4258 <__b2d>
    4400:	01092703          	lw	a4,16(s2)
    4404:	0109a783          	lw	a5,16(s3)
    4408:	4632                	lw	a2,12(sp)
    440a:	8f99                	sub	a5,a5,a4
    440c:	4722                	lw	a4,8(sp)
    440e:	0796                	slli	a5,a5,0x5
    4410:	8f11                	sub	a4,a4,a2
    4412:	97ba                	add	a5,a5,a4
    4414:	02f05363          	blez	a5,443a <__ratio+0x5c>
    4418:	07d2                	slli	a5,a5,0x14
    441a:	86ae                	mv	a3,a1
    441c:	00978433          	add	s0,a5,s1
    4420:	862a                	mv	a2,a0
    4422:	85a2                	mv	a1,s0
    4424:	8552                	mv	a0,s4
    4426:	6bb010ef          	jal	62e0 <__divdf3>
    442a:	50b2                	lw	ra,44(sp)
    442c:	5422                	lw	s0,40(sp)
    442e:	5492                	lw	s1,36(sp)
    4430:	5902                	lw	s2,32(sp)
    4432:	49f2                	lw	s3,28(sp)
    4434:	4a62                	lw	s4,24(sp)
    4436:	6145                	addi	sp,sp,48
    4438:	8082                	ret
    443a:	fff00737          	lui	a4,0xfff00
    443e:	02e787b3          	mul	a5,a5,a4
    4442:	00b786b3          	add	a3,a5,a1
    4446:	bfe9                	j	4420 <__ratio+0x42>

00004448 <_mprec_log10>:
    4448:	1141                	addi	sp,sp,-16
    444a:	c422                	sw	s0,8(sp)
    444c:	c606                	sw	ra,12(sp)
    444e:	c24a                	sw	s2,4(sp)
    4450:	c04e                	sw	s3,0(sp)
    4452:	47dd                	li	a5,23
    4454:	842a                	mv	s0,a0
    4456:	02a7c163          	blt	a5,a0,4478 <_mprec_log10+0x30>
    445a:	6721                	lui	a4,0x8
    445c:	00351413          	slli	s0,a0,0x3
    4460:	02870713          	addi	a4,a4,40 # 8028 <p05.0>
    4464:	9722                	add	a4,a4,s0
    4466:	4b1c                	lw	a5,16(a4)
    4468:	4b4c                	lw	a1,20(a4)
    446a:	40b2                	lw	ra,12(sp)
    446c:	4422                	lw	s0,8(sp)
    446e:	4912                	lw	s2,4(sp)
    4470:	4982                	lw	s3,0(sp)
    4472:	853e                	mv	a0,a5
    4474:	0141                	addi	sp,sp,16
    4476:	8082                	ret
    4478:	8481a783          	lw	a5,-1976(gp) # 8c28 <__SDATA_BEGIN__+0x48>
    447c:	84c1a583          	lw	a1,-1972(gp) # 8c2c <__SDATA_BEGIN__+0x4c>
    4480:	8501a683          	lw	a3,-1968(gp) # 8c30 <__SDATA_BEGIN__+0x50>
    4484:	8541a703          	lw	a4,-1964(gp) # 8c34 <__SDATA_BEGIN__+0x54>
    4488:	8936                	mv	s2,a3
    448a:	89ba                	mv	s3,a4
    448c:	853e                	mv	a0,a5
    448e:	864a                	mv	a2,s2
    4490:	86ce                	mv	a3,s3
    4492:	546020ef          	jal	69d8 <__muldf3>
    4496:	147d                	addi	s0,s0,-1
    4498:	87aa                	mv	a5,a0
    449a:	f86d                	bnez	s0,448c <_mprec_log10+0x44>
    449c:	b7f9                	j	446a <_mprec_log10+0x22>

0000449e <__copybits>:
    449e:	fff58793          	addi	a5,a1,-1 # 7ffff <_sp+0x7408f>
    44a2:	4a18                	lw	a4,16(a2)
    44a4:	8795                	srai	a5,a5,0x5
    44a6:	0785                	addi	a5,a5,1 # 3ff00001 <_sp+0x3fef4091>
    44a8:	078a                	slli	a5,a5,0x2
    44aa:	01460693          	addi	a3,a2,20
    44ae:	070a                	slli	a4,a4,0x2
    44b0:	97aa                	add	a5,a5,a0
    44b2:	9736                	add	a4,a4,a3
    44b4:	85aa                	mv	a1,a0
    44b6:	00e6ef63          	bltu	a3,a4,44d4 <__copybits+0x36>
    44ba:	01160693          	addi	a3,a2,17
    44be:	4581                	li	a1,0
    44c0:	00d76663          	bltu	a4,a3,44cc <__copybits+0x2e>
    44c4:	8f11                	sub	a4,a4,a2
    44c6:	173d                	addi	a4,a4,-17
    44c8:	ffc77593          	andi	a1,a4,-4
    44cc:	952e                	add	a0,a0,a1
    44ce:	00f56a63          	bltu	a0,a5,44e2 <__copybits+0x44>
    44d2:	8082                	ret
    44d4:	0006a803          	lw	a6,0(a3)
    44d8:	0691                	addi	a3,a3,4
    44da:	0105a023          	sw	a6,0(a1)
    44de:	0591                	addi	a1,a1,4
    44e0:	bfd9                	j	44b6 <__copybits+0x18>
    44e2:	00052023          	sw	zero,0(a0)
    44e6:	0511                	addi	a0,a0,4
    44e8:	b7dd                	j	44ce <__copybits+0x30>

000044ea <__any_on>:
    44ea:	491c                	lw	a5,16(a0)
    44ec:	4055d713          	srai	a4,a1,0x5
    44f0:	01450693          	addi	a3,a0,20
    44f4:	00e7c763          	blt	a5,a4,4502 <__any_on+0x18>
    44f8:	00f75463          	bge	a4,a5,4500 <__any_on+0x16>
    44fc:	89fd                	andi	a1,a1,31
    44fe:	e981                	bnez	a1,450e <__any_on+0x24>
    4500:	87ba                	mv	a5,a4
    4502:	078a                	slli	a5,a5,0x2
    4504:	97b6                	add	a5,a5,a3
    4506:	02f6e063          	bltu	a3,a5,4526 <__any_on+0x3c>
    450a:	4501                	li	a0,0
    450c:	8082                	ret
    450e:	00271793          	slli	a5,a4,0x2
    4512:	97b6                	add	a5,a5,a3
    4514:	4390                	lw	a2,0(a5)
    4516:	00b657b3          	srl	a5,a2,a1
    451a:	00b797b3          	sll	a5,a5,a1
    451e:	fef601e3          	beq	a2,a5,4500 <__any_on+0x16>
    4522:	4505                	li	a0,1
    4524:	8082                	ret
    4526:	17f1                	addi	a5,a5,-4
    4528:	4398                	lw	a4,0(a5)
    452a:	df71                	beqz	a4,4506 <__any_on+0x1c>
    452c:	bfdd                	j	4522 <__any_on+0x38>

0000452e <_realloc_r>:
    452e:	7139                	addi	sp,sp,-64
    4530:	dc22                	sw	s0,56(sp)
    4532:	de06                	sw	ra,60(sp)
    4534:	842e                	mv	s0,a1
    4536:	da26                	sw	s1,52(sp)
    4538:	d84a                	sw	s2,48(sp)
    453a:	d64e                	sw	s3,44(sp)
    453c:	d452                	sw	s4,40(sp)
    453e:	d256                	sw	s5,36(sp)
    4540:	d05a                	sw	s6,32(sp)
    4542:	ce5e                	sw	s7,28(sp)
    4544:	cc62                	sw	s8,24(sp)
    4546:	85b2                	mv	a1,a2
    4548:	ec11                	bnez	s0,4564 <_realloc_r+0x36>
    454a:	5462                	lw	s0,56(sp)
    454c:	50f2                	lw	ra,60(sp)
    454e:	54d2                	lw	s1,52(sp)
    4550:	5942                	lw	s2,48(sp)
    4552:	59b2                	lw	s3,44(sp)
    4554:	5a22                	lw	s4,40(sp)
    4556:	5a92                	lw	s5,36(sp)
    4558:	5b02                	lw	s6,32(sp)
    455a:	4bf2                	lw	s7,28(sp)
    455c:	4c62                	lw	s8,24(sp)
    455e:	6121                	addi	sp,sp,64
    4560:	fc2fc06f          	j	d22 <_malloc_r>
    4564:	8aaa                	mv	s5,a0
    4566:	c632                	sw	a2,12(sp)
    4568:	c47fc0ef          	jal	11ae <__malloc_lock>
    456c:	45b2                	lw	a1,12(sp)
    456e:	4759                	li	a4,22
    4570:	00b58793          	addi	a5,a1,11
    4574:	02f77763          	bgeu	a4,a5,45a2 <_realloc_r+0x74>
    4578:	ff87fb13          	andi	s6,a5,-8
    457c:	0207d463          	bgez	a5,45a4 <_realloc_r+0x76>
    4580:	47b1                	li	a5,12
    4582:	00faa023          	sw	a5,0(s5)
    4586:	4a01                	li	s4,0
    4588:	50f2                	lw	ra,60(sp)
    458a:	5462                	lw	s0,56(sp)
    458c:	54d2                	lw	s1,52(sp)
    458e:	5942                	lw	s2,48(sp)
    4590:	59b2                	lw	s3,44(sp)
    4592:	5a92                	lw	s5,36(sp)
    4594:	5b02                	lw	s6,32(sp)
    4596:	4bf2                	lw	s7,28(sp)
    4598:	4c62                	lw	s8,24(sp)
    459a:	8552                	mv	a0,s4
    459c:	5a22                	lw	s4,40(sp)
    459e:	6121                	addi	sp,sp,64
    45a0:	8082                	ret
    45a2:	4b41                	li	s6,16
    45a4:	fcbb6ee3          	bltu	s6,a1,4580 <_realloc_r+0x52>
    45a8:	ffc42783          	lw	a5,-4(s0)
    45ac:	ff840b93          	addi	s7,s0,-8
    45b0:	ffc7f913          	andi	s2,a5,-4
    45b4:	2f695e63          	bge	s2,s6,48b0 <_realloc_r+0x382>
    45b8:	6c21                	lui	s8,0x8
    45ba:	668c0c13          	addi	s8,s8,1640 # 8668 <__malloc_av_>
    45be:	008c2603          	lw	a2,8(s8)
    45c2:	012b8733          	add	a4,s7,s2
    45c6:	4354                	lw	a3,4(a4)
    45c8:	00e60863          	beq	a2,a4,45d8 <_realloc_r+0xaa>
    45cc:	ffe6f513          	andi	a0,a3,-2
    45d0:	953a                	add	a0,a0,a4
    45d2:	4148                	lw	a0,4(a0)
    45d4:	8905                	andi	a0,a0,1
    45d6:	e149                	bnez	a0,4658 <_realloc_r+0x12a>
    45d8:	9af1                	andi	a3,a3,-4
    45da:	00d909b3          	add	s3,s2,a3
    45de:	02e61b63          	bne	a2,a4,4614 <_realloc_r+0xe6>
    45e2:	010b0513          	addi	a0,s6,16
    45e6:	06a9cb63          	blt	s3,a0,465c <_realloc_r+0x12e>
    45ea:	9bda                	add	s7,s7,s6
    45ec:	416989b3          	sub	s3,s3,s6
    45f0:	017c2423          	sw	s7,8(s8)
    45f4:	0019e993          	ori	s3,s3,1
    45f8:	013ba223          	sw	s3,4(s7)
    45fc:	ffc42783          	lw	a5,-4(s0)
    4600:	8b85                	andi	a5,a5,1
    4602:	0167e7b3          	or	a5,a5,s6
    4606:	fef42e23          	sw	a5,-4(s0)
    460a:	8556                	mv	a0,s5
    460c:	ba5fc0ef          	jal	11b0 <__malloc_unlock>
    4610:	8a22                	mv	s4,s0
    4612:	bf9d                	j	4588 <_realloc_r+0x5a>
    4614:	0569c463          	blt	s3,s6,465c <_realloc_r+0x12e>
    4618:	475c                	lw	a5,12(a4)
    461a:	4718                	lw	a4,8(a4)
    461c:	c75c                	sw	a5,12(a4)
    461e:	c798                	sw	a4,8(a5)
    4620:	004ba783          	lw	a5,4(s7)
    4624:	416986b3          	sub	a3,s3,s6
    4628:	463d                	li	a2,15
    462a:	8b85                	andi	a5,a5,1
    462c:	013b8733          	add	a4,s7,s3
    4630:	28d67263          	bgeu	a2,a3,48b4 <_realloc_r+0x386>
    4634:	00fb67b3          	or	a5,s6,a5
    4638:	00fba223          	sw	a5,4(s7)
    463c:	016b85b3          	add	a1,s7,s6
    4640:	0016e693          	ori	a3,a3,1
    4644:	c1d4                	sw	a3,4(a1)
    4646:	435c                	lw	a5,4(a4)
    4648:	05a1                	addi	a1,a1,8
    464a:	8556                	mv	a0,s5
    464c:	0017e793          	ori	a5,a5,1
    4650:	c35c                	sw	a5,4(a4)
    4652:	d36fc0ef          	jal	b88 <_free_r>
    4656:	bf55                	j	460a <_realloc_r+0xdc>
    4658:	4681                	li	a3,0
    465a:	4701                	li	a4,0
    465c:	8b85                	andi	a5,a5,1
    465e:	1a079b63          	bnez	a5,4814 <_realloc_r+0x2e6>
    4662:	ff842483          	lw	s1,-8(s0)
    4666:	409b84b3          	sub	s1,s7,s1
    466a:	0044aa03          	lw	s4,4(s1)
    466e:	ffca7a13          	andi	s4,s4,-4
    4672:	9a4a                	add	s4,s4,s2
    4674:	12070463          	beqz	a4,479c <_realloc_r+0x26e>
    4678:	014689b3          	add	s3,a3,s4
    467c:	0ae61063          	bne	a2,a4,471c <_realloc_r+0x1ee>
    4680:	010b0793          	addi	a5,s6,16
    4684:	10f9cc63          	blt	s3,a5,479c <_realloc_r+0x26e>
    4688:	44dc                	lw	a5,12(s1)
    468a:	4498                	lw	a4,8(s1)
    468c:	ffc90613          	addi	a2,s2,-4
    4690:	00848a13          	addi	s4,s1,8
    4694:	c75c                	sw	a5,12(a4)
    4696:	c798                	sw	a4,8(a5)
    4698:	02400793          	li	a5,36
    469c:	06c7eb63          	bltu	a5,a2,4712 <_realloc_r+0x1e4>
    46a0:	46cd                	li	a3,19
    46a2:	8752                	mv	a4,s4
    46a4:	00c6fc63          	bgeu	a3,a2,46bc <_realloc_r+0x18e>
    46a8:	4018                	lw	a4,0(s0)
    46aa:	c498                	sw	a4,8(s1)
    46ac:	4058                	lw	a4,4(s0)
    46ae:	c4d8                	sw	a4,12(s1)
    46b0:	476d                	li	a4,27
    46b2:	02c76e63          	bltu	a4,a2,46ee <_realloc_r+0x1c0>
    46b6:	0421                	addi	s0,s0,8
    46b8:	01048713          	addi	a4,s1,16
    46bc:	401c                	lw	a5,0(s0)
    46be:	c31c                	sw	a5,0(a4)
    46c0:	405c                	lw	a5,4(s0)
    46c2:	c35c                	sw	a5,4(a4)
    46c4:	441c                	lw	a5,8(s0)
    46c6:	c71c                	sw	a5,8(a4)
    46c8:	016487b3          	add	a5,s1,s6
    46cc:	416989b3          	sub	s3,s3,s6
    46d0:	00fc2423          	sw	a5,8(s8)
    46d4:	0019e993          	ori	s3,s3,1
    46d8:	0137a223          	sw	s3,4(a5)
    46dc:	40dc                	lw	a5,4(s1)
    46de:	8b85                	andi	a5,a5,1
    46e0:	0167e7b3          	or	a5,a5,s6
    46e4:	c0dc                	sw	a5,4(s1)
    46e6:	8556                	mv	a0,s5
    46e8:	ac9fc0ef          	jal	11b0 <__malloc_unlock>
    46ec:	bd71                	j	4588 <_realloc_r+0x5a>
    46ee:	4418                	lw	a4,8(s0)
    46f0:	c898                	sw	a4,16(s1)
    46f2:	4458                	lw	a4,12(s0)
    46f4:	c8d8                	sw	a4,20(s1)
    46f6:	00f60663          	beq	a2,a5,4702 <_realloc_r+0x1d4>
    46fa:	0441                	addi	s0,s0,16
    46fc:	01848713          	addi	a4,s1,24
    4700:	bf75                	j	46bc <_realloc_r+0x18e>
    4702:	481c                	lw	a5,16(s0)
    4704:	02048713          	addi	a4,s1,32
    4708:	cc9c                	sw	a5,24(s1)
    470a:	485c                	lw	a5,20(s0)
    470c:	0461                	addi	s0,s0,24
    470e:	ccdc                	sw	a5,28(s1)
    4710:	b775                	j	46bc <_realloc_r+0x18e>
    4712:	85a2                	mv	a1,s0
    4714:	8552                	mv	a0,s4
    4716:	e44fe0ef          	jal	2d5a <memmove>
    471a:	b77d                	j	46c8 <_realloc_r+0x19a>
    471c:	0969c063          	blt	s3,s6,479c <_realloc_r+0x26e>
    4720:	475c                	lw	a5,12(a4)
    4722:	4718                	lw	a4,8(a4)
    4724:	ffc90613          	addi	a2,s2,-4
    4728:	00848a13          	addi	s4,s1,8
    472c:	c75c                	sw	a5,12(a4)
    472e:	c798                	sw	a4,8(a5)
    4730:	4498                	lw	a4,8(s1)
    4732:	44dc                	lw	a5,12(s1)
    4734:	c75c                	sw	a5,12(a4)
    4736:	c798                	sw	a4,8(a5)
    4738:	02400793          	li	a5,36
    473c:	04c7eb63          	bltu	a5,a2,4792 <_realloc_r+0x264>
    4740:	46cd                	li	a3,19
    4742:	8752                	mv	a4,s4
    4744:	00c6fc63          	bgeu	a3,a2,475c <_realloc_r+0x22e>
    4748:	4018                	lw	a4,0(s0)
    474a:	c498                	sw	a4,8(s1)
    474c:	4058                	lw	a4,4(s0)
    474e:	c4d8                	sw	a4,12(s1)
    4750:	476d                	li	a4,27
    4752:	00c76e63          	bltu	a4,a2,476e <_realloc_r+0x240>
    4756:	0421                	addi	s0,s0,8
    4758:	01048713          	addi	a4,s1,16
    475c:	401c                	lw	a5,0(s0)
    475e:	c31c                	sw	a5,0(a4)
    4760:	405c                	lw	a5,4(s0)
    4762:	c35c                	sw	a5,4(a4)
    4764:	441c                	lw	a5,8(s0)
    4766:	c71c                	sw	a5,8(a4)
    4768:	8452                	mv	s0,s4
    476a:	8ba6                	mv	s7,s1
    476c:	bd55                	j	4620 <_realloc_r+0xf2>
    476e:	4418                	lw	a4,8(s0)
    4770:	c898                	sw	a4,16(s1)
    4772:	4458                	lw	a4,12(s0)
    4774:	c8d8                	sw	a4,20(s1)
    4776:	00f60663          	beq	a2,a5,4782 <_realloc_r+0x254>
    477a:	0441                	addi	s0,s0,16
    477c:	01848713          	addi	a4,s1,24
    4780:	bff1                	j	475c <_realloc_r+0x22e>
    4782:	481c                	lw	a5,16(s0)
    4784:	02048713          	addi	a4,s1,32
    4788:	cc9c                	sw	a5,24(s1)
    478a:	485c                	lw	a5,20(s0)
    478c:	0461                	addi	s0,s0,24
    478e:	ccdc                	sw	a5,28(s1)
    4790:	b7f1                	j	475c <_realloc_r+0x22e>
    4792:	85a2                	mv	a1,s0
    4794:	8552                	mv	a0,s4
    4796:	dc4fe0ef          	jal	2d5a <memmove>
    479a:	b7f9                	j	4768 <_realloc_r+0x23a>
    479c:	076a4c63          	blt	s4,s6,4814 <_realloc_r+0x2e6>
    47a0:	44dc                	lw	a5,12(s1)
    47a2:	4498                	lw	a4,8(s1)
    47a4:	ffc90613          	addi	a2,s2,-4
    47a8:	00848993          	addi	s3,s1,8
    47ac:	c75c                	sw	a5,12(a4)
    47ae:	c798                	sw	a4,8(a5)
    47b0:	02400793          	li	a5,36
    47b4:	04c7eb63          	bltu	a5,a2,480a <_realloc_r+0x2dc>
    47b8:	46cd                	li	a3,19
    47ba:	874e                	mv	a4,s3
    47bc:	00c6fc63          	bgeu	a3,a2,47d4 <_realloc_r+0x2a6>
    47c0:	4018                	lw	a4,0(s0)
    47c2:	c498                	sw	a4,8(s1)
    47c4:	4058                	lw	a4,4(s0)
    47c6:	c4d8                	sw	a4,12(s1)
    47c8:	476d                	li	a4,27
    47ca:	00c76e63          	bltu	a4,a2,47e6 <_realloc_r+0x2b8>
    47ce:	0421                	addi	s0,s0,8
    47d0:	01048713          	addi	a4,s1,16
    47d4:	401c                	lw	a5,0(s0)
    47d6:	c31c                	sw	a5,0(a4)
    47d8:	405c                	lw	a5,4(s0)
    47da:	c35c                	sw	a5,4(a4)
    47dc:	441c                	lw	a5,8(s0)
    47de:	c71c                	sw	a5,8(a4)
    47e0:	844e                	mv	s0,s3
    47e2:	89d2                	mv	s3,s4
    47e4:	b759                	j	476a <_realloc_r+0x23c>
    47e6:	4418                	lw	a4,8(s0)
    47e8:	c898                	sw	a4,16(s1)
    47ea:	4458                	lw	a4,12(s0)
    47ec:	c8d8                	sw	a4,20(s1)
    47ee:	00f60663          	beq	a2,a5,47fa <_realloc_r+0x2cc>
    47f2:	0441                	addi	s0,s0,16
    47f4:	01848713          	addi	a4,s1,24
    47f8:	bff1                	j	47d4 <_realloc_r+0x2a6>
    47fa:	481c                	lw	a5,16(s0)
    47fc:	02048713          	addi	a4,s1,32
    4800:	cc9c                	sw	a5,24(s1)
    4802:	485c                	lw	a5,20(s0)
    4804:	0461                	addi	s0,s0,24
    4806:	ccdc                	sw	a5,28(s1)
    4808:	b7f1                	j	47d4 <_realloc_r+0x2a6>
    480a:	85a2                	mv	a1,s0
    480c:	854e                	mv	a0,s3
    480e:	d4cfe0ef          	jal	2d5a <memmove>
    4812:	b7f9                	j	47e0 <_realloc_r+0x2b2>
    4814:	8556                	mv	a0,s5
    4816:	d0cfc0ef          	jal	d22 <_malloc_r>
    481a:	8a2a                	mv	s4,a0
    481c:	ec0505e3          	beqz	a0,46e6 <_realloc_r+0x1b8>
    4820:	ffc42703          	lw	a4,-4(s0)
    4824:	ff850793          	addi	a5,a0,-8
    4828:	9b79                	andi	a4,a4,-2
    482a:	975e                	add	a4,a4,s7
    482c:	00f71863          	bne	a4,a5,483c <_realloc_r+0x30e>
    4830:	ffc52983          	lw	s3,-4(a0)
    4834:	ffc9f993          	andi	s3,s3,-4
    4838:	99ca                	add	s3,s3,s2
    483a:	b3dd                	j	4620 <_realloc_r+0xf2>
    483c:	ffc90613          	addi	a2,s2,-4
    4840:	02400793          	li	a5,36
    4844:	06c7e263          	bltu	a5,a2,48a8 <_realloc_r+0x37a>
    4848:	474d                	li	a4,19
    484a:	04c77c63          	bgeu	a4,a2,48a2 <_realloc_r+0x374>
    484e:	4018                	lw	a4,0(s0)
    4850:	c118                	sw	a4,0(a0)
    4852:	4058                	lw	a4,4(s0)
    4854:	c158                	sw	a4,4(a0)
    4856:	476d                	li	a4,27
    4858:	02c76163          	bltu	a4,a2,487a <_realloc_r+0x34c>
    485c:	00840713          	addi	a4,s0,8
    4860:	00850793          	addi	a5,a0,8
    4864:	4314                	lw	a3,0(a4)
    4866:	c394                	sw	a3,0(a5)
    4868:	4354                	lw	a3,4(a4)
    486a:	c3d4                	sw	a3,4(a5)
    486c:	4718                	lw	a4,8(a4)
    486e:	c798                	sw	a4,8(a5)
    4870:	85a2                	mv	a1,s0
    4872:	8556                	mv	a0,s5
    4874:	b14fc0ef          	jal	b88 <_free_r>
    4878:	b5bd                	j	46e6 <_realloc_r+0x1b8>
    487a:	4418                	lw	a4,8(s0)
    487c:	c518                	sw	a4,8(a0)
    487e:	4458                	lw	a4,12(s0)
    4880:	c558                	sw	a4,12(a0)
    4882:	00f60763          	beq	a2,a5,4890 <_realloc_r+0x362>
    4886:	01040713          	addi	a4,s0,16
    488a:	01050793          	addi	a5,a0,16
    488e:	bfd9                	j	4864 <_realloc_r+0x336>
    4890:	481c                	lw	a5,16(s0)
    4892:	01840713          	addi	a4,s0,24
    4896:	c91c                	sw	a5,16(a0)
    4898:	4854                	lw	a3,20(s0)
    489a:	01850793          	addi	a5,a0,24
    489e:	c954                	sw	a3,20(a0)
    48a0:	b7d1                	j	4864 <_realloc_r+0x336>
    48a2:	87aa                	mv	a5,a0
    48a4:	8722                	mv	a4,s0
    48a6:	bf7d                	j	4864 <_realloc_r+0x336>
    48a8:	85a2                	mv	a1,s0
    48aa:	cb0fe0ef          	jal	2d5a <memmove>
    48ae:	b7c9                	j	4870 <_realloc_r+0x342>
    48b0:	89ca                	mv	s3,s2
    48b2:	b3bd                	j	4620 <_realloc_r+0xf2>
    48b4:	00f9e9b3          	or	s3,s3,a5
    48b8:	013ba223          	sw	s3,4(s7)
    48bc:	435c                	lw	a5,4(a4)
    48be:	0017e793          	ori	a5,a5,1
    48c2:	c35c                	sw	a5,4(a4)
    48c4:	b399                	j	460a <_realloc_r+0xdc>

000048c6 <__swhatbuf_r>:
    48c6:	7119                	addi	sp,sp,-128
    48c8:	dca2                	sw	s0,120(sp)
    48ca:	842e                	mv	s0,a1
    48cc:	00e59583          	lh	a1,14(a1)
    48d0:	daa6                	sw	s1,116(sp)
    48d2:	de86                	sw	ra,124(sp)
    48d4:	84b2                	mv	s1,a2
    48d6:	0005c863          	bltz	a1,48e6 <__swhatbuf_r+0x20>
    48da:	0830                	addi	a2,sp,24
    48dc:	c636                	sw	a3,12(sp)
    48de:	28e1                	jal	49b6 <_fstat_r>
    48e0:	46b2                	lw	a3,12(sp)
    48e2:	00055e63          	bgez	a0,48fe <__swhatbuf_r+0x38>
    48e6:	00c45783          	lhu	a5,12(s0)
    48ea:	40000713          	li	a4,1024
    48ee:	0807f793          	andi	a5,a5,128
    48f2:	c781                	beqz	a5,48fa <__swhatbuf_r+0x34>
    48f4:	4781                	li	a5,0
    48f6:	04000713          	li	a4,64
    48fa:	4501                	li	a0,0
    48fc:	a829                	j	4916 <__swhatbuf_r+0x50>
    48fe:	47f2                	lw	a5,28(sp)
    4900:	673d                	lui	a4,0xf
    4902:	6505                	lui	a0,0x1
    4904:	8ff9                	and	a5,a5,a4
    4906:	7779                	lui	a4,0xffffe
    4908:	97ba                	add	a5,a5,a4
    490a:	0017b793          	seqz	a5,a5
    490e:	40000713          	li	a4,1024
    4912:	80050513          	addi	a0,a0,-2048 # 800 <__swrite+0x1a>
    4916:	50f6                	lw	ra,124(sp)
    4918:	5466                	lw	s0,120(sp)
    491a:	c29c                	sw	a5,0(a3)
    491c:	c098                	sw	a4,0(s1)
    491e:	54d6                	lw	s1,116(sp)
    4920:	6109                	addi	sp,sp,128
    4922:	8082                	ret

00004924 <__smakebuf_r>:
    4924:	00c5d703          	lhu	a4,12(a1)
    4928:	7179                	addi	sp,sp,-48
    492a:	d422                	sw	s0,40(sp)
    492c:	d606                	sw	ra,44(sp)
    492e:	d226                	sw	s1,36(sp)
    4930:	d04a                	sw	s2,32(sp)
    4932:	8b09                	andi	a4,a4,2
    4934:	842e                	mv	s0,a1
    4936:	cf09                	beqz	a4,4950 <__smakebuf_r+0x2c>
    4938:	04340793          	addi	a5,s0,67
    493c:	c01c                	sw	a5,0(s0)
    493e:	c81c                	sw	a5,16(s0)
    4940:	4785                	li	a5,1
    4942:	c85c                	sw	a5,20(s0)
    4944:	50b2                	lw	ra,44(sp)
    4946:	5422                	lw	s0,40(sp)
    4948:	5492                	lw	s1,36(sp)
    494a:	5902                	lw	s2,32(sp)
    494c:	6145                	addi	sp,sp,48
    494e:	8082                	ret
    4950:	0874                	addi	a3,sp,28
    4952:	0830                	addi	a2,sp,24
    4954:	84aa                	mv	s1,a0
    4956:	3f85                	jal	48c6 <__swhatbuf_r>
    4958:	45e2                	lw	a1,24(sp)
    495a:	892a                	mv	s2,a0
    495c:	8526                	mv	a0,s1
    495e:	c62e                	sw	a1,12(sp)
    4960:	bc2fc0ef          	jal	d22 <_malloc_r>
    4964:	00c41783          	lh	a5,12(s0)
    4968:	45b2                	lw	a1,12(sp)
    496a:	e911                	bnez	a0,497e <__smakebuf_r+0x5a>
    496c:	2007f713          	andi	a4,a5,512
    4970:	fb71                	bnez	a4,4944 <__smakebuf_r+0x20>
    4972:	9bf1                	andi	a5,a5,-4
    4974:	0027e793          	ori	a5,a5,2
    4978:	00f41623          	sh	a5,12(s0)
    497c:	bf75                	j	4938 <__smakebuf_r+0x14>
    497e:	0807e793          	ori	a5,a5,128
    4982:	00f41623          	sh	a5,12(s0)
    4986:	47f2                	lw	a5,28(sp)
    4988:	c008                	sw	a0,0(s0)
    498a:	c808                	sw	a0,16(s0)
    498c:	c84c                	sw	a1,20(s0)
    498e:	cf89                	beqz	a5,49a8 <__smakebuf_r+0x84>
    4990:	00e41583          	lh	a1,14(s0)
    4994:	8526                	mv	a0,s1
    4996:	20b9                	jal	49e4 <_isatty_r>
    4998:	c901                	beqz	a0,49a8 <__smakebuf_r+0x84>
    499a:	00c45783          	lhu	a5,12(s0)
    499e:	9bf1                	andi	a5,a5,-4
    49a0:	0017e793          	ori	a5,a5,1
    49a4:	00f41623          	sh	a5,12(s0)
    49a8:	00c45503          	lhu	a0,12(s0)
    49ac:	01256533          	or	a0,a0,s2
    49b0:	00a41623          	sh	a0,12(s0)
    49b4:	bf41                	j	4944 <__smakebuf_r+0x20>

000049b6 <_fstat_r>:
    49b6:	1141                	addi	sp,sp,-16
    49b8:	c422                	sw	s0,8(sp)
    49ba:	c226                	sw	s1,4(sp)
    49bc:	84aa                	mv	s1,a0
    49be:	852e                	mv	a0,a1
    49c0:	85b2                	mv	a1,a2
    49c2:	c606                	sw	ra,12(sp)
    49c4:	8801a423          	sw	zero,-1912(gp) # 8c68 <errno>
    49c8:	9fbfb0ef          	jal	3c2 <_fstat>
    49cc:	57fd                	li	a5,-1
    49ce:	00f51663          	bne	a0,a5,49da <_fstat_r+0x24>
    49d2:	8881a783          	lw	a5,-1912(gp) # 8c68 <errno>
    49d6:	c391                	beqz	a5,49da <_fstat_r+0x24>
    49d8:	c09c                	sw	a5,0(s1)
    49da:	40b2                	lw	ra,12(sp)
    49dc:	4422                	lw	s0,8(sp)
    49de:	4492                	lw	s1,4(sp)
    49e0:	0141                	addi	sp,sp,16
    49e2:	8082                	ret

000049e4 <_isatty_r>:
    49e4:	1141                	addi	sp,sp,-16
    49e6:	c422                	sw	s0,8(sp)
    49e8:	c226                	sw	s1,4(sp)
    49ea:	84aa                	mv	s1,a0
    49ec:	852e                	mv	a0,a1
    49ee:	c606                	sw	ra,12(sp)
    49f0:	8801a423          	sw	zero,-1912(gp) # 8c68 <errno>
    49f4:	9dbfb0ef          	jal	3ce <_isatty>
    49f8:	57fd                	li	a5,-1
    49fa:	00f51663          	bne	a0,a5,4a06 <_isatty_r+0x22>
    49fe:	8881a783          	lw	a5,-1912(gp) # 8c68 <errno>
    4a02:	c391                	beqz	a5,4a06 <_isatty_r+0x22>
    4a04:	c09c                	sw	a5,0(s1)
    4a06:	40b2                	lw	ra,12(sp)
    4a08:	4422                	lw	s0,8(sp)
    4a0a:	4492                	lw	s1,4(sp)
    4a0c:	0141                	addi	sp,sp,16
    4a0e:	8082                	ret

00004a10 <__assert_func>:
    4a10:	86c1a783          	lw	a5,-1940(gp) # 8c4c <_impure_ptr>
    4a14:	1141                	addi	sp,sp,-16
    4a16:	8832                	mv	a6,a2
    4a18:	c606                	sw	ra,12(sp)
    4a1a:	88aa                	mv	a7,a0
    4a1c:	872e                	mv	a4,a1
    4a1e:	47c8                	lw	a0,12(a5)
    4a20:	8636                	mv	a2,a3
    4a22:	00080c63          	beqz	a6,4a3a <__assert_func+0x2a>
    4a26:	67a1                	lui	a5,0x8
    4a28:	e5878793          	addi	a5,a5,-424 # 7e58 <crc_32_tab+0x600>
    4a2c:	65a1                	lui	a1,0x8
    4a2e:	86c6                	mv	a3,a7
    4a30:	e6858593          	addi	a1,a1,-408 # 7e68 <crc_32_tab+0x610>
    4a34:	2225                	jal	4b5c <fiprintf>
    4a36:	2fb000ef          	jal	5530 <abort>
    4a3a:	67a1                	lui	a5,0x8
    4a3c:	c8078793          	addi	a5,a5,-896 # 7c80 <crc_32_tab+0x428>
    4a40:	883e                	mv	a6,a5
    4a42:	b7ed                	j	4a2c <__assert_func+0x1c>

00004a44 <__assert>:
    4a44:	1141                	addi	sp,sp,-16
    4a46:	86b2                	mv	a3,a2
    4a48:	4601                	li	a2,0
    4a4a:	c606                	sw	ra,12(sp)
    4a4c:	37d1                	jal	4a10 <__assert_func>

00004a4e <_calloc_r>:
    4a4e:	02c5b7b3          	mulhu	a5,a1,a2
    4a52:	1141                	addi	sp,sp,-16
    4a54:	c606                	sw	ra,12(sp)
    4a56:	c422                	sw	s0,8(sp)
    4a58:	02c585b3          	mul	a1,a1,a2
    4a5c:	cb99                	beqz	a5,4a72 <_calloc_r+0x24>
    4a5e:	2cd000ef          	jal	552a <__errno>
    4a62:	47b1                	li	a5,12
    4a64:	c11c                	sw	a5,0(a0)
    4a66:	4401                	li	s0,0
    4a68:	40b2                	lw	ra,12(sp)
    4a6a:	8522                	mv	a0,s0
    4a6c:	4422                	lw	s0,8(sp)
    4a6e:	0141                	addi	sp,sp,16
    4a70:	8082                	ret
    4a72:	ab0fc0ef          	jal	d22 <_malloc_r>
    4a76:	842a                	mv	s0,a0
    4a78:	d965                	beqz	a0,4a68 <_calloc_r+0x1a>
    4a7a:	ffc52603          	lw	a2,-4(a0)
    4a7e:	02400713          	li	a4,36
    4a82:	9a71                	andi	a2,a2,-4
    4a84:	1671                	addi	a2,a2,-4
    4a86:	04c76563          	bltu	a4,a2,4ad0 <_calloc_r+0x82>
    4a8a:	46cd                	li	a3,19
    4a8c:	87aa                	mv	a5,a0
    4a8e:	00c6fb63          	bgeu	a3,a2,4aa4 <_calloc_r+0x56>
    4a92:	00052023          	sw	zero,0(a0)
    4a96:	00052223          	sw	zero,4(a0)
    4a9a:	47ed                	li	a5,27
    4a9c:	00c7eb63          	bltu	a5,a2,4ab2 <_calloc_r+0x64>
    4aa0:	00850793          	addi	a5,a0,8
    4aa4:	0007a023          	sw	zero,0(a5)
    4aa8:	0007a223          	sw	zero,4(a5)
    4aac:	0007a423          	sw	zero,8(a5)
    4ab0:	bf65                	j	4a68 <_calloc_r+0x1a>
    4ab2:	00052423          	sw	zero,8(a0)
    4ab6:	00052623          	sw	zero,12(a0)
    4aba:	01050793          	addi	a5,a0,16
    4abe:	fee613e3          	bne	a2,a4,4aa4 <_calloc_r+0x56>
    4ac2:	00052823          	sw	zero,16(a0)
    4ac6:	01850793          	addi	a5,a0,24
    4aca:	00052a23          	sw	zero,20(a0)
    4ace:	bfd9                	j	4aa4 <_calloc_r+0x56>
    4ad0:	4581                	li	a1,0
    4ad2:	edbfb0ef          	jal	9ac <memset>
    4ad6:	bf49                	j	4a68 <_calloc_r+0x1a>

00004ad8 <_mbtowc_r>:
    4ad8:	67a5                	lui	a5,0x9
    4ada:	b547a783          	lw	a5,-1196(a5) # 8b54 <__global_locale+0xe4>
    4ade:	8782                	jr	a5

00004ae0 <__ascii_mbtowc>:
    4ae0:	e185                	bnez	a1,4b00 <__ascii_mbtowc+0x20>
    4ae2:	1141                	addi	sp,sp,-16
    4ae4:	006c                	addi	a1,sp,12
    4ae6:	4501                	li	a0,0
    4ae8:	ca11                	beqz	a2,4afc <__ascii_mbtowc+0x1c>
    4aea:	5579                	li	a0,-2
    4aec:	ca81                	beqz	a3,4afc <__ascii_mbtowc+0x1c>
    4aee:	00064783          	lbu	a5,0(a2)
    4af2:	c19c                	sw	a5,0(a1)
    4af4:	00064503          	lbu	a0,0(a2)
    4af8:	00a03533          	snez	a0,a0
    4afc:	0141                	addi	sp,sp,16
    4afe:	8082                	ret
    4b00:	4501                	li	a0,0
    4b02:	ca19                	beqz	a2,4b18 <__ascii_mbtowc+0x38>
    4b04:	5579                	li	a0,-2
    4b06:	ca89                	beqz	a3,4b18 <__ascii_mbtowc+0x38>
    4b08:	00064783          	lbu	a5,0(a2)
    4b0c:	c19c                	sw	a5,0(a1)
    4b0e:	00064503          	lbu	a0,0(a2)
    4b12:	00a03533          	snez	a0,a0
    4b16:	8082                	ret
    4b18:	8082                	ret

00004b1a <_wctomb_r>:
    4b1a:	67a5                	lui	a5,0x9
    4b1c:	b507a783          	lw	a5,-1200(a5) # 8b50 <__global_locale+0xe0>
    4b20:	8782                	jr	a5

00004b22 <__ascii_wctomb>:
    4b22:	cd91                	beqz	a1,4b3e <__ascii_wctomb+0x1c>
    4b24:	0ff00793          	li	a5,255
    4b28:	00c7f763          	bgeu	a5,a2,4b36 <__ascii_wctomb+0x14>
    4b2c:	08a00793          	li	a5,138
    4b30:	c11c                	sw	a5,0(a0)
    4b32:	557d                	li	a0,-1
    4b34:	8082                	ret
    4b36:	00c58023          	sb	a2,0(a1)
    4b3a:	4505                	li	a0,1
    4b3c:	8082                	ret
    4b3e:	4501                	li	a0,0
    4b40:	8082                	ret

00004b42 <_fiprintf_r>:
    4b42:	7139                	addi	sp,sp,-64
    4b44:	d636                	sw	a3,44(sp)
    4b46:	1074                	addi	a3,sp,44
    4b48:	ce06                	sw	ra,28(sp)
    4b4a:	d83a                	sw	a4,48(sp)
    4b4c:	da3e                	sw	a5,52(sp)
    4b4e:	dc42                	sw	a6,56(sp)
    4b50:	de46                	sw	a7,60(sp)
    4b52:	c636                	sw	a3,12(sp)
    4b54:	2035                	jal	4b80 <_vfiprintf_r>
    4b56:	40f2                	lw	ra,28(sp)
    4b58:	6121                	addi	sp,sp,64
    4b5a:	8082                	ret

00004b5c <fiprintf>:
    4b5c:	7139                	addi	sp,sp,-64
    4b5e:	da3e                	sw	a5,52(sp)
    4b60:	d432                	sw	a2,40(sp)
    4b62:	862e                	mv	a2,a1
    4b64:	85aa                	mv	a1,a0
    4b66:	86c1a503          	lw	a0,-1940(gp) # 8c4c <_impure_ptr>
    4b6a:	d636                	sw	a3,44(sp)
    4b6c:	1034                	addi	a3,sp,40
    4b6e:	ce06                	sw	ra,28(sp)
    4b70:	d83a                	sw	a4,48(sp)
    4b72:	dc42                	sw	a6,56(sp)
    4b74:	de46                	sw	a7,60(sp)
    4b76:	c636                	sw	a3,12(sp)
    4b78:	2021                	jal	4b80 <_vfiprintf_r>
    4b7a:	40f2                	lw	ra,28(sp)
    4b7c:	6121                	addi	sp,sp,64
    4b7e:	8082                	ret

00004b80 <_vfiprintf_r>:
    4b80:	7169                	addi	sp,sp,-304
    4b82:	12912223          	sw	s1,292(sp)
    4b86:	13212023          	sw	s2,288(sp)
    4b8a:	11312e23          	sw	s3,284(sp)
    4b8e:	12112623          	sw	ra,300(sp)
    4b92:	12812423          	sw	s0,296(sp)
    4b96:	11412c23          	sw	s4,280(sp)
    4b9a:	11512a23          	sw	s5,276(sp)
    4b9e:	11612823          	sw	s6,272(sp)
    4ba2:	11712623          	sw	s7,268(sp)
    4ba6:	11812423          	sw	s8,264(sp)
    4baa:	11912223          	sw	s9,260(sp)
    4bae:	11a12023          	sw	s10,256(sp)
    4bb2:	dfee                	sw	s11,252(sp)
    4bb4:	c42a                	sw	a0,8(sp)
    4bb6:	892e                	mv	s2,a1
    4bb8:	89b2                	mv	s3,a2
    4bba:	84b6                	mv	s1,a3
    4bbc:	c509                	beqz	a0,4bc6 <_vfiprintf_r+0x46>
    4bbe:	595c                	lw	a5,52(a0)
    4bc0:	e399                	bnez	a5,4bc6 <_vfiprintf_r+0x46>
    4bc2:	a89fb0ef          	jal	64a <__sinit>
    4bc6:	00c91703          	lh	a4,12(s2)
    4bca:	06492783          	lw	a5,100(s2)
    4bce:	01271693          	slli	a3,a4,0x12
    4bd2:	0806c163          	bltz	a3,4c54 <_vfiprintf_r+0xd4>
    4bd6:	6689                	lui	a3,0x2
    4bd8:	8f55                	or	a4,a4,a3
    4bda:	00e91623          	sh	a4,12(s2)
    4bde:	7779                	lui	a4,0xffffe
    4be0:	177d                	addi	a4,a4,-1 # ffffdfff <_sp+0xffff208f>
    4be2:	8ff9                	and	a5,a5,a4
    4be4:	06f92223          	sw	a5,100(s2)
    4be8:	00c95783          	lhu	a5,12(s2)
    4bec:	8ba1                	andi	a5,a5,8
    4bee:	c781                	beqz	a5,4bf6 <_vfiprintf_r+0x76>
    4bf0:	01092783          	lw	a5,16(s2)
    4bf4:	e791                	bnez	a5,4c00 <_vfiprintf_r+0x80>
    4bf6:	4522                	lw	a0,8(sp)
    4bf8:	85ca                	mv	a1,s2
    4bfa:	836fe0ef          	jal	2c30 <__swsetup_r>
    4bfe:	ed39                	bnez	a0,4c5c <_vfiprintf_r+0xdc>
    4c00:	00c95783          	lhu	a5,12(s2)
    4c04:	4729                	li	a4,10
    4c06:	8be9                	andi	a5,a5,26
    4c08:	04e79d63          	bne	a5,a4,4c62 <_vfiprintf_r+0xe2>
    4c0c:	00e91783          	lh	a5,14(s2)
    4c10:	0407c963          	bltz	a5,4c62 <_vfiprintf_r+0xe2>
    4c14:	12812403          	lw	s0,296(sp)
    4c18:	4522                	lw	a0,8(sp)
    4c1a:	12c12083          	lw	ra,300(sp)
    4c1e:	11812a03          	lw	s4,280(sp)
    4c22:	11412a83          	lw	s5,276(sp)
    4c26:	11012b03          	lw	s6,272(sp)
    4c2a:	10c12b83          	lw	s7,268(sp)
    4c2e:	10812c03          	lw	s8,264(sp)
    4c32:	10412c83          	lw	s9,260(sp)
    4c36:	10012d03          	lw	s10,256(sp)
    4c3a:	5dfe                	lw	s11,252(sp)
    4c3c:	86a6                	mv	a3,s1
    4c3e:	864e                	mv	a2,s3
    4c40:	12412483          	lw	s1,292(sp)
    4c44:	11c12983          	lw	s3,284(sp)
    4c48:	85ca                	mv	a1,s2
    4c4a:	12012903          	lw	s2,288(sp)
    4c4e:	6155                	addi	sp,sp,304
    4c50:	04f0006f          	j	549e <__sbprintf>
    4c54:	01279713          	slli	a4,a5,0x12
    4c58:	f80758e3          	bgez	a4,4be8 <_vfiprintf_r+0x68>
    4c5c:	5c7d                	li	s8,-1
    4c5e:	7de0006f          	j	543c <_vfiprintf_r+0x8bc>
    4c62:	67a1                	lui	a5,0x8
    4c64:	25478793          	addi	a5,a5,596 # 8254 <_ctype_+0x104>
    4c68:	d43e                	sw	a5,40(sp)
    4c6a:	67a1                	lui	a5,0x8
    4c6c:	04c10b93          	addi	s7,sp,76
    4c70:	3d078793          	addi	a5,a5,976 # 83d0 <zeroes.0>
    4c74:	c0de                	sw	s7,64(sp)
    4c76:	c482                	sw	zero,72(sp)
    4c78:	c282                	sw	zero,68(sp)
    4c7a:	8cde                	mv	s9,s7
    4c7c:	ca02                	sw	zero,20(sp)
    4c7e:	c602                	sw	zero,12(sp)
    4c80:	c802                	sw	zero,16(sp)
    4c82:	cc02                	sw	zero,24(sp)
    4c84:	4c01                	li	s8,0
    4c86:	d03e                	sw	a5,32(sp)
    4c88:	844e                	mv	s0,s3
    4c8a:	00044783          	lbu	a5,0(s0)
    4c8e:	c789                	beqz	a5,4c98 <_vfiprintf_r+0x118>
    4c90:	02500713          	li	a4,37
    4c94:	06e79763          	bne	a5,a4,4d02 <_vfiprintf_r+0x182>
    4c98:	41340ab3          	sub	s5,s0,s3
    4c9c:	03340963          	beq	s0,s3,4cce <_vfiprintf_r+0x14e>
    4ca0:	47a6                	lw	a5,72(sp)
    4ca2:	013ca023          	sw	s3,0(s9)
    4ca6:	015ca223          	sw	s5,4(s9)
    4caa:	97d6                	add	a5,a5,s5
    4cac:	c4be                	sw	a5,72(sp)
    4cae:	4796                	lw	a5,68(sp)
    4cb0:	471d                	li	a4,7
    4cb2:	0ca1                	addi	s9,s9,8
    4cb4:	0785                	addi	a5,a5,1
    4cb6:	c2be                	sw	a5,68(sp)
    4cb8:	00f75a63          	bge	a4,a5,4ccc <_vfiprintf_r+0x14c>
    4cbc:	4522                	lw	a0,8(sp)
    4cbe:	0090                	addi	a2,sp,64
    4cc0:	85ca                	mv	a1,s2
    4cc2:	a39fd0ef          	jal	26fa <__sprint_r>
    4cc6:	76051563          	bnez	a0,5430 <_vfiprintf_r+0x8b0>
    4cca:	8cde                	mv	s9,s7
    4ccc:	9c56                	add	s8,s8,s5
    4cce:	00044783          	lbu	a5,0(s0)
    4cd2:	74078863          	beqz	a5,5422 <_vfiprintf_r+0x8a2>
    4cd6:	00140713          	addi	a4,s0,1
    4cda:	02010da3          	sb	zero,59(sp)
    4cde:	547d                	li	s0,-1
    4ce0:	4a81                	li	s5,0
    4ce2:	4a01                	li	s4,0
    4ce4:	05a00b13          	li	s6,90
    4ce8:	00170993          	addi	s3,a4,1
    4cec:	00074703          	lbu	a4,0(a4)
    4cf0:	fe070693          	addi	a3,a4,-32
    4cf4:	4edb6e63          	bltu	s6,a3,51f0 <_vfiprintf_r+0x670>
    4cf8:	57a2                	lw	a5,40(sp)
    4cfa:	068a                	slli	a3,a3,0x2
    4cfc:	96be                	add	a3,a3,a5
    4cfe:	4294                	lw	a3,0(a3)
    4d00:	8682                	jr	a3
    4d02:	0405                	addi	s0,s0,1
    4d04:	b759                	j	4c8a <_vfiprintf_r+0x10a>
    4d06:	66a1                	lui	a3,0x8
    4d08:	d0868793          	addi	a5,a3,-760 # 7d08 <crc_32_tab+0x4b0>
    4d0c:	ca3e                	sw	a5,20(sp)
    4d0e:	020a7693          	andi	a3,s4,32
    4d12:	3c068063          	beqz	a3,50d2 <_vfiprintf_r+0x552>
    4d16:	049d                	addi	s1,s1,7
    4d18:	98e1                	andi	s1,s1,-8
    4d1a:	0004ab03          	lw	s6,0(s1)
    4d1e:	0044ad83          	lw	s11,4(s1)
    4d22:	00848d13          	addi	s10,s1,8
    4d26:	01bb66b3          	or	a3,s6,s11
    4d2a:	ce81                	beqz	a3,4d42 <_vfiprintf_r+0x1c2>
    4d2c:	001a7693          	andi	a3,s4,1
    4d30:	ca89                	beqz	a3,4d42 <_vfiprintf_r+0x1c2>
    4d32:	03000693          	li	a3,48
    4d36:	02d10e23          	sb	a3,60(sp)
    4d3a:	02e10ea3          	sb	a4,61(sp)
    4d3e:	002a6a13          	ori	s4,s4,2
    4d42:	bffa7a13          	andi	s4,s4,-1025
    4d46:	4681                	li	a3,0
    4d48:	ac79                	j	4fe6 <_vfiprintf_r+0x466>
    4d4a:	4522                	lw	a0,8(sp)
    4d4c:	fd3fd0ef          	jal	2d1e <_localeconv_r>
    4d50:	415c                	lw	a5,4(a0)
    4d52:	853e                	mv	a0,a5
    4d54:	cc3e                	sw	a5,24(sp)
    4d56:	c67fb0ef          	jal	9bc <strlen>
    4d5a:	c82a                	sw	a0,16(sp)
    4d5c:	4522                	lw	a0,8(sp)
    4d5e:	fc1fd0ef          	jal	2d1e <_localeconv_r>
    4d62:	451c                	lw	a5,8(a0)
    4d64:	c63e                	sw	a5,12(sp)
    4d66:	47c2                	lw	a5,16(sp)
    4d68:	cb81                	beqz	a5,4d78 <_vfiprintf_r+0x1f8>
    4d6a:	47b2                	lw	a5,12(sp)
    4d6c:	c791                	beqz	a5,4d78 <_vfiprintf_r+0x1f8>
    4d6e:	0007c703          	lbu	a4,0(a5)
    4d72:	c319                	beqz	a4,4d78 <_vfiprintf_r+0x1f8>
    4d74:	400a6a13          	ori	s4,s4,1024
    4d78:	874e                	mv	a4,s3
    4d7a:	b7bd                	j	4ce8 <_vfiprintf_r+0x168>
    4d7c:	03b14703          	lbu	a4,59(sp)
    4d80:	ff65                	bnez	a4,4d78 <_vfiprintf_r+0x1f8>
    4d82:	02000713          	li	a4,32
    4d86:	02e10da3          	sb	a4,59(sp)
    4d8a:	b7fd                	j	4d78 <_vfiprintf_r+0x1f8>
    4d8c:	001a6a13          	ori	s4,s4,1
    4d90:	b7e5                	j	4d78 <_vfiprintf_r+0x1f8>
    4d92:	0004aa83          	lw	s5,0(s1)
    4d96:	0491                	addi	s1,s1,4
    4d98:	fe0ad0e3          	bgez	s5,4d78 <_vfiprintf_r+0x1f8>
    4d9c:	41500ab3          	neg	s5,s5
    4da0:	004a6a13          	ori	s4,s4,4
    4da4:	bfd1                	j	4d78 <_vfiprintf_r+0x1f8>
    4da6:	02b00713          	li	a4,43
    4daa:	bff1                	j	4d86 <_vfiprintf_r+0x206>
    4dac:	0009c703          	lbu	a4,0(s3)
    4db0:	02a00613          	li	a2,42
    4db4:	00198693          	addi	a3,s3,1
    4db8:	02c71a63          	bne	a4,a2,4dec <_vfiprintf_r+0x26c>
    4dbc:	4080                	lw	s0,0(s1)
    4dbe:	00448713          	addi	a4,s1,4
    4dc2:	00045363          	bgez	s0,4dc8 <_vfiprintf_r+0x248>
    4dc6:	547d                	li	s0,-1
    4dc8:	84ba                	mv	s1,a4
    4dca:	89b6                	mv	s3,a3
    4dcc:	b775                	j	4d78 <_vfiprintf_r+0x1f8>
    4dce:	02a40433          	mul	s0,s0,a0
    4dd2:	0006c703          	lbu	a4,0(a3)
    4dd6:	0685                	addi	a3,a3,1
    4dd8:	9432                	add	s0,s0,a2
    4dda:	fd070613          	addi	a2,a4,-48
    4dde:	fec5f8e3          	bgeu	a1,a2,4dce <_vfiprintf_r+0x24e>
    4de2:	00045363          	bgez	s0,4de8 <_vfiprintf_r+0x268>
    4de6:	547d                	li	s0,-1
    4de8:	89b6                	mv	s3,a3
    4dea:	b719                	j	4cf0 <_vfiprintf_r+0x170>
    4dec:	4401                	li	s0,0
    4dee:	45a5                	li	a1,9
    4df0:	4529                	li	a0,10
    4df2:	b7e5                	j	4dda <_vfiprintf_r+0x25a>
    4df4:	080a6a13          	ori	s4,s4,128
    4df8:	b741                	j	4d78 <_vfiprintf_r+0x1f8>
    4dfa:	4a81                	li	s5,0
    4dfc:	45a9                	li	a1,10
    4dfe:	46a5                	li	a3,9
    4e00:	02ba8ab3          	mul	s5,s5,a1
    4e04:	fd070713          	addi	a4,a4,-48
    4e08:	0985                	addi	s3,s3,1
    4e0a:	9aba                	add	s5,s5,a4
    4e0c:	fff9c703          	lbu	a4,-1(s3)
    4e10:	fd070613          	addi	a2,a4,-48
    4e14:	fec6f6e3          	bgeu	a3,a2,4e00 <_vfiprintf_r+0x280>
    4e18:	bde1                	j	4cf0 <_vfiprintf_r+0x170>
    4e1a:	0009c683          	lbu	a3,0(s3)
    4e1e:	06800713          	li	a4,104
    4e22:	00e69663          	bne	a3,a4,4e2e <_vfiprintf_r+0x2ae>
    4e26:	0985                	addi	s3,s3,1
    4e28:	200a6a13          	ori	s4,s4,512
    4e2c:	b7b1                	j	4d78 <_vfiprintf_r+0x1f8>
    4e2e:	040a6a13          	ori	s4,s4,64
    4e32:	b799                	j	4d78 <_vfiprintf_r+0x1f8>
    4e34:	0009c683          	lbu	a3,0(s3)
    4e38:	06c00713          	li	a4,108
    4e3c:	00e69663          	bne	a3,a4,4e48 <_vfiprintf_r+0x2c8>
    4e40:	0985                	addi	s3,s3,1
    4e42:	020a6a13          	ori	s4,s4,32
    4e46:	bf0d                	j	4d78 <_vfiprintf_r+0x1f8>
    4e48:	010a6a13          	ori	s4,s4,16
    4e4c:	b735                	j	4d78 <_vfiprintf_r+0x1f8>
    4e4e:	4098                	lw	a4,0(s1)
    4e50:	00448d13          	addi	s10,s1,4
    4e54:	02010da3          	sb	zero,59(sp)
    4e58:	08e10623          	sb	a4,140(sp)
    4e5c:	4405                	li	s0,1
    4e5e:	4b01                	li	s6,0
    4e60:	0164                	addi	s1,sp,140
    4e62:	a265                	j	500a <_vfiprintf_r+0x48a>
    4e64:	010a6a13          	ori	s4,s4,16
    4e68:	020a7713          	andi	a4,s4,32
    4e6c:	c71d                	beqz	a4,4e9a <_vfiprintf_r+0x31a>
    4e6e:	049d                	addi	s1,s1,7
    4e70:	98e1                	andi	s1,s1,-8
    4e72:	0004ab03          	lw	s6,0(s1)
    4e76:	0044ad83          	lw	s11,4(s1)
    4e7a:	00848d13          	addi	s10,s1,8
    4e7e:	5e0ddb63          	bgez	s11,5474 <_vfiprintf_r+0x8f4>
    4e82:	01603733          	snez	a4,s6
    4e86:	41b00db3          	neg	s11,s11
    4e8a:	40ed8db3          	sub	s11,s11,a4
    4e8e:	41600b33          	neg	s6,s6
    4e92:	02d00693          	li	a3,45
    4e96:	4705                	li	a4,1
    4e98:	a04d                	j	4f3a <_vfiprintf_r+0x3ba>
    4e9a:	010a7713          	andi	a4,s4,16
    4e9e:	00448d13          	addi	s10,s1,4
    4ea2:	c711                	beqz	a4,4eae <_vfiprintf_r+0x32e>
    4ea4:	0004ab03          	lw	s6,0(s1)
    4ea8:	41fb5d93          	srai	s11,s6,0x1f
    4eac:	bfc9                	j	4e7e <_vfiprintf_r+0x2fe>
    4eae:	040a7713          	andi	a4,s4,64
    4eb2:	0004a803          	lw	a6,0(s1)
    4eb6:	c711                	beqz	a4,4ec2 <_vfiprintf_r+0x342>
    4eb8:	01081b13          	slli	s6,a6,0x10
    4ebc:	410b5b13          	srai	s6,s6,0x10
    4ec0:	b7e5                	j	4ea8 <_vfiprintf_r+0x328>
    4ec2:	200a7713          	andi	a4,s4,512
    4ec6:	8b42                	mv	s6,a6
    4ec8:	d365                	beqz	a4,4ea8 <_vfiprintf_r+0x328>
    4eca:	01881b13          	slli	s6,a6,0x18
    4ece:	418b5b13          	srai	s6,s6,0x18
    4ed2:	bfd9                	j	4ea8 <_vfiprintf_r+0x328>
    4ed4:	020a7693          	andi	a3,s4,32
    4ed8:	00448713          	addi	a4,s1,4
    4edc:	ca89                	beqz	a3,4eee <_vfiprintf_r+0x36e>
    4ede:	409c                	lw	a5,0(s1)
    4ee0:	41fc5693          	srai	a3,s8,0x1f
    4ee4:	0187a023          	sw	s8,0(a5)
    4ee8:	c3d4                	sw	a3,4(a5)
    4eea:	84ba                	mv	s1,a4
    4eec:	bb71                	j	4c88 <_vfiprintf_r+0x108>
    4eee:	010a7693          	andi	a3,s4,16
    4ef2:	c689                	beqz	a3,4efc <_vfiprintf_r+0x37c>
    4ef4:	409c                	lw	a5,0(s1)
    4ef6:	0187a023          	sw	s8,0(a5)
    4efa:	bfc5                	j	4eea <_vfiprintf_r+0x36a>
    4efc:	040a7693          	andi	a3,s4,64
    4f00:	c689                	beqz	a3,4f0a <_vfiprintf_r+0x38a>
    4f02:	409c                	lw	a5,0(s1)
    4f04:	01879023          	sh	s8,0(a5)
    4f08:	b7cd                	j	4eea <_vfiprintf_r+0x36a>
    4f0a:	200a7793          	andi	a5,s4,512
    4f0e:	d3fd                	beqz	a5,4ef4 <_vfiprintf_r+0x374>
    4f10:	409c                	lw	a5,0(s1)
    4f12:	01878023          	sb	s8,0(a5)
    4f16:	bfd1                	j	4eea <_vfiprintf_r+0x36a>
    4f18:	010a6a13          	ori	s4,s4,16
    4f1c:	020a7713          	andi	a4,s4,32
    4f20:	cf2d                	beqz	a4,4f9a <_vfiprintf_r+0x41a>
    4f22:	049d                	addi	s1,s1,7
    4f24:	98e1                	andi	s1,s1,-8
    4f26:	0004ab03          	lw	s6,0(s1)
    4f2a:	0044ad83          	lw	s11,4(s1)
    4f2e:	00848d13          	addi	s10,s1,8
    4f32:	bffa7a13          	andi	s4,s4,-1025
    4f36:	4681                	li	a3,0
    4f38:	4701                	li	a4,0
    4f3a:	02d10da3          	sb	a3,59(sp)
    4f3e:	86d2                	mv	a3,s4
    4f40:	1c045063          	bgez	s0,5100 <_vfiprintf_r+0x580>
    4f44:	4685                	li	a3,1
    4f46:	52d70963          	beq	a4,a3,5478 <_vfiprintf_r+0x8f8>
    4f4a:	4689                	li	a3,2
    4f4c:	1984                	addi	s1,sp,240
    4f4e:	26d70963          	beq	a4,a3,51c0 <_vfiprintf_r+0x640>
    4f52:	01dd9613          	slli	a2,s11,0x1d
    4f56:	007b7713          	andi	a4,s6,7
    4f5a:	003b5813          	srli	a6,s6,0x3
    4f5e:	86a6                	mv	a3,s1
    4f60:	03070713          	addi	a4,a4,48
    4f64:	01060b33          	add	s6,a2,a6
    4f68:	003ddd93          	srli	s11,s11,0x3
    4f6c:	01bb6633          	or	a2,s6,s11
    4f70:	fee48fa3          	sb	a4,-1(s1)
    4f74:	14fd                	addi	s1,s1,-1
    4f76:	fe71                	bnez	a2,4f52 <_vfiprintf_r+0x3d2>
    4f78:	fd070713          	addi	a4,a4,-48
    4f7c:	cb11                	beqz	a4,4f90 <_vfiprintf_r+0x410>
    4f7e:	001a7713          	andi	a4,s4,1
    4f82:	c719                	beqz	a4,4f90 <_vfiprintf_r+0x410>
    4f84:	03000713          	li	a4,48
    4f88:	fee48fa3          	sb	a4,-1(s1)
    4f8c:	ffe68493          	addi	s1,a3,-2
    4f90:	199c                	addi	a5,sp,240
    4f92:	8b22                	mv	s6,s0
    4f94:	40978433          	sub	s0,a5,s1
    4f98:	a88d                	j	500a <_vfiprintf_r+0x48a>
    4f9a:	010a7713          	andi	a4,s4,16
    4f9e:	00448d13          	addi	s10,s1,4
    4fa2:	c701                	beqz	a4,4faa <_vfiprintf_r+0x42a>
    4fa4:	0004ab03          	lw	s6,0(s1)
    4fa8:	a031                	j	4fb4 <_vfiprintf_r+0x434>
    4faa:	040a7713          	andi	a4,s4,64
    4fae:	c709                	beqz	a4,4fb8 <_vfiprintf_r+0x438>
    4fb0:	0004db03          	lhu	s6,0(s1)
    4fb4:	4d81                	li	s11,0
    4fb6:	bfb5                	j	4f32 <_vfiprintf_r+0x3b2>
    4fb8:	200a7713          	andi	a4,s4,512
    4fbc:	d765                	beqz	a4,4fa4 <_vfiprintf_r+0x424>
    4fbe:	0004cb03          	lbu	s6,0(s1)
    4fc2:	bfcd                	j	4fb4 <_vfiprintf_r+0x434>
    4fc4:	6721                	lui	a4,0x8
    4fc6:	83070713          	addi	a4,a4,-2000 # 7830 <unknown_msg+0x1e>
    4fca:	02e11e23          	sh	a4,60(sp)
    4fce:	0004ab03          	lw	s6,0(s1)
    4fd2:	6721                	lui	a4,0x8
    4fd4:	d0870793          	addi	a5,a4,-760 # 7d08 <crc_32_tab+0x4b0>
    4fd8:	00448d13          	addi	s10,s1,4
    4fdc:	4d81                	li	s11,0
    4fde:	002a6a13          	ori	s4,s4,2
    4fe2:	4681                	li	a3,0
    4fe4:	ca3e                	sw	a5,20(sp)
    4fe6:	4709                	li	a4,2
    4fe8:	bf89                	j	4f3a <_vfiprintf_r+0x3ba>
    4fea:	02010da3          	sb	zero,59(sp)
    4fee:	00448d13          	addi	s10,s1,4
    4ff2:	4084                	lw	s1,0(s1)
    4ff4:	08044163          	bltz	s0,5076 <_vfiprintf_r+0x4f6>
    4ff8:	8622                	mv	a2,s0
    4ffa:	4581                	li	a1,0
    4ffc:	8526                	mv	a0,s1
    4ffe:	d95fd0ef          	jal	2d92 <memchr>
    5002:	4b01                	li	s6,0
    5004:	c119                	beqz	a0,500a <_vfiprintf_r+0x48a>
    5006:	40950433          	sub	s0,a0,s1
    500a:	8dda                	mv	s11,s6
    500c:	008b5363          	bge	s6,s0,5012 <_vfiprintf_r+0x492>
    5010:	8da2                	mv	s11,s0
    5012:	03b14703          	lbu	a4,59(sp)
    5016:	002a7793          	andi	a5,s4,2
    501a:	ce3e                	sw	a5,28(sp)
    501c:	00e03733          	snez	a4,a4
    5020:	9dba                	add	s11,s11,a4
    5022:	c391                	beqz	a5,5026 <_vfiprintf_r+0x4a6>
    5024:	0d89                	addi	s11,s11,2
    5026:	084a7793          	andi	a5,s4,132
    502a:	d23e                	sw	a5,36(sp)
    502c:	1c079a63          	bnez	a5,5200 <_vfiprintf_r+0x680>
    5030:	41ba8733          	sub	a4,s5,s11
    5034:	1ce05663          	blez	a4,5200 <_vfiprintf_r+0x680>
    5038:	6821                	lui	a6,0x8
    503a:	48c1                	li	a7,16
    503c:	3c080813          	addi	a6,a6,960 # 83c0 <blanks.1>
    5040:	431d                	li	t1,7
    5042:	4696                	lw	a3,68(sp)
    5044:	010ca023          	sw	a6,0(s9)
    5048:	45a6                	lw	a1,72(sp)
    504a:	0685                	addi	a3,a3,1
    504c:	008c8613          	addi	a2,s9,8
    5050:	2ee8c663          	blt	a7,a4,533c <_vfiprintf_r+0x7bc>
    5054:	00eca223          	sw	a4,4(s9)
    5058:	972e                	add	a4,a4,a1
    505a:	c4ba                	sw	a4,72(sp)
    505c:	c2b6                	sw	a3,68(sp)
    505e:	471d                	li	a4,7
    5060:	1ad75163          	bge	a4,a3,5202 <_vfiprintf_r+0x682>
    5064:	4522                	lw	a0,8(sp)
    5066:	0090                	addi	a2,sp,64
    5068:	85ca                	mv	a1,s2
    506a:	e90fd0ef          	jal	26fa <__sprint_r>
    506e:	3c051163          	bnez	a0,5430 <_vfiprintf_r+0x8b0>
    5072:	865e                	mv	a2,s7
    5074:	a279                	j	5202 <_vfiprintf_r+0x682>
    5076:	8526                	mv	a0,s1
    5078:	945fb0ef          	jal	9bc <strlen>
    507c:	842a                	mv	s0,a0
    507e:	4b01                	li	s6,0
    5080:	b769                	j	500a <_vfiprintf_r+0x48a>
    5082:	010a6a13          	ori	s4,s4,16
    5086:	020a7713          	andi	a4,s4,32
    508a:	cb19                	beqz	a4,50a0 <_vfiprintf_r+0x520>
    508c:	049d                	addi	s1,s1,7
    508e:	98e1                	andi	s1,s1,-8
    5090:	0004ab03          	lw	s6,0(s1)
    5094:	0044ad83          	lw	s11,4(s1)
    5098:	00848d13          	addi	s10,s1,8
    509c:	4681                	li	a3,0
    509e:	bbe5                	j	4e96 <_vfiprintf_r+0x316>
    50a0:	010a7713          	andi	a4,s4,16
    50a4:	00448d13          	addi	s10,s1,4
    50a8:	c701                	beqz	a4,50b0 <_vfiprintf_r+0x530>
    50aa:	0004ab03          	lw	s6,0(s1)
    50ae:	a031                	j	50ba <_vfiprintf_r+0x53a>
    50b0:	040a7713          	andi	a4,s4,64
    50b4:	c709                	beqz	a4,50be <_vfiprintf_r+0x53e>
    50b6:	0004db03          	lhu	s6,0(s1)
    50ba:	4d81                	li	s11,0
    50bc:	b7c5                	j	509c <_vfiprintf_r+0x51c>
    50be:	200a7713          	andi	a4,s4,512
    50c2:	d765                	beqz	a4,50aa <_vfiprintf_r+0x52a>
    50c4:	0004cb03          	lbu	s6,0(s1)
    50c8:	bfcd                	j	50ba <_vfiprintf_r+0x53a>
    50ca:	66a1                	lui	a3,0x8
    50cc:	d1c68793          	addi	a5,a3,-740 # 7d1c <crc_32_tab+0x4c4>
    50d0:	b935                	j	4d0c <_vfiprintf_r+0x18c>
    50d2:	010a7693          	andi	a3,s4,16
    50d6:	00448d13          	addi	s10,s1,4
    50da:	c681                	beqz	a3,50e2 <_vfiprintf_r+0x562>
    50dc:	0004ab03          	lw	s6,0(s1)
    50e0:	a031                	j	50ec <_vfiprintf_r+0x56c>
    50e2:	040a7693          	andi	a3,s4,64
    50e6:	c689                	beqz	a3,50f0 <_vfiprintf_r+0x570>
    50e8:	0004db03          	lhu	s6,0(s1)
    50ec:	4d81                	li	s11,0
    50ee:	b925                	j	4d26 <_vfiprintf_r+0x1a6>
    50f0:	200a7693          	andi	a3,s4,512
    50f4:	d6e5                	beqz	a3,50dc <_vfiprintf_r+0x55c>
    50f6:	0004cb03          	lbu	s6,0(s1)
    50fa:	bfcd                	j	50ec <_vfiprintf_r+0x56c>
    50fc:	86d2                	mv	a3,s4
    50fe:	4705                	li	a4,1
    5100:	01bb6633          	or	a2,s6,s11
    5104:	f7fa7a13          	andi	s4,s4,-129
    5108:	e2061ee3          	bnez	a2,4f44 <_vfiprintf_r+0x3c4>
    510c:	e2041ce3          	bnez	s0,4f44 <_vfiprintf_r+0x3c4>
    5110:	ef69                	bnez	a4,51ea <_vfiprintf_r+0x66a>
    5112:	0016f413          	andi	s0,a3,1
    5116:	1984                	addi	s1,sp,240
    5118:	e6040ce3          	beqz	s0,4f90 <_vfiprintf_r+0x410>
    511c:	03000713          	li	a4,48
    5120:	0ee107a3          	sb	a4,239(sp)
    5124:	4401                	li	s0,0
    5126:	a695                	j	548a <_vfiprintf_r+0x90a>
    5128:	400a7793          	andi	a5,s4,1024
    512c:	d23e                	sw	a5,36(sp)
    512e:	199c                	addi	a5,sp,240
    5130:	4701                	li	a4,0
    5132:	ce3e                	sw	a5,28(sp)
    5134:	47f2                	lw	a5,28(sp)
    5136:	4629                	li	a2,10
    5138:	4681                	li	a3,0
    513a:	855a                	mv	a0,s6
    513c:	85ee                	mv	a1,s11
    513e:	d63a                	sw	a4,44(sp)
    5140:	fff78493          	addi	s1,a5,-1
    5144:	095000ef          	jal	59d8 <__umoddi3>
    5148:	47f2                	lw	a5,28(sp)
    514a:	03050513          	addi	a0,a0,48
    514e:	5732                	lw	a4,44(sp)
    5150:	fea78fa3          	sb	a0,-1(a5)
    5154:	5792                	lw	a5,36(sp)
    5156:	0705                	addi	a4,a4,1
    5158:	c7a9                	beqz	a5,51a2 <_vfiprintf_r+0x622>
    515a:	47b2                	lw	a5,12(sp)
    515c:	0007c683          	lbu	a3,0(a5)
    5160:	f0168613          	addi	a2,a3,-255
    5164:	ce1d                	beqz	a2,51a2 <_vfiprintf_r+0x622>
    5166:	02e69e63          	bne	a3,a4,51a2 <_vfiprintf_r+0x622>
    516a:	000d9563          	bnez	s11,5174 <_vfiprintf_r+0x5f4>
    516e:	4725                	li	a4,9
    5170:	e36770e3          	bgeu	a4,s6,4f90 <_vfiprintf_r+0x410>
    5174:	47c2                	lw	a5,16(sp)
    5176:	45e2                	lw	a1,24(sp)
    5178:	8c9d                	sub	s1,s1,a5
    517a:	863e                	mv	a2,a5
    517c:	8526                	mv	a0,s1
    517e:	b77fd0ef          	jal	2cf4 <strncpy>
    5182:	47b2                	lw	a5,12(sp)
    5184:	0017c703          	lbu	a4,1(a5)
    5188:	c319                	beqz	a4,518e <_vfiprintf_r+0x60e>
    518a:	0785                	addi	a5,a5,1
    518c:	c63e                	sw	a5,12(sp)
    518e:	855a                	mv	a0,s6
    5190:	85ee                	mv	a1,s11
    5192:	4629                	li	a2,10
    5194:	4681                	li	a3,0
    5196:	2b35                	jal	56d2 <__udivdi3>
    5198:	8b2a                	mv	s6,a0
    519a:	8dae                	mv	s11,a1
    519c:	4701                	li	a4,0
    519e:	ce26                	sw	s1,28(sp)
    51a0:	bf51                	j	5134 <_vfiprintf_r+0x5b4>
    51a2:	000d9563          	bnez	s11,51ac <_vfiprintf_r+0x62c>
    51a6:	46a5                	li	a3,9
    51a8:	df66f4e3          	bgeu	a3,s6,4f90 <_vfiprintf_r+0x410>
    51ac:	855a                	mv	a0,s6
    51ae:	85ee                	mv	a1,s11
    51b0:	4629                	li	a2,10
    51b2:	4681                	li	a3,0
    51b4:	ce3a                	sw	a4,28(sp)
    51b6:	2b31                	jal	56d2 <__udivdi3>
    51b8:	4772                	lw	a4,28(sp)
    51ba:	8b2a                	mv	s6,a0
    51bc:	8dae                	mv	s11,a1
    51be:	b7c5                	j	519e <_vfiprintf_r+0x61e>
    51c0:	47d2                	lw	a5,20(sp)
    51c2:	00fb7713          	andi	a4,s6,15
    51c6:	14fd                	addi	s1,s1,-1
    51c8:	973e                	add	a4,a4,a5
    51ca:	00074703          	lbu	a4,0(a4)
    51ce:	004b5813          	srli	a6,s6,0x4
    51d2:	00e48023          	sb	a4,0(s1)
    51d6:	01cd9713          	slli	a4,s11,0x1c
    51da:	01070b33          	add	s6,a4,a6
    51de:	004ddd93          	srli	s11,s11,0x4
    51e2:	01bb6733          	or	a4,s6,s11
    51e6:	ff69                	bnez	a4,51c0 <_vfiprintf_r+0x640>
    51e8:	b365                	j	4f90 <_vfiprintf_r+0x410>
    51ea:	4401                	li	s0,0
    51ec:	1984                	addi	s1,sp,240
    51ee:	b34d                	j	4f90 <_vfiprintf_r+0x410>
    51f0:	22070963          	beqz	a4,5422 <_vfiprintf_r+0x8a2>
    51f4:	08e10623          	sb	a4,140(sp)
    51f8:	02010da3          	sb	zero,59(sp)
    51fc:	8d26                	mv	s10,s1
    51fe:	b9b9                	j	4e5c <_vfiprintf_r+0x2dc>
    5200:	8666                	mv	a2,s9
    5202:	03b14703          	lbu	a4,59(sp)
    5206:	cb05                	beqz	a4,5236 <_vfiprintf_r+0x6b6>
    5208:	46a6                	lw	a3,72(sp)
    520a:	4716                	lw	a4,68(sp)
    520c:	03b10593          	addi	a1,sp,59
    5210:	c20c                	sw	a1,0(a2)
    5212:	4585                	li	a1,1
    5214:	96ae                	add	a3,a3,a1
    5216:	0705                	addi	a4,a4,1
    5218:	c24c                	sw	a1,4(a2)
    521a:	c4b6                	sw	a3,72(sp)
    521c:	c2ba                	sw	a4,68(sp)
    521e:	469d                	li	a3,7
    5220:	0621                	addi	a2,a2,8
    5222:	00e6da63          	bge	a3,a4,5236 <_vfiprintf_r+0x6b6>
    5226:	4522                	lw	a0,8(sp)
    5228:	0090                	addi	a2,sp,64
    522a:	85ca                	mv	a1,s2
    522c:	ccefd0ef          	jal	26fa <__sprint_r>
    5230:	20051063          	bnez	a0,5430 <_vfiprintf_r+0x8b0>
    5234:	865e                	mv	a2,s7
    5236:	47f2                	lw	a5,28(sp)
    5238:	c79d                	beqz	a5,5266 <_vfiprintf_r+0x6e6>
    523a:	46a6                	lw	a3,72(sp)
    523c:	4716                	lw	a4,68(sp)
    523e:	186c                	addi	a1,sp,60
    5240:	c20c                	sw	a1,0(a2)
    5242:	4589                	li	a1,2
    5244:	96ae                	add	a3,a3,a1
    5246:	0705                	addi	a4,a4,1
    5248:	c24c                	sw	a1,4(a2)
    524a:	c4b6                	sw	a3,72(sp)
    524c:	c2ba                	sw	a4,68(sp)
    524e:	469d                	li	a3,7
    5250:	0621                	addi	a2,a2,8
    5252:	00e6da63          	bge	a3,a4,5266 <_vfiprintf_r+0x6e6>
    5256:	4522                	lw	a0,8(sp)
    5258:	0090                	addi	a2,sp,64
    525a:	85ca                	mv	a1,s2
    525c:	c9efd0ef          	jal	26fa <__sprint_r>
    5260:	1c051863          	bnez	a0,5430 <_vfiprintf_r+0x8b0>
    5264:	865e                	mv	a2,s7
    5266:	5792                	lw	a5,36(sp)
    5268:	08000713          	li	a4,128
    526c:	10e78063          	beq	a5,a4,536c <_vfiprintf_r+0x7ec>
    5270:	8732                	mv	a4,a2
    5272:	408b0b33          	sub	s6,s6,s0
    5276:	03605e63          	blez	s6,52b2 <_vfiprintf_r+0x732>
    527a:	4cc1                	li	s9,16
    527c:	481d                	li	a6,7
    527e:	5782                	lw	a5,32(sp)
    5280:	4696                	lw	a3,68(sp)
    5282:	4626                	lw	a2,72(sp)
    5284:	c31c                	sw	a5,0(a4)
    5286:	0685                	addi	a3,a3,1
    5288:	00870593          	addi	a1,a4,8
    528c:	156cc863          	blt	s9,s6,53dc <_vfiprintf_r+0x85c>
    5290:	01672223          	sw	s6,4(a4)
    5294:	9b32                	add	s6,s6,a2
    5296:	c4da                	sw	s6,72(sp)
    5298:	c2b6                	sw	a3,68(sp)
    529a:	461d                	li	a2,7
    529c:	872e                	mv	a4,a1
    529e:	00d65a63          	bge	a2,a3,52b2 <_vfiprintf_r+0x732>
    52a2:	4522                	lw	a0,8(sp)
    52a4:	0090                	addi	a2,sp,64
    52a6:	85ca                	mv	a1,s2
    52a8:	c52fd0ef          	jal	26fa <__sprint_r>
    52ac:	18051263          	bnez	a0,5430 <_vfiprintf_r+0x8b0>
    52b0:	875e                	mv	a4,s7
    52b2:	46a6                	lw	a3,72(sp)
    52b4:	c304                	sw	s1,0(a4)
    52b6:	c340                	sw	s0,4(a4)
    52b8:	96a2                	add	a3,a3,s0
    52ba:	c4b6                	sw	a3,72(sp)
    52bc:	4696                	lw	a3,68(sp)
    52be:	461d                	li	a2,7
    52c0:	0721                	addi	a4,a4,8
    52c2:	0685                	addi	a3,a3,1
    52c4:	c2b6                	sw	a3,68(sp)
    52c6:	00d65a63          	bge	a2,a3,52da <_vfiprintf_r+0x75a>
    52ca:	4522                	lw	a0,8(sp)
    52cc:	0090                	addi	a2,sp,64
    52ce:	85ca                	mv	a1,s2
    52d0:	c2afd0ef          	jal	26fa <__sprint_r>
    52d4:	14051e63          	bnez	a0,5430 <_vfiprintf_r+0x8b0>
    52d8:	875e                	mv	a4,s7
    52da:	004a7793          	andi	a5,s4,4
    52de:	cf95                	beqz	a5,531a <_vfiprintf_r+0x79a>
    52e0:	41ba8433          	sub	s0,s5,s11
    52e4:	02805b63          	blez	s0,531a <_vfiprintf_r+0x79a>
    52e8:	64a1                	lui	s1,0x8
    52ea:	4b41                	li	s6,16
    52ec:	3c048493          	addi	s1,s1,960 # 83c0 <blanks.1>
    52f0:	4c9d                	li	s9,7
    52f2:	4796                	lw	a5,68(sp)
    52f4:	c304                	sw	s1,0(a4)
    52f6:	46a6                	lw	a3,72(sp)
    52f8:	0785                	addi	a5,a5,1
    52fa:	108b4363          	blt	s6,s0,5400 <_vfiprintf_r+0x880>
    52fe:	c340                	sw	s0,4(a4)
    5300:	9436                	add	s0,s0,a3
    5302:	c4a2                	sw	s0,72(sp)
    5304:	c2be                	sw	a5,68(sp)
    5306:	471d                	li	a4,7
    5308:	00f75963          	bge	a4,a5,531a <_vfiprintf_r+0x79a>
    530c:	4522                	lw	a0,8(sp)
    530e:	0090                	addi	a2,sp,64
    5310:	85ca                	mv	a1,s2
    5312:	be8fd0ef          	jal	26fa <__sprint_r>
    5316:	10051d63          	bnez	a0,5430 <_vfiprintf_r+0x8b0>
    531a:	01bad363          	bge	s5,s11,5320 <_vfiprintf_r+0x7a0>
    531e:	8aee                	mv	s5,s11
    5320:	47a6                	lw	a5,72(sp)
    5322:	9c56                	add	s8,s8,s5
    5324:	cb81                	beqz	a5,5334 <_vfiprintf_r+0x7b4>
    5326:	4522                	lw	a0,8(sp)
    5328:	0090                	addi	a2,sp,64
    532a:	85ca                	mv	a1,s2
    532c:	bcefd0ef          	jal	26fa <__sprint_r>
    5330:	10051063          	bnez	a0,5430 <_vfiprintf_r+0x8b0>
    5334:	c282                	sw	zero,68(sp)
    5336:	84ea                	mv	s1,s10
    5338:	8cde                	mv	s9,s7
    533a:	b2b9                	j	4c88 <_vfiprintf_r+0x108>
    533c:	05c1                	addi	a1,a1,16
    533e:	011ca223          	sw	a7,4(s9)
    5342:	c4ae                	sw	a1,72(sp)
    5344:	c2b6                	sw	a3,68(sp)
    5346:	02d35063          	bge	t1,a3,5366 <_vfiprintf_r+0x7e6>
    534a:	4522                	lw	a0,8(sp)
    534c:	0090                	addi	a2,sp,64
    534e:	85ca                	mv	a1,s2
    5350:	d63a                	sw	a4,44(sp)
    5352:	ba8fd0ef          	jal	26fa <__sprint_r>
    5356:	ed69                	bnez	a0,5430 <_vfiprintf_r+0x8b0>
    5358:	5732                	lw	a4,44(sp)
    535a:	67a1                	lui	a5,0x8
    535c:	865e                	mv	a2,s7
    535e:	431d                	li	t1,7
    5360:	3c078813          	addi	a6,a5,960 # 83c0 <blanks.1>
    5364:	48c1                	li	a7,16
    5366:	1741                	addi	a4,a4,-16
    5368:	8cb2                	mv	s9,a2
    536a:	b9e1                	j	5042 <_vfiprintf_r+0x4c2>
    536c:	41ba8cb3          	sub	s9,s5,s11
    5370:	f19050e3          	blez	s9,5270 <_vfiprintf_r+0x6f0>
    5374:	6821                	lui	a6,0x8
    5376:	48c1                	li	a7,16
    5378:	3d080813          	addi	a6,a6,976 # 83d0 <zeroes.0>
    537c:	431d                	li	t1,7
    537e:	4696                	lw	a3,68(sp)
    5380:	01062023          	sw	a6,0(a2)
    5384:	45a6                	lw	a1,72(sp)
    5386:	0685                	addi	a3,a3,1
    5388:	00860713          	addi	a4,a2,8
    538c:	0398c263          	blt	a7,s9,53b0 <_vfiprintf_r+0x830>
    5390:	01962223          	sw	s9,4(a2)
    5394:	9cae                	add	s9,s9,a1
    5396:	c4e6                	sw	s9,72(sp)
    5398:	c2b6                	sw	a3,68(sp)
    539a:	461d                	li	a2,7
    539c:	ecd65be3          	bge	a2,a3,5272 <_vfiprintf_r+0x6f2>
    53a0:	4522                	lw	a0,8(sp)
    53a2:	0090                	addi	a2,sp,64
    53a4:	85ca                	mv	a1,s2
    53a6:	b54fd0ef          	jal	26fa <__sprint_r>
    53aa:	e159                	bnez	a0,5430 <_vfiprintf_r+0x8b0>
    53ac:	875e                	mv	a4,s7
    53ae:	b5d1                	j	5272 <_vfiprintf_r+0x6f2>
    53b0:	05c1                	addi	a1,a1,16
    53b2:	01162223          	sw	a7,4(a2)
    53b6:	c4ae                	sw	a1,72(sp)
    53b8:	c2b6                	sw	a3,68(sp)
    53ba:	00d35e63          	bge	t1,a3,53d6 <_vfiprintf_r+0x856>
    53be:	4522                	lw	a0,8(sp)
    53c0:	0090                	addi	a2,sp,64
    53c2:	85ca                	mv	a1,s2
    53c4:	b36fd0ef          	jal	26fa <__sprint_r>
    53c8:	e525                	bnez	a0,5430 <_vfiprintf_r+0x8b0>
    53ca:	67a1                	lui	a5,0x8
    53cc:	875e                	mv	a4,s7
    53ce:	431d                	li	t1,7
    53d0:	3d078813          	addi	a6,a5,976 # 83d0 <zeroes.0>
    53d4:	48c1                	li	a7,16
    53d6:	1cc1                	addi	s9,s9,-16
    53d8:	863a                	mv	a2,a4
    53da:	b755                	j	537e <_vfiprintf_r+0x7fe>
    53dc:	0641                	addi	a2,a2,16
    53de:	01972223          	sw	s9,4(a4)
    53e2:	c4b2                	sw	a2,72(sp)
    53e4:	c2b6                	sw	a3,68(sp)
    53e6:	00d85a63          	bge	a6,a3,53fa <_vfiprintf_r+0x87a>
    53ea:	4522                	lw	a0,8(sp)
    53ec:	0090                	addi	a2,sp,64
    53ee:	85ca                	mv	a1,s2
    53f0:	b0afd0ef          	jal	26fa <__sprint_r>
    53f4:	ed15                	bnez	a0,5430 <_vfiprintf_r+0x8b0>
    53f6:	85de                	mv	a1,s7
    53f8:	481d                	li	a6,7
    53fa:	1b41                	addi	s6,s6,-16
    53fc:	872e                	mv	a4,a1
    53fe:	b541                	j	527e <_vfiprintf_r+0x6fe>
    5400:	06c1                	addi	a3,a3,16
    5402:	01672223          	sw	s6,4(a4)
    5406:	c4b6                	sw	a3,72(sp)
    5408:	c2be                	sw	a5,68(sp)
    540a:	0721                	addi	a4,a4,8
    540c:	00fcd963          	bge	s9,a5,541e <_vfiprintf_r+0x89e>
    5410:	4522                	lw	a0,8(sp)
    5412:	0090                	addi	a2,sp,64
    5414:	85ca                	mv	a1,s2
    5416:	ae4fd0ef          	jal	26fa <__sprint_r>
    541a:	e919                	bnez	a0,5430 <_vfiprintf_r+0x8b0>
    541c:	875e                	mv	a4,s7
    541e:	1441                	addi	s0,s0,-16
    5420:	bdc9                	j	52f2 <_vfiprintf_r+0x772>
    5422:	47a6                	lw	a5,72(sp)
    5424:	c791                	beqz	a5,5430 <_vfiprintf_r+0x8b0>
    5426:	4522                	lw	a0,8(sp)
    5428:	0090                	addi	a2,sp,64
    542a:	85ca                	mv	a1,s2
    542c:	acefd0ef          	jal	26fa <__sprint_r>
    5430:	00c95783          	lhu	a5,12(s2)
    5434:	0407f793          	andi	a5,a5,64
    5438:	820792e3          	bnez	a5,4c5c <_vfiprintf_r+0xdc>
    543c:	12c12083          	lw	ra,300(sp)
    5440:	12812403          	lw	s0,296(sp)
    5444:	12412483          	lw	s1,292(sp)
    5448:	12012903          	lw	s2,288(sp)
    544c:	11c12983          	lw	s3,284(sp)
    5450:	11812a03          	lw	s4,280(sp)
    5454:	11412a83          	lw	s5,276(sp)
    5458:	11012b03          	lw	s6,272(sp)
    545c:	10c12b83          	lw	s7,268(sp)
    5460:	10412c83          	lw	s9,260(sp)
    5464:	10012d03          	lw	s10,256(sp)
    5468:	5dfe                	lw	s11,252(sp)
    546a:	8562                	mv	a0,s8
    546c:	10812c03          	lw	s8,264(sp)
    5470:	6155                	addi	sp,sp,304
    5472:	8082                	ret
    5474:	c80454e3          	bgez	s0,50fc <_vfiprintf_r+0x57c>
    5478:	ca0d98e3          	bnez	s11,5128 <_vfiprintf_r+0x5a8>
    547c:	4725                	li	a4,9
    547e:	cb6765e3          	bltu	a4,s6,5128 <_vfiprintf_r+0x5a8>
    5482:	030b0813          	addi	a6,s6,48
    5486:	0f0107a3          	sb	a6,239(sp)
    548a:	0ef10493          	addi	s1,sp,239
    548e:	b609                	j	4f90 <_vfiprintf_r+0x410>

00005490 <vfiprintf>:
    5490:	86b2                	mv	a3,a2
    5492:	862e                	mv	a2,a1
    5494:	85aa                	mv	a1,a0
    5496:	86c1a503          	lw	a0,-1940(gp) # 8c4c <_impure_ptr>
    549a:	ee6ff06f          	j	4b80 <_vfiprintf_r>

0000549e <__sbprintf>:
    549e:	00c5d783          	lhu	a5,12(a1)
    54a2:	b8010113          	addi	sp,sp,-1152
    54a6:	46812c23          	sw	s0,1144(sp)
    54aa:	9bf5                	andi	a5,a5,-3
    54ac:	00f11a23          	sh	a5,20(sp)
    54b0:	51fc                	lw	a5,100(a1)
    54b2:	842e                	mv	s0,a1
    54b4:	46912a23          	sw	s1,1140(sp)
    54b8:	d6be                	sw	a5,108(sp)
    54ba:	00e5d783          	lhu	a5,14(a1)
    54be:	47212823          	sw	s2,1136(sp)
    54c2:	46112e23          	sw	ra,1148(sp)
    54c6:	00f11b23          	sh	a5,22(sp)
    54ca:	4ddc                	lw	a5,28(a1)
    54cc:	892a                	mv	s2,a0
    54ce:	d002                	sw	zero,32(sp)
    54d0:	d23e                	sw	a5,36(sp)
    54d2:	51dc                	lw	a5,36(a1)
    54d4:	002c                	addi	a1,sp,8
    54d6:	d63e                	sw	a5,44(sp)
    54d8:	189c                	addi	a5,sp,112
    54da:	c43e                	sw	a5,8(sp)
    54dc:	cc3e                	sw	a5,24(sp)
    54de:	40000793          	li	a5,1024
    54e2:	c83e                	sw	a5,16(sp)
    54e4:	ce3e                	sw	a5,28(sp)
    54e6:	e9aff0ef          	jal	4b80 <_vfiprintf_r>
    54ea:	84aa                	mv	s1,a0
    54ec:	00054863          	bltz	a0,54fc <__sbprintf+0x5e>
    54f0:	002c                	addi	a1,sp,8
    54f2:	854a                	mv	a0,s2
    54f4:	c1cfd0ef          	jal	2910 <_fflush_r>
    54f8:	c111                	beqz	a0,54fc <__sbprintf+0x5e>
    54fa:	54fd                	li	s1,-1
    54fc:	01415783          	lhu	a5,20(sp)
    5500:	0407f793          	andi	a5,a5,64
    5504:	c799                	beqz	a5,5512 <__sbprintf+0x74>
    5506:	00c45783          	lhu	a5,12(s0)
    550a:	0407e793          	ori	a5,a5,64
    550e:	00f41623          	sh	a5,12(s0)
    5512:	47c12083          	lw	ra,1148(sp)
    5516:	47812403          	lw	s0,1144(sp)
    551a:	47012903          	lw	s2,1136(sp)
    551e:	8526                	mv	a0,s1
    5520:	47412483          	lw	s1,1140(sp)
    5524:	48010113          	addi	sp,sp,1152
    5528:	8082                	ret

0000552a <__errno>:
    552a:	86c1a503          	lw	a0,-1940(gp) # 8c4c <_impure_ptr>
    552e:	8082                	ret

00005530 <abort>:
    5530:	1141                	addi	sp,sp,-16
    5532:	4519                	li	a0,6
    5534:	c606                	sw	ra,12(sp)
    5536:	22a9                	jal	5680 <raise>
    5538:	4505                	li	a0,1
    553a:	e7ffa0ef          	jal	3b8 <_exit>

0000553e <_init_signal_r>:
    553e:	11852703          	lw	a4,280(a0)
    5542:	c701                	beqz	a4,554a <_init_signal_r+0xc>
    5544:	4781                	li	a5,0
    5546:	853e                	mv	a0,a5
    5548:	8082                	ret
    554a:	1101                	addi	sp,sp,-32
    554c:	08000593          	li	a1,128
    5550:	ce06                	sw	ra,28(sp)
    5552:	c62a                	sw	a0,12(sp)
    5554:	fcefb0ef          	jal	d22 <_malloc_r>
    5558:	47b2                	lw	a5,12(sp)
    555a:	10a7ac23          	sw	a0,280(a5)
    555e:	57fd                	li	a5,-1
    5560:	c909                	beqz	a0,5572 <_init_signal_r+0x34>
    5562:	08050793          	addi	a5,a0,128
    5566:	00052023          	sw	zero,0(a0)
    556a:	0511                	addi	a0,a0,4
    556c:	fef51de3          	bne	a0,a5,5566 <_init_signal_r+0x28>
    5570:	4781                	li	a5,0
    5572:	40f2                	lw	ra,28(sp)
    5574:	853e                	mv	a0,a5
    5576:	6105                	addi	sp,sp,32
    5578:	8082                	ret

0000557a <_signal_r>:
    557a:	477d                	li	a4,31
    557c:	00b77663          	bgeu	a4,a1,5588 <_signal_r+0xe>
    5580:	4759                	li	a4,22
    5582:	c118                	sw	a4,0(a0)
    5584:	557d                	li	a0,-1
    5586:	8082                	ret
    5588:	11852703          	lw	a4,280(a0)
    558c:	cf19                	beqz	a4,55aa <_signal_r+0x30>
    558e:	11852783          	lw	a5,280(a0)
    5592:	058a                	slli	a1,a1,0x2
    5594:	97ae                	add	a5,a5,a1
    5596:	4388                	lw	a0,0(a5)
    5598:	c390                	sw	a2,0(a5)
    559a:	8082                	ret
    559c:	1187a783          	lw	a5,280(a5)
    55a0:	058a                	slli	a1,a1,0x2
    55a2:	97ae                	add	a5,a5,a1
    55a4:	4388                	lw	a0,0(a5)
    55a6:	c390                	sw	a2,0(a5)
    55a8:	a821                	j	55c0 <_signal_r+0x46>
    55aa:	1101                	addi	sp,sp,-32
    55ac:	c632                	sw	a2,12(sp)
    55ae:	c42e                	sw	a1,8(sp)
    55b0:	ce06                	sw	ra,28(sp)
    55b2:	c22a                	sw	a0,4(sp)
    55b4:	3769                	jal	553e <_init_signal_r>
    55b6:	4792                	lw	a5,4(sp)
    55b8:	45a2                	lw	a1,8(sp)
    55ba:	4632                	lw	a2,12(sp)
    55bc:	d165                	beqz	a0,559c <_signal_r+0x22>
    55be:	557d                	li	a0,-1
    55c0:	40f2                	lw	ra,28(sp)
    55c2:	6105                	addi	sp,sp,32
    55c4:	8082                	ret

000055c6 <_raise_r>:
    55c6:	47fd                	li	a5,31
    55c8:	00b7f663          	bgeu	a5,a1,55d4 <_raise_r+0xe>
    55cc:	47d9                	li	a5,22
    55ce:	c11c                	sw	a5,0(a0)
    55d0:	557d                	li	a0,-1
    55d2:	8082                	ret
    55d4:	11852783          	lw	a5,280(a0)
    55d8:	1101                	addi	sp,sp,-32
    55da:	cc22                	sw	s0,24(sp)
    55dc:	ce06                	sw	ra,28(sp)
    55de:	862e                	mv	a2,a1
    55e0:	842a                	mv	s0,a0
    55e2:	c791                	beqz	a5,55ee <_raise_r+0x28>
    55e4:	00259713          	slli	a4,a1,0x2
    55e8:	97ba                	add	a5,a5,a4
    55ea:	4398                	lw	a4,0(a5)
    55ec:	eb19                	bnez	a4,5602 <_raise_r+0x3c>
    55ee:	8522                	mv	a0,s0
    55f0:	c632                	sw	a2,12(sp)
    55f2:	28f1                	jal	56ce <_getpid_r>
    55f4:	85aa                	mv	a1,a0
    55f6:	8522                	mv	a0,s0
    55f8:	4462                	lw	s0,24(sp)
    55fa:	4632                	lw	a2,12(sp)
    55fc:	40f2                	lw	ra,28(sp)
    55fe:	6105                	addi	sp,sp,32
    5600:	a045                	j	56a0 <_kill_r>
    5602:	4505                	li	a0,1
    5604:	00a71763          	bne	a4,a0,5612 <_raise_r+0x4c>
    5608:	4501                	li	a0,0
    560a:	40f2                	lw	ra,28(sp)
    560c:	4462                	lw	s0,24(sp)
    560e:	6105                	addi	sp,sp,32
    5610:	8082                	ret
    5612:	56fd                	li	a3,-1
    5614:	00d71563          	bne	a4,a3,561e <_raise_r+0x58>
    5618:	47d9                	li	a5,22
    561a:	c01c                	sw	a5,0(s0)
    561c:	b7fd                	j	560a <_raise_r+0x44>
    561e:	0007a023          	sw	zero,0(a5)
    5622:	852e                	mv	a0,a1
    5624:	9702                	jalr	a4
    5626:	b7cd                	j	5608 <_raise_r+0x42>

00005628 <__sigtramp_r>:
    5628:	47fd                	li	a5,31
    562a:	00b7f463          	bgeu	a5,a1,5632 <__sigtramp_r+0xa>
    562e:	557d                	li	a0,-1
    5630:	8082                	ret
    5632:	11852783          	lw	a5,280(a0)
    5636:	1141                	addi	sp,sp,-16
    5638:	c422                	sw	s0,8(sp)
    563a:	c226                	sw	s1,4(sp)
    563c:	c606                	sw	ra,12(sp)
    563e:	84aa                	mv	s1,a0
    5640:	842e                	mv	s0,a1
    5642:	c79d                	beqz	a5,5670 <__sigtramp_r+0x48>
    5644:	1184a703          	lw	a4,280(s1)
    5648:	00241793          	slli	a5,s0,0x2
    564c:	4505                	li	a0,1
    564e:	973e                	add	a4,a4,a5
    5650:	431c                	lw	a5,0(a4)
    5652:	c395                	beqz	a5,5676 <__sigtramp_r+0x4e>
    5654:	56fd                	li	a3,-1
    5656:	4509                	li	a0,2
    5658:	00d78f63          	beq	a5,a3,5676 <__sigtramp_r+0x4e>
    565c:	4685                	li	a3,1
    565e:	450d                	li	a0,3
    5660:	00d78b63          	beq	a5,a3,5676 <__sigtramp_r+0x4e>
    5664:	8522                	mv	a0,s0
    5666:	00072023          	sw	zero,0(a4)
    566a:	9782                	jalr	a5
    566c:	4501                	li	a0,0
    566e:	a021                	j	5676 <__sigtramp_r+0x4e>
    5670:	35f9                	jal	553e <_init_signal_r>
    5672:	d969                	beqz	a0,5644 <__sigtramp_r+0x1c>
    5674:	557d                	li	a0,-1
    5676:	40b2                	lw	ra,12(sp)
    5678:	4422                	lw	s0,8(sp)
    567a:	4492                	lw	s1,4(sp)
    567c:	0141                	addi	sp,sp,16
    567e:	8082                	ret

00005680 <raise>:
    5680:	85aa                	mv	a1,a0
    5682:	86c1a503          	lw	a0,-1940(gp) # 8c4c <_impure_ptr>
    5686:	b781                	j	55c6 <_raise_r>

00005688 <signal>:
    5688:	862e                	mv	a2,a1
    568a:	85aa                	mv	a1,a0
    568c:	86c1a503          	lw	a0,-1940(gp) # 8c4c <_impure_ptr>
    5690:	b5ed                	j	557a <_signal_r>

00005692 <_init_signal>:
    5692:	86c1a503          	lw	a0,-1940(gp) # 8c4c <_impure_ptr>
    5696:	b565                	j	553e <_init_signal_r>

00005698 <__sigtramp>:
    5698:	85aa                	mv	a1,a0
    569a:	86c1a503          	lw	a0,-1940(gp) # 8c4c <_impure_ptr>
    569e:	b769                	j	5628 <__sigtramp_r>

000056a0 <_kill_r>:
    56a0:	1141                	addi	sp,sp,-16
    56a2:	c422                	sw	s0,8(sp)
    56a4:	c226                	sw	s1,4(sp)
    56a6:	84aa                	mv	s1,a0
    56a8:	852e                	mv	a0,a1
    56aa:	85b2                	mv	a1,a2
    56ac:	c606                	sw	ra,12(sp)
    56ae:	8801a423          	sw	zero,-1912(gp) # 8c68 <errno>
    56b2:	d25fa0ef          	jal	3d6 <_kill>
    56b6:	57fd                	li	a5,-1
    56b8:	00f51663          	bne	a0,a5,56c4 <_kill_r+0x24>
    56bc:	8881a783          	lw	a5,-1912(gp) # 8c68 <errno>
    56c0:	c391                	beqz	a5,56c4 <_kill_r+0x24>
    56c2:	c09c                	sw	a5,0(s1)
    56c4:	40b2                	lw	ra,12(sp)
    56c6:	4422                	lw	s0,8(sp)
    56c8:	4492                	lw	s1,4(sp)
    56ca:	0141                	addi	sp,sp,16
    56cc:	8082                	ret

000056ce <_getpid_r>:
    56ce:	cfdfa06f          	j	3ca <_getpid>

000056d2 <__udivdi3>:
    56d2:	8732                	mv	a4,a2
    56d4:	88b6                	mv	a7,a3
    56d6:	882a                	mv	a6,a0
    56d8:	832e                	mv	t1,a1
    56da:	1c069263          	bnez	a3,589e <__udivdi3+0x1cc>
    56de:	67a1                	lui	a5,0x8
    56e0:	3f878793          	addi	a5,a5,1016 # 83f8 <__clz_tab>
    56e4:	0ac5fb63          	bgeu	a1,a2,579a <__udivdi3+0xc8>
    56e8:	66c1                	lui	a3,0x10
    56ea:	08d67e63          	bgeu	a2,a3,5786 <__udivdi3+0xb4>
    56ee:	10063693          	sltiu	a3,a2,256
    56f2:	0016b693          	seqz	a3,a3
    56f6:	068e                	slli	a3,a3,0x3
    56f8:	00d65e33          	srl	t3,a2,a3
    56fc:	97f2                	add	a5,a5,t3
    56fe:	0007c783          	lbu	a5,0(a5)
    5702:	97b6                	add	a5,a5,a3
    5704:	02000693          	li	a3,32
    5708:	00d78d63          	beq	a5,a3,5722 <__udivdi3+0x50>
    570c:	8e9d                	sub	a3,a3,a5
    570e:	00d59333          	sll	t1,a1,a3
    5712:	00f557b3          	srl	a5,a0,a5
    5716:	00d61733          	sll	a4,a2,a3
    571a:	0067e333          	or	t1,a5,t1
    571e:	00d51833          	sll	a6,a0,a3
    5722:	01075513          	srli	a0,a4,0x10
    5726:	02a357b3          	divu	a5,t1,a0
    572a:	01071593          	slli	a1,a4,0x10
    572e:	81c1                	srli	a1,a1,0x10
    5730:	01085693          	srli	a3,a6,0x10
    5734:	02a37333          	remu	t1,t1,a0
    5738:	02f58633          	mul	a2,a1,a5
    573c:	0342                	slli	t1,t1,0x10
    573e:	0066e6b3          	or	a3,a3,t1
    5742:	00c6f863          	bgeu	a3,a2,5752 <__udivdi3+0x80>
    5746:	96ba                	add	a3,a3,a4
    5748:	00c6f463          	bgeu	a3,a2,5750 <__udivdi3+0x7e>
    574c:	04e6f463          	bgeu	a3,a4,5794 <__udivdi3+0xc2>
    5750:	17fd                	addi	a5,a5,-1
    5752:	8e91                	sub	a3,a3,a2
    5754:	02a6d633          	divu	a2,a3,a0
    5758:	0842                	slli	a6,a6,0x10
    575a:	01085813          	srli	a6,a6,0x10
    575e:	02a6f6b3          	remu	a3,a3,a0
    5762:	02c585b3          	mul	a1,a1,a2
    5766:	06c2                	slli	a3,a3,0x10
    5768:	00d86833          	or	a6,a6,a3
    576c:	00b87863          	bgeu	a6,a1,577c <__udivdi3+0xaa>
    5770:	983a                	add	a6,a6,a4
    5772:	00b87463          	bgeu	a6,a1,577a <__udivdi3+0xa8>
    5776:	12e87263          	bgeu	a6,a4,589a <__udivdi3+0x1c8>
    577a:	167d                	addi	a2,a2,-1
    577c:	07c2                	slli	a5,a5,0x10
    577e:	8fd1                	or	a5,a5,a2
    5780:	853e                	mv	a0,a5
    5782:	85c6                	mv	a1,a7
    5784:	8082                	ret
    5786:	01000e37          	lui	t3,0x1000
    578a:	46e1                	li	a3,24
    578c:	f7c676e3          	bgeu	a2,t3,56f8 <__udivdi3+0x26>
    5790:	46c1                	li	a3,16
    5792:	b79d                	j	56f8 <__udivdi3+0x26>
    5794:	17f9                	addi	a5,a5,-2
    5796:	96ba                	add	a3,a3,a4
    5798:	bf6d                	j	5752 <__udivdi3+0x80>
    579a:	4681                	li	a3,0
    579c:	ca09                	beqz	a2,57ae <__udivdi3+0xdc>
    579e:	66c1                	lui	a3,0x10
    57a0:	04d67e63          	bgeu	a2,a3,57fc <__udivdi3+0x12a>
    57a4:	10063693          	sltiu	a3,a2,256
    57a8:	0016b693          	seqz	a3,a3
    57ac:	068e                	slli	a3,a3,0x3
    57ae:	00d658b3          	srl	a7,a2,a3
    57b2:	97c6                	add	a5,a5,a7
    57b4:	0007c783          	lbu	a5,0(a5)
    57b8:	97b6                	add	a5,a5,a3
    57ba:	02000693          	li	a3,32
    57be:	04d79663          	bne	a5,a3,580a <__udivdi3+0x138>
    57c2:	40c58633          	sub	a2,a1,a2
    57c6:	4885                	li	a7,1
    57c8:	01075513          	srli	a0,a4,0x10
    57cc:	02a657b3          	divu	a5,a2,a0
    57d0:	01071593          	slli	a1,a4,0x10
    57d4:	81c1                	srli	a1,a1,0x10
    57d6:	01085693          	srli	a3,a6,0x10
    57da:	02a67633          	remu	a2,a2,a0
    57de:	02f58333          	mul	t1,a1,a5
    57e2:	0642                	slli	a2,a2,0x10
    57e4:	8ed1                	or	a3,a3,a2
    57e6:	0066f863          	bgeu	a3,t1,57f6 <__udivdi3+0x124>
    57ea:	96ba                	add	a3,a3,a4
    57ec:	0066f463          	bgeu	a3,t1,57f4 <__udivdi3+0x122>
    57f0:	0ae6f263          	bgeu	a3,a4,5894 <__udivdi3+0x1c2>
    57f4:	17fd                	addi	a5,a5,-1
    57f6:	406686b3          	sub	a3,a3,t1
    57fa:	bfa9                	j	5754 <__udivdi3+0x82>
    57fc:	010008b7          	lui	a7,0x1000
    5800:	46e1                	li	a3,24
    5802:	fb1676e3          	bgeu	a2,a7,57ae <__udivdi3+0xdc>
    5806:	46c1                	li	a3,16
    5808:	b75d                	j	57ae <__udivdi3+0xdc>
    580a:	40f68833          	sub	a6,a3,a5
    580e:	01061733          	sll	a4,a2,a6
    5812:	00f5d6b3          	srl	a3,a1,a5
    5816:	010595b3          	sll	a1,a1,a6
    581a:	00f557b3          	srl	a5,a0,a5
    581e:	01051833          	sll	a6,a0,a6
    5822:	01075513          	srli	a0,a4,0x10
    5826:	02a6d8b3          	divu	a7,a3,a0
    582a:	01071613          	slli	a2,a4,0x10
    582e:	8241                	srli	a2,a2,0x10
    5830:	8fcd                	or	a5,a5,a1
    5832:	02a6f6b3          	remu	a3,a3,a0
    5836:	03160333          	mul	t1,a2,a7
    583a:	01069593          	slli	a1,a3,0x10
    583e:	0107d693          	srli	a3,a5,0x10
    5842:	8ecd                	or	a3,a3,a1
    5844:	0066f863          	bgeu	a3,t1,5854 <__udivdi3+0x182>
    5848:	96ba                	add	a3,a3,a4
    584a:	0066f463          	bgeu	a3,t1,5852 <__udivdi3+0x180>
    584e:	02e6fd63          	bgeu	a3,a4,5888 <__udivdi3+0x1b6>
    5852:	18fd                	addi	a7,a7,-1 # ffffff <_sp+0xff408f>
    5854:	406686b3          	sub	a3,a3,t1
    5858:	02a6d5b3          	divu	a1,a3,a0
    585c:	07c2                	slli	a5,a5,0x10
    585e:	83c1                	srli	a5,a5,0x10
    5860:	02a6f6b3          	remu	a3,a3,a0
    5864:	02b60633          	mul	a2,a2,a1
    5868:	06c2                	slli	a3,a3,0x10
    586a:	8fd5                	or	a5,a5,a3
    586c:	00c7f863          	bgeu	a5,a2,587c <__udivdi3+0x1aa>
    5870:	97ba                	add	a5,a5,a4
    5872:	00c7f463          	bgeu	a5,a2,587a <__udivdi3+0x1a8>
    5876:	00e7fc63          	bgeu	a5,a4,588e <__udivdi3+0x1bc>
    587a:	15fd                	addi	a1,a1,-1
    587c:	08c2                	slli	a7,a7,0x10
    587e:	40c78633          	sub	a2,a5,a2
    5882:	00b8e8b3          	or	a7,a7,a1
    5886:	b789                	j	57c8 <__udivdi3+0xf6>
    5888:	18f9                	addi	a7,a7,-2
    588a:	96ba                	add	a3,a3,a4
    588c:	b7e1                	j	5854 <__udivdi3+0x182>
    588e:	15f9                	addi	a1,a1,-2
    5890:	97ba                	add	a5,a5,a4
    5892:	b7ed                	j	587c <__udivdi3+0x1aa>
    5894:	17f9                	addi	a5,a5,-2
    5896:	96ba                	add	a3,a3,a4
    5898:	bfb9                	j	57f6 <__udivdi3+0x124>
    589a:	1679                	addi	a2,a2,-2
    589c:	b5c5                	j	577c <__udivdi3+0xaa>
    589e:	12d5ea63          	bltu	a1,a3,59d2 <__udivdi3+0x300>
    58a2:	67c1                	lui	a5,0x10
    58a4:	02f6fd63          	bgeu	a3,a5,58de <__udivdi3+0x20c>
    58a8:	1006b793          	sltiu	a5,a3,256
    58ac:	0017b793          	seqz	a5,a5
    58b0:	078e                	slli	a5,a5,0x3
    58b2:	6721                	lui	a4,0x8
    58b4:	00f6d833          	srl	a6,a3,a5
    58b8:	3f870713          	addi	a4,a4,1016 # 83f8 <__clz_tab>
    58bc:	9742                	add	a4,a4,a6
    58be:	00074703          	lbu	a4,0(a4)
    58c2:	02000813          	li	a6,32
    58c6:	973e                	add	a4,a4,a5
    58c8:	03071263          	bne	a4,a6,58ec <__udivdi3+0x21a>
    58cc:	00c537b3          	sltu	a5,a0,a2
    58d0:	0017b793          	seqz	a5,a5
    58d4:	00b6b6b3          	sltu	a3,a3,a1
    58d8:	8fd5                	or	a5,a5,a3
    58da:	4881                	li	a7,0
    58dc:	b555                	j	5780 <__udivdi3+0xae>
    58de:	01000737          	lui	a4,0x1000
    58e2:	47e1                	li	a5,24
    58e4:	fce6f7e3          	bgeu	a3,a4,58b2 <__udivdi3+0x1e0>
    58e8:	47c1                	li	a5,16
    58ea:	b7e1                	j	58b2 <__udivdi3+0x1e0>
    58ec:	40e80833          	sub	a6,a6,a4
    58f0:	00e658b3          	srl	a7,a2,a4
    58f4:	010696b3          	sll	a3,a3,a6
    58f8:	00d8e8b3          	or	a7,a7,a3
    58fc:	0108de13          	srli	t3,a7,0x10
    5900:	00e5d6b3          	srl	a3,a1,a4
    5904:	03c6d7b3          	divu	a5,a3,t3
    5908:	01089313          	slli	t1,a7,0x10
    590c:	01035313          	srli	t1,t1,0x10
    5910:	010595b3          	sll	a1,a1,a6
    5914:	00e55733          	srl	a4,a0,a4
    5918:	8f4d                	or	a4,a4,a1
    591a:	01061633          	sll	a2,a2,a6
    591e:	03c6f6b3          	remu	a3,a3,t3
    5922:	02f30eb3          	mul	t4,t1,a5
    5926:	01069593          	slli	a1,a3,0x10
    592a:	01075693          	srli	a3,a4,0x10
    592e:	8ecd                	or	a3,a3,a1
    5930:	01d6f863          	bgeu	a3,t4,5940 <__udivdi3+0x26e>
    5934:	96c6                	add	a3,a3,a7
    5936:	01d6f463          	bgeu	a3,t4,593e <__udivdi3+0x26c>
    593a:	0916f663          	bgeu	a3,a7,59c6 <__udivdi3+0x2f4>
    593e:	17fd                	addi	a5,a5,-1 # ffff <_sp+0x408f>
    5940:	41d686b3          	sub	a3,a3,t4
    5944:	03c6d5b3          	divu	a1,a3,t3
    5948:	0742                	slli	a4,a4,0x10
    594a:	8341                	srli	a4,a4,0x10
    594c:	03c6f6b3          	remu	a3,a3,t3
    5950:	02b30333          	mul	t1,t1,a1
    5954:	06c2                	slli	a3,a3,0x10
    5956:	8f55                	or	a4,a4,a3
    5958:	00677863          	bgeu	a4,t1,5968 <__udivdi3+0x296>
    595c:	9746                	add	a4,a4,a7
    595e:	00677463          	bgeu	a4,t1,5966 <__udivdi3+0x294>
    5962:	07177563          	bgeu	a4,a7,59cc <__udivdi3+0x2fa>
    5966:	15fd                	addi	a1,a1,-1
    5968:	07c2                	slli	a5,a5,0x10
    596a:	8fcd                	or	a5,a5,a1
    596c:	40670733          	sub	a4,a4,t1
    5970:	05c2                	slli	a1,a1,0x10
    5972:	01061313          	slli	t1,a2,0x10
    5976:	81c1                	srli	a1,a1,0x10
    5978:	0107d893          	srli	a7,a5,0x10
    597c:	01035313          	srli	t1,t1,0x10
    5980:	8241                	srli	a2,a2,0x10
    5982:	02658e33          	mul	t3,a1,t1
    5986:	02688333          	mul	t1,a7,t1
    598a:	010e5693          	srli	a3,t3,0x10
    598e:	02c585b3          	mul	a1,a1,a2
    5992:	02c888b3          	mul	a7,a7,a2
    5996:	959a                	add	a1,a1,t1
    5998:	96ae                	add	a3,a3,a1
    599a:	0066f463          	bgeu	a3,t1,59a2 <__udivdi3+0x2d0>
    599e:	6641                	lui	a2,0x10
    59a0:	98b2                	add	a7,a7,a2
    59a2:	0106d613          	srli	a2,a3,0x10
    59a6:	9646                	add	a2,a2,a7
    59a8:	00c76d63          	bltu	a4,a2,59c2 <__udivdi3+0x2f0>
    59ac:	0e42                	slli	t3,t3,0x10
    59ae:	06c2                	slli	a3,a3,0x10
    59b0:	010e5e13          	srli	t3,t3,0x10
    59b4:	01051533          	sll	a0,a0,a6
    59b8:	96f2                	add	a3,a3,t3
    59ba:	f2d570e3          	bgeu	a0,a3,58da <__udivdi3+0x208>
    59be:	f0c71ee3          	bne	a4,a2,58da <__udivdi3+0x208>
    59c2:	17fd                	addi	a5,a5,-1
    59c4:	bf19                	j	58da <__udivdi3+0x208>
    59c6:	17f9                	addi	a5,a5,-2
    59c8:	96c6                	add	a3,a3,a7
    59ca:	bf9d                	j	5940 <__udivdi3+0x26e>
    59cc:	15f9                	addi	a1,a1,-2
    59ce:	9746                	add	a4,a4,a7
    59d0:	bf61                	j	5968 <__udivdi3+0x296>
    59d2:	4881                	li	a7,0
    59d4:	4781                	li	a5,0
    59d6:	b36d                	j	5780 <__udivdi3+0xae>

000059d8 <__umoddi3>:
    59d8:	8832                	mv	a6,a2
    59da:	87aa                	mv	a5,a0
    59dc:	872e                	mv	a4,a1
    59de:	1c069f63          	bnez	a3,5bbc <__umoddi3+0x1e4>
    59e2:	66a1                	lui	a3,0x8
    59e4:	3f868693          	addi	a3,a3,1016 # 83f8 <__clz_tab>
    59e8:	0cc5f263          	bgeu	a1,a2,5aac <__umoddi3+0xd4>
    59ec:	68c1                	lui	a7,0x10
    59ee:	0b167863          	bgeu	a2,a7,5a9e <__umoddi3+0xc6>
    59f2:	10063893          	sltiu	a7,a2,256
    59f6:	0018b893          	seqz	a7,a7
    59fa:	088e                	slli	a7,a7,0x3
    59fc:	01165333          	srl	t1,a2,a7
    5a00:	969a                	add	a3,a3,t1
    5a02:	0006c683          	lbu	a3,0(a3)
    5a06:	02000313          	li	t1,32
    5a0a:	96c6                	add	a3,a3,a7
    5a0c:	40d308b3          	sub	a7,t1,a3
    5a10:	00668b63          	beq	a3,t1,5a26 <__umoddi3+0x4e>
    5a14:	01159733          	sll	a4,a1,a7
    5a18:	00d556b3          	srl	a3,a0,a3
    5a1c:	01161833          	sll	a6,a2,a7
    5a20:	8f55                	or	a4,a4,a3
    5a22:	011517b3          	sll	a5,a0,a7
    5a26:	01085513          	srli	a0,a6,0x10
    5a2a:	02a756b3          	divu	a3,a4,a0
    5a2e:	01081313          	slli	t1,a6,0x10
    5a32:	01035313          	srli	t1,t1,0x10
    5a36:	02a77733          	remu	a4,a4,a0
    5a3a:	026686b3          	mul	a3,a3,t1
    5a3e:	01071593          	slli	a1,a4,0x10
    5a42:	0107d713          	srli	a4,a5,0x10
    5a46:	8f4d                	or	a4,a4,a1
    5a48:	00d77d63          	bgeu	a4,a3,5a62 <__umoddi3+0x8a>
    5a4c:	9742                	add	a4,a4,a6
    5a4e:	010735b3          	sltu	a1,a4,a6
    5a52:	00d73633          	sltu	a2,a4,a3
    5a56:	0015b593          	seqz	a1,a1
    5a5a:	8e6d                	and	a2,a2,a1
    5a5c:	03060633          	mul	a2,a2,a6
    5a60:	9732                	add	a4,a4,a2
    5a62:	8f15                	sub	a4,a4,a3
    5a64:	02a756b3          	divu	a3,a4,a0
    5a68:	02a77733          	remu	a4,a4,a0
    5a6c:	026686b3          	mul	a3,a3,t1
    5a70:	01079513          	slli	a0,a5,0x10
    5a74:	0742                	slli	a4,a4,0x10
    5a76:	8141                	srli	a0,a0,0x10
    5a78:	8d59                	or	a0,a0,a4
    5a7a:	00d57d63          	bgeu	a0,a3,5a94 <__umoddi3+0xbc>
    5a7e:	9542                	add	a0,a0,a6
    5a80:	01053733          	sltu	a4,a0,a6
    5a84:	00d537b3          	sltu	a5,a0,a3
    5a88:	00173713          	seqz	a4,a4
    5a8c:	8ff9                	and	a5,a5,a4
    5a8e:	030787b3          	mul	a5,a5,a6
    5a92:	953e                	add	a0,a0,a5
    5a94:	8d15                	sub	a0,a0,a3
    5a96:	01155533          	srl	a0,a0,a7
    5a9a:	4581                	li	a1,0
    5a9c:	8082                	ret
    5a9e:	01000337          	lui	t1,0x1000
    5aa2:	48e1                	li	a7,24
    5aa4:	f4667ce3          	bgeu	a2,t1,59fc <__umoddi3+0x24>
    5aa8:	48c1                	li	a7,16
    5aaa:	bf89                	j	59fc <__umoddi3+0x24>
    5aac:	4701                	li	a4,0
    5aae:	ca09                	beqz	a2,5ac0 <__umoddi3+0xe8>
    5ab0:	6741                	lui	a4,0x10
    5ab2:	06e67a63          	bgeu	a2,a4,5b26 <__umoddi3+0x14e>
    5ab6:	10063713          	sltiu	a4,a2,256
    5aba:	00173713          	seqz	a4,a4
    5abe:	070e                	slli	a4,a4,0x3
    5ac0:	00e658b3          	srl	a7,a2,a4
    5ac4:	96c6                	add	a3,a3,a7
    5ac6:	0006c683          	lbu	a3,0(a3)
    5aca:	96ba                	add	a3,a3,a4
    5acc:	02000713          	li	a4,32
    5ad0:	40d708b3          	sub	a7,a4,a3
    5ad4:	06e69063          	bne	a3,a4,5b34 <__umoddi3+0x15c>
    5ad8:	40c586b3          	sub	a3,a1,a2
    5adc:	01085593          	srli	a1,a6,0x10
    5ae0:	02b6d633          	divu	a2,a3,a1
    5ae4:	01081313          	slli	t1,a6,0x10
    5ae8:	01035313          	srli	t1,t1,0x10
    5aec:	0107d713          	srli	a4,a5,0x10
    5af0:	02b6f6b3          	remu	a3,a3,a1
    5af4:	02660633          	mul	a2,a2,t1
    5af8:	06c2                	slli	a3,a3,0x10
    5afa:	8f55                	or	a4,a4,a3
    5afc:	00c77d63          	bgeu	a4,a2,5b16 <__umoddi3+0x13e>
    5b00:	9742                	add	a4,a4,a6
    5b02:	01073533          	sltu	a0,a4,a6
    5b06:	00c736b3          	sltu	a3,a4,a2
    5b0a:	00153513          	seqz	a0,a0
    5b0e:	8ee9                	and	a3,a3,a0
    5b10:	030686b3          	mul	a3,a3,a6
    5b14:	9736                	add	a4,a4,a3
    5b16:	8f11                	sub	a4,a4,a2
    5b18:	02b756b3          	divu	a3,a4,a1
    5b1c:	02b77733          	remu	a4,a4,a1
    5b20:	026686b3          	mul	a3,a3,t1
    5b24:	b7b1                	j	5a70 <__umoddi3+0x98>
    5b26:	010008b7          	lui	a7,0x1000
    5b2a:	4761                	li	a4,24
    5b2c:	f9167ae3          	bgeu	a2,a7,5ac0 <__umoddi3+0xe8>
    5b30:	4741                	li	a4,16
    5b32:	b779                	j	5ac0 <__umoddi3+0xe8>
    5b34:	01161833          	sll	a6,a2,a7
    5b38:	00d5d733          	srl	a4,a1,a3
    5b3c:	011517b3          	sll	a5,a0,a7
    5b40:	011595b3          	sll	a1,a1,a7
    5b44:	00d556b3          	srl	a3,a0,a3
    5b48:	01085513          	srli	a0,a6,0x10
    5b4c:	8ecd                	or	a3,a3,a1
    5b4e:	02a755b3          	divu	a1,a4,a0
    5b52:	01081e13          	slli	t3,a6,0x10
    5b56:	010e5e13          	srli	t3,t3,0x10
    5b5a:	02a77733          	remu	a4,a4,a0
    5b5e:	03c585b3          	mul	a1,a1,t3
    5b62:	01071613          	slli	a2,a4,0x10
    5b66:	0106d713          	srli	a4,a3,0x10
    5b6a:	8f51                	or	a4,a4,a2
    5b6c:	00b77e63          	bgeu	a4,a1,5b88 <__umoddi3+0x1b0>
    5b70:	9742                	add	a4,a4,a6
    5b72:	01073333          	sltu	t1,a4,a6
    5b76:	00b73633          	sltu	a2,a4,a1
    5b7a:	00133313          	seqz	t1,t1
    5b7e:	00667633          	and	a2,a2,t1
    5b82:	03060633          	mul	a2,a2,a6
    5b86:	9732                	add	a4,a4,a2
    5b88:	8f0d                	sub	a4,a4,a1
    5b8a:	02a75633          	divu	a2,a4,a0
    5b8e:	06c2                	slli	a3,a3,0x10
    5b90:	82c1                	srli	a3,a3,0x10
    5b92:	02a77733          	remu	a4,a4,a0
    5b96:	03c60633          	mul	a2,a2,t3
    5b9a:	0742                	slli	a4,a4,0x10
    5b9c:	8ed9                	or	a3,a3,a4
    5b9e:	00c6fd63          	bgeu	a3,a2,5bb8 <__umoddi3+0x1e0>
    5ba2:	96c2                	add	a3,a3,a6
    5ba4:	0106b5b3          	sltu	a1,a3,a6
    5ba8:	00c6b733          	sltu	a4,a3,a2
    5bac:	0015b593          	seqz	a1,a1
    5bb0:	8f6d                	and	a4,a4,a1
    5bb2:	03070733          	mul	a4,a4,a6
    5bb6:	96ba                	add	a3,a3,a4
    5bb8:	8e91                	sub	a3,a3,a2
    5bba:	b70d                	j	5adc <__umoddi3+0x104>
    5bbc:	14d5ee63          	bltu	a1,a3,5d18 <__umoddi3+0x340>
    5bc0:	6841                	lui	a6,0x10
    5bc2:	0506f463          	bgeu	a3,a6,5c0a <__umoddi3+0x232>
    5bc6:	1006b893          	sltiu	a7,a3,256
    5bca:	0018b893          	seqz	a7,a7
    5bce:	088e                	slli	a7,a7,0x3
    5bd0:	6821                	lui	a6,0x8
    5bd2:	0116d333          	srl	t1,a3,a7
    5bd6:	3f880813          	addi	a6,a6,1016 # 83f8 <__clz_tab>
    5bda:	981a                	add	a6,a6,t1
    5bdc:	00084803          	lbu	a6,0(a6)
    5be0:	9846                	add	a6,a6,a7
    5be2:	02000893          	li	a7,32
    5be6:	03181963          	bne	a6,a7,5c18 <__umoddi3+0x240>
    5bea:	00c57463          	bgeu	a0,a2,5bf2 <__umoddi3+0x21a>
    5bee:	00b6fb63          	bgeu	a3,a1,5c04 <__umoddi3+0x22c>
    5bf2:	40c50733          	sub	a4,a0,a2
    5bf6:	87ba                	mv	a5,a4
    5bf8:	40d586b3          	sub	a3,a1,a3
    5bfc:	00e53733          	sltu	a4,a0,a4
    5c00:	40e68733          	sub	a4,a3,a4
    5c04:	853e                	mv	a0,a5
    5c06:	85ba                	mv	a1,a4
    5c08:	8082                	ret
    5c0a:	01000837          	lui	a6,0x1000
    5c0e:	48e1                	li	a7,24
    5c10:	fd06f0e3          	bgeu	a3,a6,5bd0 <__umoddi3+0x1f8>
    5c14:	48c1                	li	a7,16
    5c16:	bf6d                	j	5bd0 <__umoddi3+0x1f8>
    5c18:	410888b3          	sub	a7,a7,a6
    5c1c:	011696b3          	sll	a3,a3,a7
    5c20:	01065333          	srl	t1,a2,a6
    5c24:	00d36333          	or	t1,t1,a3
    5c28:	0105d733          	srl	a4,a1,a6
    5c2c:	01035e93          	srli	t4,t1,0x10
    5c30:	03d756b3          	divu	a3,a4,t4
    5c34:	01031e13          	slli	t3,t1,0x10
    5c38:	010e5e13          	srli	t3,t3,0x10
    5c3c:	011597b3          	sll	a5,a1,a7
    5c40:	010555b3          	srl	a1,a0,a6
    5c44:	8ddd                	or	a1,a1,a5
    5c46:	0105d793          	srli	a5,a1,0x10
    5c4a:	03d77733          	remu	a4,a4,t4
    5c4e:	01161633          	sll	a2,a2,a7
    5c52:	01151533          	sll	a0,a0,a7
    5c56:	02de0f33          	mul	t5,t3,a3
    5c5a:	0742                	slli	a4,a4,0x10
    5c5c:	8fd9                	or	a5,a5,a4
    5c5e:	01e7f863          	bgeu	a5,t5,5c6e <__umoddi3+0x296>
    5c62:	979a                	add	a5,a5,t1
    5c64:	01e7f463          	bgeu	a5,t5,5c6c <__umoddi3+0x294>
    5c68:	0a67f963          	bgeu	a5,t1,5d1a <__umoddi3+0x342>
    5c6c:	16fd                	addi	a3,a3,-1
    5c6e:	41e787b3          	sub	a5,a5,t5
    5c72:	03d7d733          	divu	a4,a5,t4
    5c76:	05c2                	slli	a1,a1,0x10
    5c78:	81c1                	srli	a1,a1,0x10
    5c7a:	03d7f7b3          	remu	a5,a5,t4
    5c7e:	02ee0e33          	mul	t3,t3,a4
    5c82:	07c2                	slli	a5,a5,0x10
    5c84:	8ddd                	or	a1,a1,a5
    5c86:	01c5f863          	bgeu	a1,t3,5c96 <__umoddi3+0x2be>
    5c8a:	959a                	add	a1,a1,t1
    5c8c:	01c5f463          	bgeu	a1,t3,5c94 <__umoddi3+0x2bc>
    5c90:	0865f863          	bgeu	a1,t1,5d20 <__umoddi3+0x348>
    5c94:	177d                	addi	a4,a4,-1 # ffff <_sp+0x408f>
    5c96:	06c2                	slli	a3,a3,0x10
    5c98:	8ed9                	or	a3,a3,a4
    5c9a:	41c585b3          	sub	a1,a1,t3
    5c9e:	0742                	slli	a4,a4,0x10
    5ca0:	01061e13          	slli	t3,a2,0x10
    5ca4:	01065793          	srli	a5,a2,0x10
    5ca8:	8341                	srli	a4,a4,0x10
    5caa:	82c1                	srli	a3,a3,0x10
    5cac:	010e5e13          	srli	t3,t3,0x10
    5cb0:	03c70eb3          	mul	t4,a4,t3
    5cb4:	03c68e33          	mul	t3,a3,t3
    5cb8:	02f70733          	mul	a4,a4,a5
    5cbc:	02f686b3          	mul	a3,a3,a5
    5cc0:	01c707b3          	add	a5,a4,t3
    5cc4:	010ed713          	srli	a4,t4,0x10
    5cc8:	973e                	add	a4,a4,a5
    5cca:	01c77463          	bgeu	a4,t3,5cd2 <__umoddi3+0x2fa>
    5cce:	67c1                	lui	a5,0x10
    5cd0:	96be                	add	a3,a3,a5
    5cd2:	01075793          	srli	a5,a4,0x10
    5cd6:	0ec2                	slli	t4,t4,0x10
    5cd8:	0742                	slli	a4,a4,0x10
    5cda:	010ede93          	srli	t4,t4,0x10
    5cde:	97b6                	add	a5,a5,a3
    5ce0:	9776                	add	a4,a4,t4
    5ce2:	00f5e663          	bltu	a1,a5,5cee <__umoddi3+0x316>
    5ce6:	00e57b63          	bgeu	a0,a4,5cfc <__umoddi3+0x324>
    5cea:	00f59963          	bne	a1,a5,5cfc <__umoddi3+0x324>
    5cee:	40c70633          	sub	a2,a4,a2
    5cf2:	00c736b3          	sltu	a3,a4,a2
    5cf6:	969a                	add	a3,a3,t1
    5cf8:	8732                	mv	a4,a2
    5cfa:	8f95                	sub	a5,a5,a3
    5cfc:	40e50733          	sub	a4,a0,a4
    5d00:	00e53533          	sltu	a0,a0,a4
    5d04:	8d9d                	sub	a1,a1,a5
    5d06:	8d89                	sub	a1,a1,a0
    5d08:	01059833          	sll	a6,a1,a6
    5d0c:	01175733          	srl	a4,a4,a7
    5d10:	00e86533          	or	a0,a6,a4
    5d14:	0115d5b3          	srl	a1,a1,a7
    5d18:	8082                	ret
    5d1a:	16f9                	addi	a3,a3,-2
    5d1c:	979a                	add	a5,a5,t1
    5d1e:	bf81                	j	5c6e <__umoddi3+0x296>
    5d20:	1779                	addi	a4,a4,-2
    5d22:	959a                	add	a1,a1,t1
    5d24:	bf8d                	j	5c96 <__umoddi3+0x2be>

00005d26 <__adddf3>:
    5d26:	00c59793          	slli	a5,a1,0xc
    5d2a:	1101                	addi	sp,sp,-32
    5d2c:	01d55713          	srli	a4,a0,0x1d
    5d30:	83a5                	srli	a5,a5,0x9
    5d32:	0146d893          	srli	a7,a3,0x14
    5d36:	cc22                	sw	s0,24(sp)
    5d38:	8fd9                	or	a5,a5,a4
    5d3a:	0145d413          	srli	s0,a1,0x14
    5d3e:	00c69713          	slli	a4,a3,0xc
    5d42:	ca26                	sw	s1,20(sp)
    5d44:	7ff47413          	andi	s0,s0,2047
    5d48:	01f5d493          	srli	s1,a1,0x1f
    5d4c:	7ff8f893          	andi	a7,a7,2047
    5d50:	01d65593          	srli	a1,a2,0x1d
    5d54:	8325                	srli	a4,a4,0x9
    5d56:	ce06                	sw	ra,28(sp)
    5d58:	c84a                	sw	s2,16(sp)
    5d5a:	c64e                	sw	s3,12(sp)
    5d5c:	82fd                	srli	a3,a3,0x1f
    5d5e:	050e                	slli	a0,a0,0x3
    5d60:	8f4d                	or	a4,a4,a1
    5d62:	060e                	slli	a2,a2,0x3
    5d64:	41140833          	sub	a6,s0,a7
    5d68:	7ff00313          	li	t1,2047
    5d6c:	24d49f63          	bne	s1,a3,5fca <__adddf3+0x2a4>
    5d70:	11005b63          	blez	a6,5e86 <__adddf3+0x160>
    5d74:	06089663          	bnez	a7,5de0 <__adddf3+0xba>
    5d78:	00c766b3          	or	a3,a4,a2
    5d7c:	ce99                	beqz	a3,5d9a <__adddf3+0x74>
    5d7e:	fff40813          	addi	a6,s0,-1
    5d82:	00081a63          	bnez	a6,5d96 <__adddf3+0x70>
    5d86:	962a                	add	a2,a2,a0
    5d88:	97ba                	add	a5,a5,a4
    5d8a:	00a63533          	sltu	a0,a2,a0
    5d8e:	00a78733          	add	a4,a5,a0
    5d92:	4405                	li	s0,1
    5d94:	a851                	j	5e28 <__adddf3+0x102>
    5d96:	04641a63          	bne	s0,t1,5dea <__adddf3+0xc4>
    5d9a:	01d79713          	slli	a4,a5,0x1d
    5d9e:	810d                	srli	a0,a0,0x3
    5da0:	7ff00693          	li	a3,2047
    5da4:	8f49                	or	a4,a4,a0
    5da6:	838d                	srli	a5,a5,0x3
    5da8:	00d41963          	bne	s0,a3,5dba <__adddf3+0x94>
    5dac:	8f5d                	or	a4,a4,a5
    5dae:	4781                	li	a5,0
    5db0:	c709                	beqz	a4,5dba <__adddf3+0x94>
    5db2:	000807b7          	lui	a5,0x80
    5db6:	4701                	li	a4,0
    5db8:	4481                	li	s1,0
    5dba:	7ff47413          	andi	s0,s0,2047
    5dbe:	07b2                	slli	a5,a5,0xc
    5dc0:	83b1                	srli	a5,a5,0xc
    5dc2:	0452                	slli	s0,s0,0x14
    5dc4:	01f49593          	slli	a1,s1,0x1f
    5dc8:	8c5d                	or	s0,s0,a5
    5dca:	40f2                	lw	ra,28(sp)
    5dcc:	00b467b3          	or	a5,s0,a1
    5dd0:	4462                	lw	s0,24(sp)
    5dd2:	44d2                	lw	s1,20(sp)
    5dd4:	4942                	lw	s2,16(sp)
    5dd6:	49b2                	lw	s3,12(sp)
    5dd8:	853a                	mv	a0,a4
    5dda:	85be                	mv	a1,a5
    5ddc:	6105                	addi	sp,sp,32
    5dde:	8082                	ret
    5de0:	20640c63          	beq	s0,t1,5ff8 <__adddf3+0x2d2>
    5de4:	008006b7          	lui	a3,0x800
    5de8:	8f55                	or	a4,a4,a3
    5dea:	03800693          	li	a3,56
    5dee:	0906c763          	blt	a3,a6,5e7c <__adddf3+0x156>
    5df2:	46fd                	li	a3,31
    5df4:	02000893          	li	a7,32
    5df8:	0506cf63          	blt	a3,a6,5e56 <__adddf3+0x130>
    5dfc:	410888b3          	sub	a7,a7,a6
    5e00:	011716b3          	sll	a3,a4,a7
    5e04:	010655b3          	srl	a1,a2,a6
    5e08:	011618b3          	sll	a7,a2,a7
    5e0c:	8ecd                	or	a3,a3,a1
    5e0e:	011038b3          	snez	a7,a7
    5e12:	0116e6b3          	or	a3,a3,a7
    5e16:	01075833          	srl	a6,a4,a6
    5e1a:	00a68633          	add	a2,a3,a0
    5e1e:	983e                	add	a6,a6,a5
    5e20:	00d636b3          	sltu	a3,a2,a3
    5e24:	00d80733          	add	a4,a6,a3
    5e28:	00871793          	slli	a5,a4,0x8
    5e2c:	1607db63          	bgez	a5,5fa2 <__adddf3+0x27c>
    5e30:	0405                	addi	s0,s0,1
    5e32:	7ff00793          	li	a5,2047
    5e36:	48f40a63          	beq	s0,a5,62ca <__adddf3+0x5a4>
    5e3a:	ff8007b7          	lui	a5,0xff800
    5e3e:	17fd                	addi	a5,a5,-1 # ff7fffff <_sp+0xff7f408f>
    5e40:	8ff9                	and	a5,a5,a4
    5e42:	00165713          	srli	a4,a2,0x1
    5e46:	8a05                	andi	a2,a2,1
    5e48:	8f51                	or	a4,a4,a2
    5e4a:	01f79613          	slli	a2,a5,0x1f
    5e4e:	8e59                	or	a2,a2,a4
    5e50:	0017d713          	srli	a4,a5,0x1
    5e54:	a2b9                	j	5fa2 <__adddf3+0x27c>
    5e56:	fe080693          	addi	a3,a6,-32 # ffffe0 <_sp+0xff4070>
    5e5a:	00d756b3          	srl	a3,a4,a3
    5e5e:	4581                	li	a1,0
    5e60:	01180863          	beq	a6,a7,5e70 <__adddf3+0x14a>
    5e64:	04000593          	li	a1,64
    5e68:	410585b3          	sub	a1,a1,a6
    5e6c:	00b715b3          	sll	a1,a4,a1
    5e70:	8dd1                	or	a1,a1,a2
    5e72:	00b035b3          	snez	a1,a1
    5e76:	8ecd                	or	a3,a3,a1
    5e78:	4801                	li	a6,0
    5e7a:	b745                	j	5e1a <__adddf3+0xf4>
    5e7c:	00c766b3          	or	a3,a4,a2
    5e80:	00d036b3          	snez	a3,a3
    5e84:	bfd5                	j	5e78 <__adddf3+0x152>
    5e86:	0a080463          	beqz	a6,5f2e <__adddf3+0x208>
    5e8a:	408886b3          	sub	a3,a7,s0
    5e8e:	ec39                	bnez	s0,5eec <__adddf3+0x1c6>
    5e90:	00a7e5b3          	or	a1,a5,a0
    5e94:	e589                	bnez	a1,5e9e <__adddf3+0x178>
    5e96:	87ba                	mv	a5,a4
    5e98:	8532                	mv	a0,a2
    5e9a:	8436                	mv	s0,a3
    5e9c:	bdfd                	j	5d9a <__adddf3+0x74>
    5e9e:	fff68593          	addi	a1,a3,-1 # 7fffff <_sp+0x7f408f>
    5ea2:	ee0582e3          	beqz	a1,5d86 <__adddf3+0x60>
    5ea6:	fe6688e3          	beq	a3,t1,5e96 <__adddf3+0x170>
    5eaa:	03800693          	li	a3,56
    5eae:	06b6cb63          	blt	a3,a1,5f24 <__adddf3+0x1fe>
    5eb2:	46fd                	li	a3,31
    5eb4:	02000313          	li	t1,32
    5eb8:	04b6c163          	blt	a3,a1,5efa <__adddf3+0x1d4>
    5ebc:	40b30333          	sub	t1,t1,a1
    5ec0:	006796b3          	sll	a3,a5,t1
    5ec4:	00b55833          	srl	a6,a0,a1
    5ec8:	00651333          	sll	t1,a0,t1
    5ecc:	0106e6b3          	or	a3,a3,a6
    5ed0:	00603333          	snez	t1,t1
    5ed4:	0066e6b3          	or	a3,a3,t1
    5ed8:	00b7d5b3          	srl	a1,a5,a1
    5edc:	9636                	add	a2,a2,a3
    5ede:	95ba                	add	a1,a1,a4
    5ee0:	00d636b3          	sltu	a3,a2,a3
    5ee4:	00d58733          	add	a4,a1,a3
    5ee8:	8446                	mv	s0,a7
    5eea:	bf3d                	j	5e28 <__adddf3+0x102>
    5eec:	3e688763          	beq	a7,t1,62da <__adddf3+0x5b4>
    5ef0:	008005b7          	lui	a1,0x800
    5ef4:	8fcd                	or	a5,a5,a1
    5ef6:	85b6                	mv	a1,a3
    5ef8:	bf4d                	j	5eaa <__adddf3+0x184>
    5efa:	fe058693          	addi	a3,a1,-32 # 7fffe0 <_sp+0x7f4070>
    5efe:	00d7d6b3          	srl	a3,a5,a3
    5f02:	4801                	li	a6,0
    5f04:	00658863          	beq	a1,t1,5f14 <__adddf3+0x1ee>
    5f08:	04000813          	li	a6,64
    5f0c:	40b80833          	sub	a6,a6,a1
    5f10:	01079833          	sll	a6,a5,a6
    5f14:	00a86833          	or	a6,a6,a0
    5f18:	01003833          	snez	a6,a6
    5f1c:	0106e6b3          	or	a3,a3,a6
    5f20:	4581                	li	a1,0
    5f22:	bf6d                	j	5edc <__adddf3+0x1b6>
    5f24:	00a7e6b3          	or	a3,a5,a0
    5f28:	00d036b3          	snez	a3,a3
    5f2c:	bfd5                	j	5f20 <__adddf3+0x1fa>
    5f2e:	00140693          	addi	a3,s0,1
    5f32:	7fe6f593          	andi	a1,a3,2046
    5f36:	e9a1                	bnez	a1,5f86 <__adddf3+0x260>
    5f38:	00a7e6b3          	or	a3,a5,a0
    5f3c:	e815                	bnez	s0,5f70 <__adddf3+0x24a>
    5f3e:	22068863          	beqz	a3,616e <__adddf3+0x448>
    5f42:	00c766b3          	or	a3,a4,a2
    5f46:	36068363          	beqz	a3,62ac <__adddf3+0x586>
    5f4a:	00c506b3          	add	a3,a0,a2
    5f4e:	97ba                	add	a5,a5,a4
    5f50:	00a6b533          	sltu	a0,a3,a0
    5f54:	00a78733          	add	a4,a5,a0
    5f58:	00871793          	slli	a5,a4,0x8
    5f5c:	8636                	mv	a2,a3
    5f5e:	2007d863          	bgez	a5,616e <__adddf3+0x448>
    5f62:	ff8007b7          	lui	a5,0xff800
    5f66:	17fd                	addi	a5,a5,-1 # ff7fffff <_sp+0xff7f408f>
    5f68:	8ff9                	and	a5,a5,a4
    5f6a:	8536                	mv	a0,a3
    5f6c:	4405                	li	s0,1
    5f6e:	b535                	j	5d9a <__adddf3+0x74>
    5f70:	36068563          	beqz	a3,62da <__adddf3+0x5b4>
    5f74:	8f51                	or	a4,a4,a2
    5f76:	841a                	mv	s0,t1
    5f78:	e20701e3          	beqz	a4,5d9a <__adddf3+0x74>
    5f7c:	4481                	li	s1,0
    5f7e:	004007b7          	lui	a5,0x400
    5f82:	4501                	li	a0,0
    5f84:	bd19                	j	5d9a <__adddf3+0x74>
    5f86:	34668163          	beq	a3,t1,62c8 <__adddf3+0x5a2>
    5f8a:	962a                	add	a2,a2,a0
    5f8c:	97ba                	add	a5,a5,a4
    5f8e:	00a63533          	sltu	a0,a2,a0
    5f92:	97aa                	add	a5,a5,a0
    5f94:	01f79713          	slli	a4,a5,0x1f
    5f98:	8205                	srli	a2,a2,0x1
    5f9a:	8e59                	or	a2,a2,a4
    5f9c:	8436                	mv	s0,a3
    5f9e:	0017d713          	srli	a4,a5,0x1
    5fa2:	00767793          	andi	a5,a2,7
    5fa6:	30079663          	bnez	a5,62b2 <__adddf3+0x58c>
    5faa:	87ba                	mv	a5,a4
    5fac:	8532                	mv	a0,a2
    5fae:	00879713          	slli	a4,a5,0x8
    5fb2:	de0754e3          	bgez	a4,5d9a <__adddf3+0x74>
    5fb6:	0405                	addi	s0,s0,1
    5fb8:	7ff00713          	li	a4,2047
    5fbc:	30e40763          	beq	s0,a4,62ca <__adddf3+0x5a4>
    5fc0:	ff800737          	lui	a4,0xff800
    5fc4:	177d                	addi	a4,a4,-1 # ff7fffff <_sp+0xff7f408f>
    5fc6:	8ff9                	and	a5,a5,a4
    5fc8:	bbc9                	j	5d9a <__adddf3+0x74>
    5fca:	0d005163          	blez	a6,608c <__adddf3+0x366>
    5fce:	02089863          	bnez	a7,5ffe <__adddf3+0x2d8>
    5fd2:	00c766b3          	or	a3,a4,a2
    5fd6:	dc0682e3          	beqz	a3,5d9a <__adddf3+0x74>
    5fda:	fff40813          	addi	a6,s0,-1
    5fde:	00081b63          	bnez	a6,5ff4 <__adddf3+0x2ce>
    5fe2:	40c50633          	sub	a2,a0,a2
    5fe6:	8f99                	sub	a5,a5,a4
    5fe8:	00c53533          	sltu	a0,a0,a2
    5fec:	40a78733          	sub	a4,a5,a0
    5ff0:	4405                	li	s0,1
    5ff2:	a899                	j	6048 <__adddf3+0x322>
    5ff4:	00641a63          	bne	s0,t1,6008 <__adddf3+0x2e2>
    5ff8:	7ff00413          	li	s0,2047
    5ffc:	bb79                	j	5d9a <__adddf3+0x74>
    5ffe:	d8640ee3          	beq	s0,t1,5d9a <__adddf3+0x74>
    6002:	008006b7          	lui	a3,0x800
    6006:	8f55                	or	a4,a4,a3
    6008:	03800693          	li	a3,56
    600c:	0706cb63          	blt	a3,a6,6082 <__adddf3+0x35c>
    6010:	46fd                	li	a3,31
    6012:	02000893          	li	a7,32
    6016:	0506c363          	blt	a3,a6,605c <__adddf3+0x336>
    601a:	410888b3          	sub	a7,a7,a6
    601e:	011716b3          	sll	a3,a4,a7
    6022:	010655b3          	srl	a1,a2,a6
    6026:	011618b3          	sll	a7,a2,a7
    602a:	8ecd                	or	a3,a3,a1
    602c:	011038b3          	snez	a7,a7
    6030:	0116e6b3          	or	a3,a3,a7
    6034:	01075833          	srl	a6,a4,a6
    6038:	40d50633          	sub	a2,a0,a3
    603c:	41078833          	sub	a6,a5,a6
    6040:	00c53533          	sltu	a0,a0,a2
    6044:	40a80733          	sub	a4,a6,a0
    6048:	00871793          	slli	a5,a4,0x8
    604c:	f407dbe3          	bgez	a5,5fa2 <__adddf3+0x27c>
    6050:	00971913          	slli	s2,a4,0x9
    6054:	00995913          	srli	s2,s2,0x9
    6058:	89b2                	mv	s3,a2
    605a:	a24d                	j	61fc <__adddf3+0x4d6>
    605c:	fe080693          	addi	a3,a6,-32
    6060:	00d756b3          	srl	a3,a4,a3
    6064:	4581                	li	a1,0
    6066:	01180863          	beq	a6,a7,6076 <__adddf3+0x350>
    606a:	04000593          	li	a1,64
    606e:	410585b3          	sub	a1,a1,a6
    6072:	00b715b3          	sll	a1,a4,a1
    6076:	8dd1                	or	a1,a1,a2
    6078:	00b035b3          	snez	a1,a1
    607c:	8ecd                	or	a3,a3,a1
    607e:	4801                	li	a6,0
    6080:	bf65                	j	6038 <__adddf3+0x312>
    6082:	00c766b3          	or	a3,a4,a2
    6086:	00d036b3          	snez	a3,a3
    608a:	bfd5                	j	607e <__adddf3+0x358>
    608c:	0c080263          	beqz	a6,6150 <__adddf3+0x42a>
    6090:	40888833          	sub	a6,a7,s0
    6094:	ec35                	bnez	s0,6110 <__adddf3+0x3ea>
    6096:	00a7e5b3          	or	a1,a5,a0
    609a:	e591                	bnez	a1,60a6 <__adddf3+0x380>
    609c:	84b6                	mv	s1,a3
    609e:	87ba                	mv	a5,a4
    60a0:	8532                	mv	a0,a2
    60a2:	8442                	mv	s0,a6
    60a4:	b9dd                	j	5d9a <__adddf3+0x74>
    60a6:	fff80593          	addi	a1,a6,-1
    60aa:	ed81                	bnez	a1,60c2 <__adddf3+0x39c>
    60ac:	40a60533          	sub	a0,a2,a0
    60b0:	00a635b3          	sltu	a1,a2,a0
    60b4:	40f707b3          	sub	a5,a4,a5
    60b8:	862a                	mv	a2,a0
    60ba:	40b78733          	sub	a4,a5,a1
    60be:	84b6                	mv	s1,a3
    60c0:	bf05                	j	5ff0 <__adddf3+0x2ca>
    60c2:	fc680de3          	beq	a6,t1,609c <__adddf3+0x376>
    60c6:	03800813          	li	a6,56
    60ca:	06b84f63          	blt	a6,a1,6148 <__adddf3+0x422>
    60ce:	487d                	li	a6,31
    60d0:	02000e13          	li	t3,32
    60d4:	04b84563          	blt	a6,a1,611e <__adddf3+0x3f8>
    60d8:	40be0e33          	sub	t3,t3,a1
    60dc:	00b55333          	srl	t1,a0,a1
    60e0:	01c79833          	sll	a6,a5,t3
    60e4:	01c51e33          	sll	t3,a0,t3
    60e8:	00686833          	or	a6,a6,t1
    60ec:	01c03e33          	snez	t3,t3
    60f0:	01c86533          	or	a0,a6,t3
    60f4:	00b7d5b3          	srl	a1,a5,a1
    60f8:	40a60533          	sub	a0,a2,a0
    60fc:	00a637b3          	sltu	a5,a2,a0
    6100:	40b705b3          	sub	a1,a4,a1
    6104:	862a                	mv	a2,a0
    6106:	40f58733          	sub	a4,a1,a5
    610a:	8446                	mv	s0,a7
    610c:	84b6                	mv	s1,a3
    610e:	bf2d                	j	6048 <__adddf3+0x322>
    6110:	1c688463          	beq	a7,t1,62d8 <__adddf3+0x5b2>
    6114:	008005b7          	lui	a1,0x800
    6118:	8fcd                	or	a5,a5,a1
    611a:	85c2                	mv	a1,a6
    611c:	b76d                	j	60c6 <__adddf3+0x3a0>
    611e:	fe058813          	addi	a6,a1,-32 # 7fffe0 <_sp+0x7f4070>
    6122:	0107d833          	srl	a6,a5,a6
    6126:	4301                	li	t1,0
    6128:	01c58863          	beq	a1,t3,6138 <__adddf3+0x412>
    612c:	04000313          	li	t1,64
    6130:	40b30333          	sub	t1,t1,a1
    6134:	00679333          	sll	t1,a5,t1
    6138:	00a36333          	or	t1,t1,a0
    613c:	00603333          	snez	t1,t1
    6140:	00686533          	or	a0,a6,t1
    6144:	4581                	li	a1,0
    6146:	bf4d                	j	60f8 <__adddf3+0x3d2>
    6148:	8d5d                	or	a0,a0,a5
    614a:	00a03533          	snez	a0,a0
    614e:	bfdd                	j	6144 <__adddf3+0x41e>
    6150:	00140593          	addi	a1,s0,1
    6154:	7fe5f593          	andi	a1,a1,2046
    6158:	eda5                	bnez	a1,61d0 <__adddf3+0x4aa>
    615a:	00a7e833          	or	a6,a5,a0
    615e:	00c765b3          	or	a1,a4,a2
    6162:	e831                	bnez	s0,61b6 <__adddf3+0x490>
    6164:	00081a63          	bnez	a6,6178 <__adddf3+0x452>
    6168:	16058363          	beqz	a1,62ce <__adddf3+0x5a8>
    616c:	84b6                	mv	s1,a3
    616e:	00c76533          	or	a0,a4,a2
    6172:	c565                	beqz	a0,625a <__adddf3+0x534>
    6174:	4401                	li	s0,0
    6176:	b535                	j	5fa2 <__adddf3+0x27c>
    6178:	12058a63          	beqz	a1,62ac <__adddf3+0x586>
    617c:	40c50833          	sub	a6,a0,a2
    6180:	010538b3          	sltu	a7,a0,a6
    6184:	40e785b3          	sub	a1,a5,a4
    6188:	411585b3          	sub	a1,a1,a7
    618c:	00859893          	slli	a7,a1,0x8
    6190:	0008dc63          	bgez	a7,61a8 <__adddf3+0x482>
    6194:	40a60533          	sub	a0,a2,a0
    6198:	00a635b3          	sltu	a1,a2,a0
    619c:	40f707b3          	sub	a5,a4,a5
    61a0:	862a                	mv	a2,a0
    61a2:	40b78733          	sub	a4,a5,a1
    61a6:	b7d9                	j	616c <__adddf3+0x446>
    61a8:	00b86533          	or	a0,a6,a1
    61ac:	12050363          	beqz	a0,62d2 <__adddf3+0x5ac>
    61b0:	872e                	mv	a4,a1
    61b2:	8642                	mv	a2,a6
    61b4:	bf6d                	j	616e <__adddf3+0x448>
    61b6:	00081963          	bnez	a6,61c8 <__adddf3+0x4a2>
    61ba:	10059f63          	bnez	a1,62d8 <__adddf3+0x5b2>
    61be:	4481                	li	s1,0
    61c0:	4501                	li	a0,0
    61c2:	004007b7          	lui	a5,0x400
    61c6:	bd0d                	j	5ff8 <__adddf3+0x2d2>
    61c8:	841a                	mv	s0,t1
    61ca:	bc0588e3          	beqz	a1,5d9a <__adddf3+0x74>
    61ce:	b37d                	j	5f7c <__adddf3+0x256>
    61d0:	40c505b3          	sub	a1,a0,a2
    61d4:	00b53833          	sltu	a6,a0,a1
    61d8:	40e78933          	sub	s2,a5,a4
    61dc:	41090933          	sub	s2,s2,a6
    61e0:	00891813          	slli	a6,s2,0x8
    61e4:	89ae                	mv	s3,a1
    61e6:	06085663          	bgez	a6,6252 <__adddf3+0x52c>
    61ea:	40a609b3          	sub	s3,a2,a0
    61ee:	40f70933          	sub	s2,a4,a5
    61f2:	01363633          	sltu	a2,a2,s3
    61f6:	40c90933          	sub	s2,s2,a2
    61fa:	84b6                	mv	s1,a3
    61fc:	06090263          	beqz	s2,6260 <__adddf3+0x53a>
    6200:	854a                	mv	a0,s2
    6202:	564010ef          	jal	7766 <__clzsi2>
    6206:	ff850793          	addi	a5,a0,-8
    620a:	02000713          	li	a4,32
    620e:	8f1d                	sub	a4,a4,a5
    6210:	00f91933          	sll	s2,s2,a5
    6214:	00e9d733          	srl	a4,s3,a4
    6218:	01276733          	or	a4,a4,s2
    621c:	00f99633          	sll	a2,s3,a5
    6220:	0887c063          	blt	a5,s0,62a0 <__adddf3+0x57a>
    6224:	8f81                	sub	a5,a5,s0
    6226:	00178513          	addi	a0,a5,1 # 400001 <_sp+0x3f4091>
    622a:	46fd                	li	a3,31
    622c:	02000593          	li	a1,32
    6230:	04a6c663          	blt	a3,a0,627c <__adddf3+0x556>
    6234:	8d89                	sub	a1,a1,a0
    6236:	00b717b3          	sll	a5,a4,a1
    623a:	00a656b3          	srl	a3,a2,a0
    623e:	00b615b3          	sll	a1,a2,a1
    6242:	8fd5                	or	a5,a5,a3
    6244:	00b035b3          	snez	a1,a1
    6248:	00b7e633          	or	a2,a5,a1
    624c:	00a75733          	srl	a4,a4,a0
    6250:	bf39                	j	616e <__adddf3+0x448>
    6252:	0125e533          	or	a0,a1,s2
    6256:	f15d                	bnez	a0,61fc <__adddf3+0x4d6>
    6258:	4481                	li	s1,0
    625a:	4781                	li	a5,0
    625c:	4401                	li	s0,0
    625e:	be35                	j	5d9a <__adddf3+0x74>
    6260:	854e                	mv	a0,s3
    6262:	504010ef          	jal	7766 <__clzsi2>
    6266:	01850793          	addi	a5,a0,24
    626a:	477d                	li	a4,31
    626c:	f8f75fe3          	bge	a4,a5,620a <__adddf3+0x4e4>
    6270:	ff850713          	addi	a4,a0,-8
    6274:	00e99733          	sll	a4,s3,a4
    6278:	4601                	li	a2,0
    627a:	b75d                	j	6220 <__adddf3+0x4fa>
    627c:	1785                	addi	a5,a5,-31
    627e:	00f757b3          	srl	a5,a4,a5
    6282:	4681                	li	a3,0
    6284:	00b50763          	beq	a0,a1,6292 <__adddf3+0x56c>
    6288:	04000693          	li	a3,64
    628c:	8e89                	sub	a3,a3,a0
    628e:	00d716b3          	sll	a3,a4,a3
    6292:	8ed1                	or	a3,a3,a2
    6294:	00d036b3          	snez	a3,a3
    6298:	00d7e633          	or	a2,a5,a3
    629c:	4701                	li	a4,0
    629e:	bdc1                	j	616e <__adddf3+0x448>
    62a0:	8c1d                	sub	s0,s0,a5
    62a2:	ff8007b7          	lui	a5,0xff800
    62a6:	17fd                	addi	a5,a5,-1 # ff7fffff <_sp+0xff7f408f>
    62a8:	8f7d                	and	a4,a4,a5
    62aa:	b9e5                	j	5fa2 <__adddf3+0x27c>
    62ac:	873e                	mv	a4,a5
    62ae:	862a                	mv	a2,a0
    62b0:	bd7d                	j	616e <__adddf3+0x448>
    62b2:	00f67793          	andi	a5,a2,15
    62b6:	4691                	li	a3,4
    62b8:	ced789e3          	beq	a5,a3,5faa <__adddf3+0x284>
    62bc:	00d60533          	add	a0,a2,a3
    62c0:	00c537b3          	sltu	a5,a0,a2
    62c4:	97ba                	add	a5,a5,a4
    62c6:	b1e5                	j	5fae <__adddf3+0x288>
    62c8:	8436                	mv	s0,a3
    62ca:	4781                	li	a5,0
    62cc:	b95d                	j	5f82 <__adddf3+0x25c>
    62ce:	4481                	li	s1,0
    62d0:	bfed                	j	62ca <__adddf3+0x5a4>
    62d2:	4481                	li	s1,0
    62d4:	4781                	li	a5,0
    62d6:	b4d1                	j	5d9a <__adddf3+0x74>
    62d8:	84b6                	mv	s1,a3
    62da:	87ba                	mv	a5,a4
    62dc:	8532                	mv	a0,a2
    62de:	bb29                	j	5ff8 <__adddf3+0x2d2>

000062e0 <__divdf3>:
    62e0:	7179                	addi	sp,sp,-48
    62e2:	ca56                	sw	s5,20(sp)
    62e4:	0145da93          	srli	s5,a1,0x14
    62e8:	d422                	sw	s0,40(sp)
    62ea:	d226                	sw	s1,36(sp)
    62ec:	d04a                	sw	s2,32(sp)
    62ee:	ce4e                	sw	s3,28(sp)
    62f0:	c85a                	sw	s6,16(sp)
    62f2:	c65e                	sw	s7,12(sp)
    62f4:	8b2a                	mv	s6,a0
    62f6:	842a                	mv	s0,a0
    62f8:	00c59493          	slli	s1,a1,0xc
    62fc:	d606                	sw	ra,44(sp)
    62fe:	cc52                	sw	s4,24(sp)
    6300:	7ffaf513          	andi	a0,s5,2047
    6304:	8bb2                	mv	s7,a2
    6306:	8936                	mv	s2,a3
    6308:	80b1                	srli	s1,s1,0xc
    630a:	01f5d993          	srli	s3,a1,0x1f
    630e:	2c050d63          	beqz	a0,65e8 <__divdf3+0x308>
    6312:	7ff00793          	li	a5,2047
    6316:	32f50563          	beq	a0,a5,6640 <__divdf3+0x360>
    631a:	01db5693          	srli	a3,s6,0x1d
    631e:	048e                	slli	s1,s1,0x3
    6320:	8ec5                	or	a3,a3,s1
    6322:	008007b7          	lui	a5,0x800
    6326:	00f6ea33          	or	s4,a3,a5
    632a:	003b1413          	slli	s0,s6,0x3
    632e:	c0150a93          	addi	s5,a0,-1023
    6332:	4b01                	li	s6,0
    6334:	01495713          	srli	a4,s2,0x14
    6338:	00c91493          	slli	s1,s2,0xc
    633c:	7ff77713          	andi	a4,a4,2047
    6340:	88de                	mv	a7,s7
    6342:	80b1                	srli	s1,s1,0xc
    6344:	01f95913          	srli	s2,s2,0x1f
    6348:	30070c63          	beqz	a4,6660 <__divdf3+0x380>
    634c:	7ff00793          	li	a5,2047
    6350:	36f70163          	beq	a4,a5,66b2 <__divdf3+0x3d2>
    6354:	01dbd793          	srli	a5,s7,0x1d
    6358:	048e                	slli	s1,s1,0x3
    635a:	8cdd                	or	s1,s1,a5
    635c:	008007b7          	lui	a5,0x800
    6360:	8fc5                	or	a5,a5,s1
    6362:	003b9893          	slli	a7,s7,0x3
    6366:	c0170713          	addi	a4,a4,-1023
    636a:	4681                	li	a3,0
    636c:	40ea8533          	sub	a0,s5,a4
    6370:	002b1713          	slli	a4,s6,0x2
    6374:	8f55                	or	a4,a4,a3
    6376:	461d                	li	a2,7
    6378:	0129c833          	xor	a6,s3,s2
    637c:	34e64863          	blt	a2,a4,66cc <__divdf3+0x3ec>
    6380:	4605                	li	a2,1
    6382:	48c70163          	beq	a4,a2,6804 <__divdf3+0x524>
    6386:	ffe70593          	addi	a1,a4,-2
    638a:	4315                	li	t1,5
    638c:	34b37b63          	bgeu	t1,a1,66e2 <__divdf3+0x402>
    6390:	0147e663          	bltu	a5,s4,639c <__divdf3+0xbc>
    6394:	39146563          	bltu	s0,a7,671e <__divdf3+0x43e>
    6398:	38fa1363          	bne	s4,a5,671e <__divdf3+0x43e>
    639c:	01fa1693          	slli	a3,s4,0x1f
    63a0:	00145713          	srli	a4,s0,0x1
    63a4:	01f41293          	slli	t0,s0,0x1f
    63a8:	001a5a13          	srli	s4,s4,0x1
    63ac:	00e6e433          	or	s0,a3,a4
    63b0:	00879e13          	slli	t3,a5,0x8
    63b4:	0188d613          	srli	a2,a7,0x18
    63b8:	01c66633          	or	a2,a2,t3
    63bc:	010e5e13          	srli	t3,t3,0x10
    63c0:	03ca57b3          	divu	a5,s4,t3
    63c4:	01061e93          	slli	t4,a2,0x10
    63c8:	010ede93          	srli	t4,t4,0x10
    63cc:	01045713          	srli	a4,s0,0x10
    63d0:	00889593          	slli	a1,a7,0x8
    63d4:	03ca76b3          	remu	a3,s4,t3
    63d8:	02fe8333          	mul	t1,t4,a5
    63dc:	06c2                	slli	a3,a3,0x10
    63de:	8f55                	or	a4,a4,a3
    63e0:	00677863          	bgeu	a4,t1,63f0 <__divdf3+0x110>
    63e4:	9732                	add	a4,a4,a2
    63e6:	00c76463          	bltu	a4,a2,63ee <__divdf3+0x10e>
    63ea:	32676d63          	bltu	a4,t1,6724 <__divdf3+0x444>
    63ee:	17fd                	addi	a5,a5,-1 # 7fffff <_sp+0x7f408f>
    63f0:	40670733          	sub	a4,a4,t1
    63f4:	03c75333          	divu	t1,a4,t3
    63f8:	01041693          	slli	a3,s0,0x10
    63fc:	82c1                	srli	a3,a3,0x10
    63fe:	03c77733          	remu	a4,a4,t3
    6402:	026e8f33          	mul	t5,t4,t1
    6406:	0742                	slli	a4,a4,0x10
    6408:	8f55                	or	a4,a4,a3
    640a:	01e77863          	bgeu	a4,t5,641a <__divdf3+0x13a>
    640e:	9732                	add	a4,a4,a2
    6410:	01e77463          	bgeu	a4,t5,6418 <__divdf3+0x138>
    6414:	30c77b63          	bgeu	a4,a2,672a <__divdf3+0x44a>
    6418:	137d                	addi	t1,t1,-1 # ffffff <_sp+0xff408f>
    641a:	07c2                	slli	a5,a5,0x10
    641c:	0067e7b3          	or	a5,a5,t1
    6420:	01079693          	slli	a3,a5,0x10
    6424:	01059f93          	slli	t6,a1,0x10
    6428:	0107d393          	srli	t2,a5,0x10
    642c:	82c1                	srli	a3,a3,0x10
    642e:	010fdf93          	srli	t6,t6,0x10
    6432:	41e70733          	sub	a4,a4,t5
    6436:	0105df13          	srli	t5,a1,0x10
    643a:	03f68433          	mul	s0,a3,t6
    643e:	03f384b3          	mul	s1,t2,t6
    6442:	01045313          	srli	t1,s0,0x10
    6446:	02df06b3          	mul	a3,t5,a3
    644a:	03e383b3          	mul	t2,t2,t5
    644e:	96a6                	add	a3,a3,s1
    6450:	9336                	add	t1,t1,a3
    6452:	00937463          	bgeu	t1,s1,645a <__divdf3+0x17a>
    6456:	66c1                	lui	a3,0x10
    6458:	93b6                	add	t2,t2,a3
    645a:	01035693          	srli	a3,t1,0x10
    645e:	0442                	slli	s0,s0,0x10
    6460:	0342                	slli	t1,t1,0x10
    6462:	8041                	srli	s0,s0,0x10
    6464:	969e                	add	a3,a3,t2
    6466:	9322                	add	t1,t1,s0
    6468:	00d76663          	bltu	a4,a3,6474 <__divdf3+0x194>
    646c:	02d71a63          	bne	a4,a3,64a0 <__divdf3+0x1c0>
    6470:	0262f863          	bgeu	t0,t1,64a0 <__divdf3+0x1c0>
    6474:	00b283b3          	add	t2,t0,a1
    6478:	0053b433          	sltu	s0,t2,t0
    647c:	00c40933          	add	s2,s0,a2
    6480:	974a                	add	a4,a4,s2
    6482:	fff78493          	addi	s1,a5,-1
    6486:	829e                	mv	t0,t2
    6488:	00e66563          	bltu	a2,a4,6492 <__divdf3+0x1b2>
    648c:	00e61963          	bne	a2,a4,649e <__divdf3+0x1be>
    6490:	e419                	bnez	s0,649e <__divdf3+0x1be>
    6492:	28d76f63          	bltu	a4,a3,6730 <__divdf3+0x450>
    6496:	0063f463          	bgeu	t2,t1,649e <__divdf3+0x1be>
    649a:	28e68b63          	beq	a3,a4,6730 <__divdf3+0x450>
    649e:	87a6                	mv	a5,s1
    64a0:	40628333          	sub	t1,t0,t1
    64a4:	8f15                	sub	a4,a4,a3
    64a6:	0062b2b3          	sltu	t0,t0,t1
    64aa:	40570733          	sub	a4,a4,t0
    64ae:	547d                	li	s0,-1
    64b0:	0ce60463          	beq	a2,a4,6578 <__divdf3+0x298>
    64b4:	03c75433          	divu	s0,a4,t3
    64b8:	01035693          	srli	a3,t1,0x10
    64bc:	03c77733          	remu	a4,a4,t3
    64c0:	028e82b3          	mul	t0,t4,s0
    64c4:	0742                	slli	a4,a4,0x10
    64c6:	8ed9                	or	a3,a3,a4
    64c8:	0056f863          	bgeu	a3,t0,64d8 <__divdf3+0x1f8>
    64cc:	96b2                	add	a3,a3,a2
    64ce:	0056f463          	bgeu	a3,t0,64d6 <__divdf3+0x1f6>
    64d2:	26c6f763          	bgeu	a3,a2,6740 <__divdf3+0x460>
    64d6:	147d                	addi	s0,s0,-1
    64d8:	405686b3          	sub	a3,a3,t0
    64dc:	03c6d2b3          	divu	t0,a3,t3
    64e0:	01031713          	slli	a4,t1,0x10
    64e4:	8341                	srli	a4,a4,0x10
    64e6:	03c6f6b3          	remu	a3,a3,t3
    64ea:	025e8eb3          	mul	t4,t4,t0
    64ee:	06c2                	slli	a3,a3,0x10
    64f0:	8f55                	or	a4,a4,a3
    64f2:	01d77863          	bgeu	a4,t4,6502 <__divdf3+0x222>
    64f6:	9732                	add	a4,a4,a2
    64f8:	01d77463          	bgeu	a4,t4,6500 <__divdf3+0x220>
    64fc:	24c77563          	bgeu	a4,a2,6746 <__divdf3+0x466>
    6500:	12fd                	addi	t0,t0,-1
    6502:	0442                	slli	s0,s0,0x10
    6504:	00546433          	or	s0,s0,t0
    6508:	01041693          	slli	a3,s0,0x10
    650c:	82c1                	srli	a3,a3,0x10
    650e:	01045e13          	srli	t3,s0,0x10
    6512:	41d70733          	sub	a4,a4,t4
    6516:	02df8eb3          	mul	t4,t6,a3
    651a:	03cf8fb3          	mul	t6,t6,t3
    651e:	03cf0e33          	mul	t3,t5,t3
    6522:	02df0f33          	mul	t5,t5,a3
    6526:	010ed693          	srli	a3,t4,0x10
    652a:	9f7e                	add	t5,t5,t6
    652c:	96fa                	add	a3,a3,t5
    652e:	01f6f463          	bgeu	a3,t6,6536 <__divdf3+0x256>
    6532:	6341                	lui	t1,0x10
    6534:	9e1a                	add	t3,t3,t1
    6536:	0106d313          	srli	t1,a3,0x10
    653a:	0ec2                	slli	t4,t4,0x10
    653c:	06c2                	slli	a3,a3,0x10
    653e:	010ede93          	srli	t4,t4,0x10
    6542:	9372                	add	t1,t1,t3
    6544:	96f6                	add	a3,a3,t4
    6546:	00676663          	bltu	a4,t1,6552 <__divdf3+0x272>
    654a:	20671c63          	bne	a4,t1,6762 <__divdf3+0x482>
    654e:	20068763          	beqz	a3,675c <__divdf3+0x47c>
    6552:	00e60e33          	add	t3,a2,a4
    6556:	fff40e93          	addi	t4,s0,-1
    655a:	8772                	mv	a4,t3
    655c:	00ce6863          	bltu	t3,a2,656c <__divdf3+0x28c>
    6560:	1e6e6663          	bltu	t3,t1,674c <__divdf3+0x46c>
    6564:	1e6e1e63          	bne	t3,t1,6760 <__divdf3+0x480>
    6568:	1ed5e263          	bltu	a1,a3,674c <__divdf3+0x46c>
    656c:	88ae                	mv	a7,a1
    656e:	8476                	mv	s0,t4
    6570:	1ed89963          	bne	a7,a3,6762 <__divdf3+0x482>
    6574:	1e671763          	bne	a4,t1,6762 <__divdf3+0x482>
    6578:	3ff50713          	addi	a4,a0,1023
    657c:	1ee05a63          	blez	a4,6770 <__divdf3+0x490>
    6580:	00747693          	andi	a3,s0,7
    6584:	ce81                	beqz	a3,659c <__divdf3+0x2bc>
    6586:	00f47693          	andi	a3,s0,15
    658a:	4611                	li	a2,4
    658c:	00c68863          	beq	a3,a2,659c <__divdf3+0x2bc>
    6590:	00c406b3          	add	a3,s0,a2
    6594:	0086b633          	sltu	a2,a3,s0
    6598:	97b2                	add	a5,a5,a2
    659a:	8436                	mv	s0,a3
    659c:	00779693          	slli	a3,a5,0x7
    65a0:	0006d863          	bgez	a3,65b0 <__divdf3+0x2d0>
    65a4:	ff000737          	lui	a4,0xff000
    65a8:	177d                	addi	a4,a4,-1 # feffffff <_sp+0xfeff408f>
    65aa:	8ff9                	and	a5,a5,a4
    65ac:	40050713          	addi	a4,a0,1024
    65b0:	7fe00693          	li	a3,2046
    65b4:	24e6c863          	blt	a3,a4,6804 <__divdf3+0x524>
    65b8:	01d79613          	slli	a2,a5,0x1d
    65bc:	800d                	srli	s0,s0,0x3
    65be:	8e41                	or	a2,a2,s0
    65c0:	838d                	srli	a5,a5,0x3
    65c2:	50b2                	lw	ra,44(sp)
    65c4:	5422                	lw	s0,40(sp)
    65c6:	07b2                	slli	a5,a5,0xc
    65c8:	0752                	slli	a4,a4,0x14
    65ca:	83b1                	srli	a5,a5,0xc
    65cc:	8f5d                	or	a4,a4,a5
    65ce:	087e                	slli	a6,a6,0x1f
    65d0:	5492                	lw	s1,36(sp)
    65d2:	5902                	lw	s2,32(sp)
    65d4:	49f2                	lw	s3,28(sp)
    65d6:	4a62                	lw	s4,24(sp)
    65d8:	4ad2                	lw	s5,20(sp)
    65da:	4b42                	lw	s6,16(sp)
    65dc:	4bb2                	lw	s7,12(sp)
    65de:	8532                	mv	a0,a2
    65e0:	010765b3          	or	a1,a4,a6
    65e4:	6145                	addi	sp,sp,48
    65e6:	8082                	ret
    65e8:	0164ea33          	or	s4,s1,s6
    65ec:	060a0263          	beqz	s4,6650 <__divdf3+0x370>
    65f0:	c88d                	beqz	s1,6622 <__divdf3+0x342>
    65f2:	8526                	mv	a0,s1
    65f4:	172010ef          	jal	7766 <__clzsi2>
    65f8:	87aa                	mv	a5,a0
    65fa:	ff550713          	addi	a4,a0,-11
    65fe:	46f5                	li	a3,29
    6600:	ff878613          	addi	a2,a5,-8
    6604:	8e99                	sub	a3,a3,a4
    6606:	00c494b3          	sll	s1,s1,a2
    660a:	00db56b3          	srl	a3,s6,a3
    660e:	0096ea33          	or	s4,a3,s1
    6612:	00cb14b3          	sll	s1,s6,a2
    6616:	c0d00513          	li	a0,-1011
    661a:	40f50ab3          	sub	s5,a0,a5
    661e:	8426                	mv	s0,s1
    6620:	bb09                	j	6332 <__divdf3+0x52>
    6622:	855a                	mv	a0,s6
    6624:	142010ef          	jal	7766 <__clzsi2>
    6628:	01550713          	addi	a4,a0,21
    662c:	46f1                	li	a3,28
    662e:	02050793          	addi	a5,a0,32
    6632:	fce6d6e3          	bge	a3,a4,65fe <__divdf3+0x31e>
    6636:	ff850693          	addi	a3,a0,-8
    663a:	00db1a33          	sll	s4,s6,a3
    663e:	bfe1                	j	6616 <__divdf3+0x336>
    6640:	0164ea33          	or	s4,s1,s6
    6644:	000a1a63          	bnez	s4,6658 <__divdf3+0x378>
    6648:	4401                	li	s0,0
    664a:	8aaa                	mv	s5,a0
    664c:	4b09                	li	s6,2
    664e:	b1dd                	j	6334 <__divdf3+0x54>
    6650:	4401                	li	s0,0
    6652:	4a81                	li	s5,0
    6654:	4b05                	li	s6,1
    6656:	b9f9                	j	6334 <__divdf3+0x54>
    6658:	8a26                	mv	s4,s1
    665a:	8aaa                	mv	s5,a0
    665c:	4b0d                	li	s6,3
    665e:	b9d9                	j	6334 <__divdf3+0x54>
    6660:	0174e7b3          	or	a5,s1,s7
    6664:	cfa9                	beqz	a5,66be <__divdf3+0x3de>
    6666:	c49d                	beqz	s1,6694 <__divdf3+0x3b4>
    6668:	8526                	mv	a0,s1
    666a:	0fc010ef          	jal	7766 <__clzsi2>
    666e:	86aa                	mv	a3,a0
    6670:	ff550713          	addi	a4,a0,-11
    6674:	47f5                	li	a5,29
    6676:	ff868613          	addi	a2,a3,-8 # fff8 <_sp+0x4088>
    667a:	8f99                	sub	a5,a5,a4
    667c:	00c494b3          	sll	s1,s1,a2
    6680:	00fbd7b3          	srl	a5,s7,a5
    6684:	8fc5                	or	a5,a5,s1
    6686:	00cb94b3          	sll	s1,s7,a2
    668a:	c0d00713          	li	a4,-1011
    668e:	8f15                	sub	a4,a4,a3
    6690:	88a6                	mv	a7,s1
    6692:	b9e1                	j	636a <__divdf3+0x8a>
    6694:	855e                	mv	a0,s7
    6696:	0d0010ef          	jal	7766 <__clzsi2>
    669a:	01550713          	addi	a4,a0,21
    669e:	47f1                	li	a5,28
    66a0:	02050693          	addi	a3,a0,32
    66a4:	fce7d8e3          	bge	a5,a4,6674 <__divdf3+0x394>
    66a8:	ff850793          	addi	a5,a0,-8
    66ac:	00fb97b3          	sll	a5,s7,a5
    66b0:	bfe9                	j	668a <__divdf3+0x3aa>
    66b2:	0174e7b3          	or	a5,s1,s7
    66b6:	eb81                	bnez	a5,66c6 <__divdf3+0x3e6>
    66b8:	4881                	li	a7,0
    66ba:	4689                	li	a3,2
    66bc:	b945                	j	636c <__divdf3+0x8c>
    66be:	4881                	li	a7,0
    66c0:	4701                	li	a4,0
    66c2:	4685                	li	a3,1
    66c4:	b165                	j	636c <__divdf3+0x8c>
    66c6:	87a6                	mv	a5,s1
    66c8:	468d                	li	a3,3
    66ca:	b14d                	j	636c <__divdf3+0x8c>
    66cc:	1759                	addi	a4,a4,-10
    66ce:	4615                	li	a2,5
    66d0:	12e66a63          	bltu	a2,a4,6804 <__divdf3+0x524>
    66d4:	6621                	lui	a2,0x8
    66d6:	070a                	slli	a4,a4,0x2
    66d8:	3e060613          	addi	a2,a2,992 # 83e0 <zeroes.0+0x10>
    66dc:	9732                	add	a4,a4,a2
    66de:	4318                	lw	a4,0(a4)
    66e0:	8702                	jr	a4
    66e2:	00e61633          	sll	a2,a2,a4
    66e6:	05467593          	andi	a1,a2,84
    66ea:	e59d                	bnez	a1,6718 <__divdf3+0x438>
    66ec:	08867613          	andi	a2,a2,136
    66f0:	ee25                	bnez	a2,6768 <__divdf3+0x488>
    66f2:	c8671fe3          	bne	a4,t1,6390 <__divdf3+0xb0>
    66f6:	000807b7          	lui	a5,0x80
    66fa:	7ff00713          	li	a4,2047
    66fe:	4801                	li	a6,0
    6700:	b5c9                	j	65c2 <__divdf3+0x2e2>
    6702:	884e                	mv	a6,s3
    6704:	87d2                	mv	a5,s4
    6706:	4709                	li	a4,2
    6708:	0eeb0e63          	beq	s6,a4,6804 <__divdf3+0x524>
    670c:	470d                	li	a4,3
    670e:	0eeb0763          	beq	s6,a4,67fc <__divdf3+0x51c>
    6712:	4705                	li	a4,1
    6714:	e6eb12e3          	bne	s6,a4,6578 <__divdf3+0x298>
    6718:	4781                	li	a5,0
    671a:	4601                	li	a2,0
    671c:	a84d                	j	67ce <__divdf3+0x4ee>
    671e:	157d                	addi	a0,a0,-1
    6720:	4281                	li	t0,0
    6722:	b179                	j	63b0 <__divdf3+0xd0>
    6724:	17f9                	addi	a5,a5,-2 # 7fffe <_sp+0x7408e>
    6726:	9732                	add	a4,a4,a2
    6728:	b1e1                	j	63f0 <__divdf3+0x110>
    672a:	1379                	addi	t1,t1,-2 # fffe <_sp+0x408e>
    672c:	9732                	add	a4,a4,a2
    672e:	b1f5                	j	641a <__divdf3+0x13a>
    6730:	007582b3          	add	t0,a1,t2
    6734:	00b2b3b3          	sltu	t2,t0,a1
    6738:	93b2                	add	t2,t2,a2
    673a:	17f9                	addi	a5,a5,-2
    673c:	971e                	add	a4,a4,t2
    673e:	b38d                	j	64a0 <__divdf3+0x1c0>
    6740:	1479                	addi	s0,s0,-2
    6742:	96b2                	add	a3,a3,a2
    6744:	bb51                	j	64d8 <__divdf3+0x1f8>
    6746:	12f9                	addi	t0,t0,-2
    6748:	9732                	add	a4,a4,a2
    674a:	bb65                	j	6502 <__divdf3+0x222>
    674c:	08a6                	slli	a7,a7,0x9
    674e:	00b8b5b3          	sltu	a1,a7,a1
    6752:	95b2                	add	a1,a1,a2
    6754:	1479                	addi	s0,s0,-2
    6756:	00be0733          	add	a4,t3,a1
    675a:	bd19                	j	6570 <__divdf3+0x290>
    675c:	4881                	li	a7,0
    675e:	bd09                	j	6570 <__divdf3+0x290>
    6760:	8476                	mv	s0,t4
    6762:	00146413          	ori	s0,s0,1
    6766:	bd09                	j	6578 <__divdf3+0x298>
    6768:	884a                	mv	a6,s2
    676a:	8446                	mv	s0,a7
    676c:	8b36                	mv	s6,a3
    676e:	bf61                	j	6706 <__divdf3+0x426>
    6770:	c32d                	beqz	a4,67d2 <__divdf3+0x4f2>
    6772:	fc900693          	li	a3,-55
    6776:	fad741e3          	blt	a4,a3,6718 <__divdf3+0x438>
    677a:	5689                	li	a3,-30
    677c:	04d74d63          	blt	a4,a3,67d6 <__divdf3+0x4f6>
    6780:	4685                	li	a3,1
    6782:	8e99                	sub	a3,a3,a4
    6784:	41e50513          	addi	a0,a0,1054
    6788:	00d45733          	srl	a4,s0,a3
    678c:	00a41433          	sll	s0,s0,a0
    6790:	00803433          	snez	s0,s0
    6794:	00a79533          	sll	a0,a5,a0
    6798:	8c49                	or	s0,s0,a0
    679a:	8f41                	or	a4,a4,s0
    679c:	00d7d7b3          	srl	a5,a5,a3
    67a0:	00777693          	andi	a3,a4,7
    67a4:	ce81                	beqz	a3,67bc <__divdf3+0x4dc>
    67a6:	00f77693          	andi	a3,a4,15
    67aa:	4611                	li	a2,4
    67ac:	00c68863          	beq	a3,a2,67bc <__divdf3+0x4dc>
    67b0:	00c706b3          	add	a3,a4,a2
    67b4:	00e6b633          	sltu	a2,a3,a4
    67b8:	97b2                	add	a5,a5,a2
    67ba:	8736                	mv	a4,a3
    67bc:	00879693          	slli	a3,a5,0x8
    67c0:	0406c763          	bltz	a3,680e <__divdf3+0x52e>
    67c4:	01d79613          	slli	a2,a5,0x1d
    67c8:	830d                	srli	a4,a4,0x3
    67ca:	8e59                	or	a2,a2,a4
    67cc:	838d                	srli	a5,a5,0x3
    67ce:	4701                	li	a4,0
    67d0:	bbcd                	j	65c2 <__divdf3+0x2e2>
    67d2:	4685                	li	a3,1
    67d4:	bf45                	j	6784 <__divdf3+0x4a4>
    67d6:	5585                	li	a1,-31
    67d8:	40e586b3          	sub	a3,a1,a4
    67dc:	00d7d6b3          	srl	a3,a5,a3
    67e0:	4601                	li	a2,0
    67e2:	00b70663          	beq	a4,a1,67ee <__divdf3+0x50e>
    67e6:	43e50513          	addi	a0,a0,1086
    67ea:	00a79633          	sll	a2,a5,a0
    67ee:	8e41                	or	a2,a2,s0
    67f0:	00c03633          	snez	a2,a2
    67f4:	00c6e733          	or	a4,a3,a2
    67f8:	4781                	li	a5,0
    67fa:	b75d                	j	67a0 <__divdf3+0x4c0>
    67fc:	000807b7          	lui	a5,0x80
    6800:	4601                	li	a2,0
    6802:	bde5                	j	66fa <__divdf3+0x41a>
    6804:	4781                	li	a5,0
    6806:	4601                	li	a2,0
    6808:	7ff00713          	li	a4,2047
    680c:	bb5d                	j	65c2 <__divdf3+0x2e2>
    680e:	4781                	li	a5,0
    6810:	4601                	li	a2,0
    6812:	4705                	li	a4,1
    6814:	b37d                	j	65c2 <__divdf3+0x2e2>

00006816 <__eqdf2>:
    6816:	0145d813          	srli	a6,a1,0x14
    681a:	00c59793          	slli	a5,a1,0xc
    681e:	00c69713          	slli	a4,a3,0xc
    6822:	0146d893          	srli	a7,a3,0x14
    6826:	7ff87813          	andi	a6,a6,2047
    682a:	7ff00313          	li	t1,2047
    682e:	83b1                	srli	a5,a5,0xc
    6830:	01f5de93          	srli	t4,a1,0x1f
    6834:	8331                	srli	a4,a4,0xc
    6836:	7ff8f893          	andi	a7,a7,2047
    683a:	01f6de13          	srli	t3,a3,0x1f
    683e:	00681963          	bne	a6,t1,6850 <__eqdf2+0x3a>
    6842:	00a7ef33          	or	t5,a5,a0
    6846:	000f0563          	beqz	t5,6850 <__eqdf2+0x3a>
    684a:	4705                	li	a4,1
    684c:	853a                	mv	a0,a4
    684e:	8082                	ret
    6850:	00689463          	bne	a7,t1,6858 <__eqdf2+0x42>
    6854:	8f51                	or	a4,a4,a2
    6856:	fb75                	bnez	a4,684a <__eqdf2+0x34>
    6858:	8ead                	xor	a3,a3,a1
    685a:	0686                	slli	a3,a3,0x1
    685c:	f6fd                	bnez	a3,684a <__eqdf2+0x34>
    685e:	fec516e3          	bne	a0,a2,684a <__eqdf2+0x34>
    6862:	4701                	li	a4,0
    6864:	ffce84e3          	beq	t4,t3,684c <__eqdf2+0x36>
    6868:	fe0811e3          	bnez	a6,684a <__eqdf2+0x34>
    686c:	8fc9                	or	a5,a5,a0
    686e:	00f03733          	snez	a4,a5
    6872:	bfe9                	j	684c <__eqdf2+0x36>

00006874 <__gedf2>:
    6874:	0145d313          	srli	t1,a1,0x14
    6878:	00c59893          	slli	a7,a1,0xc
    687c:	00c69713          	slli	a4,a3,0xc
    6880:	0146d813          	srli	a6,a3,0x14
    6884:	7ff37313          	andi	t1,t1,2047
    6888:	7ff00793          	li	a5,2047
    688c:	00c8d893          	srli	a7,a7,0xc
    6890:	81fd                	srli	a1,a1,0x1f
    6892:	8331                	srli	a4,a4,0xc
    6894:	7ff87813          	andi	a6,a6,2047
    6898:	82fd                	srli	a3,a3,0x1f
    689a:	02f30e63          	beq	t1,a5,68d6 <__gedf2+0x62>
    689e:	7ff00e13          	li	t3,2047
    68a2:	87c2                	mv	a5,a6
    68a4:	01c81663          	bne	a6,t3,68b0 <__gedf2+0x3c>
    68a8:	00c76e33          	or	t3,a4,a2
    68ac:	020e1863          	bnez	t3,68dc <__gedf2+0x68>
    68b0:	4e01                	li	t3,0
    68b2:	00031663          	bnez	t1,68be <__gedf2+0x4a>
    68b6:	00a8ee33          	or	t3,a7,a0
    68ba:	001e3e13          	seqz	t3,t3
    68be:	04081963          	bnez	a6,6910 <__gedf2+0x9c>
    68c2:	00c76eb3          	or	t4,a4,a2
    68c6:	000e0e63          	beqz	t3,68e2 <__gedf2+0x6e>
    68ca:	000e8a63          	beqz	t4,68de <__gedf2+0x6a>
    68ce:	00169793          	slli	a5,a3,0x1
    68d2:	17fd                	addi	a5,a5,-1 # 7ffff <_sp+0x7408f>
    68d4:	a029                	j	68de <__gedf2+0x6a>
    68d6:	00a8e7b3          	or	a5,a7,a0
    68da:	d3f1                	beqz	a5,689e <__gedf2+0x2a>
    68dc:	57f9                	li	a5,-2
    68de:	853e                	mv	a0,a5
    68e0:	8082                	ret
    68e2:	020e9963          	bnez	t4,6914 <__gedf2+0xa0>
    68e6:	40b005b3          	neg	a1,a1
    68ea:	0015e793          	ori	a5,a1,1
    68ee:	bfc5                	j	68de <__gedf2+0x6a>
    68f0:	fd034fe3          	blt	t1,a6,68ce <__gedf2+0x5a>
    68f4:	ff1769e3          	bltu	a4,a7,68e6 <__gedf2+0x72>
    68f8:	00a67463          	bgeu	a2,a0,6900 <__gedf2+0x8c>
    68fc:	fee885e3          	beq	a7,a4,68e6 <__gedf2+0x72>
    6900:	00c56563          	bltu	a0,a2,690a <__gedf2+0x96>
    6904:	4781                	li	a5,0
    6906:	fce8fce3          	bgeu	a7,a4,68de <__gedf2+0x6a>
    690a:	00159793          	slli	a5,a1,0x1
    690e:	b7d1                	j	68d2 <__gedf2+0x5e>
    6910:	fa0e1fe3          	bnez	t3,68ce <__gedf2+0x5a>
    6914:	fcb699e3          	bne	a3,a1,68e6 <__gedf2+0x72>
    6918:	fc685ce3          	bge	a6,t1,68f0 <__gedf2+0x7c>
    691c:	40d006b3          	neg	a3,a3
    6920:	0016e793          	ori	a5,a3,1
    6924:	bf6d                	j	68de <__gedf2+0x6a>

00006926 <__ledf2>:
    6926:	0145d313          	srli	t1,a1,0x14
    692a:	00c59893          	slli	a7,a1,0xc
    692e:	00c69713          	slli	a4,a3,0xc
    6932:	0146d813          	srli	a6,a3,0x14
    6936:	7ff37313          	andi	t1,t1,2047
    693a:	7ff00793          	li	a5,2047
    693e:	00c8d893          	srli	a7,a7,0xc
    6942:	81fd                	srli	a1,a1,0x1f
    6944:	8331                	srli	a4,a4,0xc
    6946:	7ff87813          	andi	a6,a6,2047
    694a:	82fd                	srli	a3,a3,0x1f
    694c:	02f30e63          	beq	t1,a5,6988 <__ledf2+0x62>
    6950:	7ff00e13          	li	t3,2047
    6954:	87c2                	mv	a5,a6
    6956:	01c81663          	bne	a6,t3,6962 <__ledf2+0x3c>
    695a:	00c76e33          	or	t3,a4,a2
    695e:	020e1863          	bnez	t3,698e <__ledf2+0x68>
    6962:	4e01                	li	t3,0
    6964:	00031663          	bnez	t1,6970 <__ledf2+0x4a>
    6968:	00a8ee33          	or	t3,a7,a0
    696c:	001e3e13          	seqz	t3,t3
    6970:	04081963          	bnez	a6,69c2 <__ledf2+0x9c>
    6974:	00c76eb3          	or	t4,a4,a2
    6978:	000e0e63          	beqz	t3,6994 <__ledf2+0x6e>
    697c:	000e8a63          	beqz	t4,6990 <__ledf2+0x6a>
    6980:	00169793          	slli	a5,a3,0x1
    6984:	17fd                	addi	a5,a5,-1
    6986:	a029                	j	6990 <__ledf2+0x6a>
    6988:	00a8e7b3          	or	a5,a7,a0
    698c:	d3f1                	beqz	a5,6950 <__ledf2+0x2a>
    698e:	4789                	li	a5,2
    6990:	853e                	mv	a0,a5
    6992:	8082                	ret
    6994:	020e9963          	bnez	t4,69c6 <__ledf2+0xa0>
    6998:	40b005b3          	neg	a1,a1
    699c:	0015e793          	ori	a5,a1,1
    69a0:	bfc5                	j	6990 <__ledf2+0x6a>
    69a2:	fd034fe3          	blt	t1,a6,6980 <__ledf2+0x5a>
    69a6:	ff1769e3          	bltu	a4,a7,6998 <__ledf2+0x72>
    69aa:	00a67463          	bgeu	a2,a0,69b2 <__ledf2+0x8c>
    69ae:	fee885e3          	beq	a7,a4,6998 <__ledf2+0x72>
    69b2:	00c56563          	bltu	a0,a2,69bc <__ledf2+0x96>
    69b6:	4781                	li	a5,0
    69b8:	fce8fce3          	bgeu	a7,a4,6990 <__ledf2+0x6a>
    69bc:	00159793          	slli	a5,a1,0x1
    69c0:	b7d1                	j	6984 <__ledf2+0x5e>
    69c2:	fa0e1fe3          	bnez	t3,6980 <__ledf2+0x5a>
    69c6:	fcb699e3          	bne	a3,a1,6998 <__ledf2+0x72>
    69ca:	fc685ce3          	bge	a6,t1,69a2 <__ledf2+0x7c>
    69ce:	40d006b3          	neg	a3,a3
    69d2:	0016e793          	ori	a5,a3,1
    69d6:	bf6d                	j	6990 <__ledf2+0x6a>

000069d8 <__muldf3>:
    69d8:	7179                	addi	sp,sp,-48
    69da:	cc52                	sw	s4,24(sp)
    69dc:	0145da13          	srli	s4,a1,0x14
    69e0:	d422                	sw	s0,40(sp)
    69e2:	d226                	sw	s1,36(sp)
    69e4:	ce4e                	sw	s3,28(sp)
    69e6:	ca56                	sw	s5,20(sp)
    69e8:	c65e                	sw	s7,12(sp)
    69ea:	00c59493          	slli	s1,a1,0xc
    69ee:	d606                	sw	ra,44(sp)
    69f0:	d04a                	sw	s2,32(sp)
    69f2:	c85a                	sw	s6,16(sp)
    69f4:	7ffa7a13          	andi	s4,s4,2047
    69f8:	842a                	mv	s0,a0
    69fa:	8bb2                	mv	s7,a2
    69fc:	89b6                	mv	s3,a3
    69fe:	80b1                	srli	s1,s1,0xc
    6a00:	01f5da93          	srli	s5,a1,0x1f
    6a04:	080a0c63          	beqz	s4,6a9c <__muldf3+0xc4>
    6a08:	7ff00793          	li	a5,2047
    6a0c:	0efa0363          	beq	s4,a5,6af2 <__muldf3+0x11a>
    6a10:	048e                	slli	s1,s1,0x3
    6a12:	01d55793          	srli	a5,a0,0x1d
    6a16:	8fc5                	or	a5,a5,s1
    6a18:	008004b7          	lui	s1,0x800
    6a1c:	8cdd                	or	s1,s1,a5
    6a1e:	00351913          	slli	s2,a0,0x3
    6a22:	c01a0a13          	addi	s4,s4,-1023
    6a26:	4b01                	li	s6,0
    6a28:	0149d713          	srli	a4,s3,0x14
    6a2c:	00c99413          	slli	s0,s3,0xc
    6a30:	7ff77713          	andi	a4,a4,2047
    6a34:	8031                	srli	s0,s0,0xc
    6a36:	01f9d993          	srli	s3,s3,0x1f
    6a3a:	cb71                	beqz	a4,6b0e <__muldf3+0x136>
    6a3c:	7ff00793          	li	a5,2047
    6a40:	12f70163          	beq	a4,a5,6b62 <__muldf3+0x18a>
    6a44:	040e                	slli	s0,s0,0x3
    6a46:	01dbd793          	srli	a5,s7,0x1d
    6a4a:	8fc1                	or	a5,a5,s0
    6a4c:	00800437          	lui	s0,0x800
    6a50:	8c5d                	or	s0,s0,a5
    6a52:	c0170713          	addi	a4,a4,-1023
    6a56:	003b9793          	slli	a5,s7,0x3
    6a5a:	4801                	li	a6,0
    6a5c:	9a3a                	add	s4,s4,a4
    6a5e:	002b1713          	slli	a4,s6,0x2
    6a62:	01076733          	or	a4,a4,a6
    6a66:	46ad                	li	a3,11
    6a68:	001a0513          	addi	a0,s4,1
    6a6c:	12e6ca63          	blt	a3,a4,6ba0 <__muldf3+0x1c8>
    6a70:	4609                	li	a2,2
    6a72:	013ac5b3          	xor	a1,s5,s3
    6a76:	4685                	li	a3,1
    6a78:	10e64263          	blt	a2,a4,6b7c <__muldf3+0x1a4>
    6a7c:	177d                	addi	a4,a4,-1
    6a7e:	12e6ec63          	bltu	a3,a4,6bb6 <__muldf3+0x1de>
    6a82:	8b42                	mv	s6,a6
    6a84:	4709                	li	a4,2
    6a86:	38eb0563          	beq	s6,a4,6e10 <__muldf3+0x438>
    6a8a:	470d                	li	a4,3
    6a8c:	10eb0e63          	beq	s6,a4,6ba8 <__muldf3+0x1d0>
    6a90:	4705                	li	a4,1
    6a92:	26eb1963          	bne	s6,a4,6d04 <__muldf3+0x32c>
    6a96:	4401                	li	s0,0
    6a98:	4601                	li	a2,0
    6a9a:	a6a9                	j	6de4 <__muldf3+0x40c>
    6a9c:	00a4e933          	or	s2,s1,a0
    6aa0:	06090063          	beqz	s2,6b00 <__muldf3+0x128>
    6aa4:	c88d                	beqz	s1,6ad6 <__muldf3+0xfe>
    6aa6:	8526                	mv	a0,s1
    6aa8:	4bf000ef          	jal	7766 <__clzsi2>
    6aac:	872a                	mv	a4,a0
    6aae:	ff550693          	addi	a3,a0,-11
    6ab2:	47f5                	li	a5,29
    6ab4:	ff870613          	addi	a2,a4,-8
    6ab8:	8f95                	sub	a5,a5,a3
    6aba:	00c494b3          	sll	s1,s1,a2
    6abe:	00f457b3          	srl	a5,s0,a5
    6ac2:	8fc5                	or	a5,a5,s1
    6ac4:	00c414b3          	sll	s1,s0,a2
    6ac8:	c0d00a13          	li	s4,-1011
    6acc:	8926                	mv	s2,s1
    6ace:	40ea0a33          	sub	s4,s4,a4
    6ad2:	84be                	mv	s1,a5
    6ad4:	bf89                	j	6a26 <__muldf3+0x4e>
    6ad6:	491000ef          	jal	7766 <__clzsi2>
    6ada:	01550693          	addi	a3,a0,21
    6ade:	47f1                	li	a5,28
    6ae0:	02050713          	addi	a4,a0,32
    6ae4:	fcd7d7e3          	bge	a5,a3,6ab2 <__muldf3+0xda>
    6ae8:	ff850793          	addi	a5,a0,-8
    6aec:	00f417b3          	sll	a5,s0,a5
    6af0:	bfe1                	j	6ac8 <__muldf3+0xf0>
    6af2:	00a4e933          	or	s2,s1,a0
    6af6:	00091963          	bnez	s2,6b08 <__muldf3+0x130>
    6afa:	4481                	li	s1,0
    6afc:	4b09                	li	s6,2
    6afe:	b72d                	j	6a28 <__muldf3+0x50>
    6b00:	4481                	li	s1,0
    6b02:	4a01                	li	s4,0
    6b04:	4b05                	li	s6,1
    6b06:	b70d                	j	6a28 <__muldf3+0x50>
    6b08:	892a                	mv	s2,a0
    6b0a:	4b0d                	li	s6,3
    6b0c:	bf31                	j	6a28 <__muldf3+0x50>
    6b0e:	017467b3          	or	a5,s0,s7
    6b12:	cfb1                	beqz	a5,6b6e <__muldf3+0x196>
    6b14:	c805                	beqz	s0,6b44 <__muldf3+0x16c>
    6b16:	8522                	mv	a0,s0
    6b18:	44f000ef          	jal	7766 <__clzsi2>
    6b1c:	87aa                	mv	a5,a0
    6b1e:	ff550713          	addi	a4,a0,-11
    6b22:	46f5                	li	a3,29
    6b24:	ff878613          	addi	a2,a5,-8
    6b28:	8e99                	sub	a3,a3,a4
    6b2a:	00c41433          	sll	s0,s0,a2
    6b2e:	00dbd6b3          	srl	a3,s7,a3
    6b32:	8ec1                	or	a3,a3,s0
    6b34:	00cb9433          	sll	s0,s7,a2
    6b38:	c0d00713          	li	a4,-1011
    6b3c:	8f1d                	sub	a4,a4,a5
    6b3e:	87a2                	mv	a5,s0
    6b40:	8436                	mv	s0,a3
    6b42:	bf21                	j	6a5a <__muldf3+0x82>
    6b44:	855e                	mv	a0,s7
    6b46:	421000ef          	jal	7766 <__clzsi2>
    6b4a:	01550713          	addi	a4,a0,21
    6b4e:	46f1                	li	a3,28
    6b50:	02050793          	addi	a5,a0,32
    6b54:	fce6d7e3          	bge	a3,a4,6b22 <__muldf3+0x14a>
    6b58:	ff850693          	addi	a3,a0,-8
    6b5c:	00db96b3          	sll	a3,s7,a3
    6b60:	bfe1                	j	6b38 <__muldf3+0x160>
    6b62:	017467b3          	or	a5,s0,s7
    6b66:	eb81                	bnez	a5,6b76 <__muldf3+0x19e>
    6b68:	4401                	li	s0,0
    6b6a:	4809                	li	a6,2
    6b6c:	bdc5                	j	6a5c <__muldf3+0x84>
    6b6e:	4401                	li	s0,0
    6b70:	4701                	li	a4,0
    6b72:	4805                	li	a6,1
    6b74:	b5e5                	j	6a5c <__muldf3+0x84>
    6b76:	87de                	mv	a5,s7
    6b78:	480d                	li	a6,3
    6b7a:	b5cd                	j	6a5c <__muldf3+0x84>
    6b7c:	00e69733          	sll	a4,a3,a4
    6b80:	53077693          	andi	a3,a4,1328
    6b84:	1e069b63          	bnez	a3,6d7a <__muldf3+0x3a2>
    6b88:	6605                	lui	a2,0x1
    6b8a:	88860613          	addi	a2,a2,-1912 # 888 <_close_r+0x18>
    6b8e:	8e79                	and	a2,a2,a4
    6b90:	1e061363          	bnez	a2,6d76 <__muldf3+0x39e>
    6b94:	24077713          	andi	a4,a4,576
    6b98:	cf19                	beqz	a4,6bb6 <__muldf3+0x1de>
    6b9a:	00080437          	lui	s0,0x80
    6b9e:	a801                	j	6bae <__muldf3+0x1d6>
    6ba0:	47bd                	li	a5,15
    6ba2:	85d6                	mv	a1,s5
    6ba4:	1cf71b63          	bne	a4,a5,6d7a <__muldf3+0x3a2>
    6ba8:	00080437          	lui	s0,0x80
    6bac:	4601                	li	a2,0
    6bae:	7ff00713          	li	a4,2047
    6bb2:	4581                	li	a1,0
    6bb4:	aa69                	j	6d4e <__muldf3+0x376>
    6bb6:	01095893          	srli	a7,s2,0x10
    6bba:	01079e13          	slli	t3,a5,0x10
    6bbe:	0942                	slli	s2,s2,0x10
    6bc0:	0107d613          	srli	a2,a5,0x10
    6bc4:	01095913          	srli	s2,s2,0x10
    6bc8:	010e5e13          	srli	t3,t3,0x10
    6bcc:	03c907b3          	mul	a5,s2,t3
    6bd0:	03c88333          	mul	t1,a7,t3
    6bd4:	0107d813          	srli	a6,a5,0x10
    6bd8:	03260733          	mul	a4,a2,s2
    6bdc:	02c886b3          	mul	a3,a7,a2
    6be0:	971a                	add	a4,a4,t1
    6be2:	983a                	add	a6,a6,a4
    6be4:	00687463          	bgeu	a6,t1,6bec <__muldf3+0x214>
    6be8:	6741                	lui	a4,0x10
    6bea:	96ba                	add	a3,a3,a4
    6bec:	01045713          	srli	a4,s0,0x10
    6bf0:	07c2                	slli	a5,a5,0x10
    6bf2:	0442                	slli	s0,s0,0x10
    6bf4:	83c1                	srli	a5,a5,0x10
    6bf6:	8041                	srli	s0,s0,0x10
    6bf8:	01085f93          	srli	t6,a6,0x10
    6bfc:	0842                	slli	a6,a6,0x10
    6bfe:	02890f33          	mul	t5,s2,s0
    6c02:	983e                	add	a6,a6,a5
    6c04:	02e90933          	mul	s2,s2,a4
    6c08:	010f5313          	srli	t1,t5,0x10
    6c0c:	028887b3          	mul	a5,a7,s0
    6c10:	02e888b3          	mul	a7,a7,a4
    6c14:	993e                	add	s2,s2,a5
    6c16:	934a                	add	t1,t1,s2
    6c18:	00f37463          	bgeu	t1,a5,6c20 <__muldf3+0x248>
    6c1c:	67c1                	lui	a5,0x10
    6c1e:	98be                	add	a7,a7,a5
    6c20:	0f42                	slli	t5,t5,0x10
    6c22:	010f5f13          	srli	t5,t5,0x10
    6c26:	01031793          	slli	a5,t1,0x10
    6c2a:	97fa                	add	a5,a5,t5
    6c2c:	0104df13          	srli	t5,s1,0x10
    6c30:	04c2                	slli	s1,s1,0x10
    6c32:	80c1                	srli	s1,s1,0x10
    6c34:	029e02b3          	mul	t0,t3,s1
    6c38:	01035e93          	srli	t4,t1,0x10
    6c3c:	9ec6                	add	t4,t4,a7
    6c3e:	9fbe                	add	t6,t6,a5
    6c40:	03ee0e33          	mul	t3,t3,t5
    6c44:	0102d893          	srli	a7,t0,0x10
    6c48:	03e603b3          	mul	t2,a2,t5
    6c4c:	02960633          	mul	a2,a2,s1
    6c50:	9672                	add	a2,a2,t3
    6c52:	98b2                	add	a7,a7,a2
    6c54:	01c8f463          	bgeu	a7,t3,6c5c <__muldf3+0x284>
    6c58:	6641                	lui	a2,0x10
    6c5a:	93b2                	add	t2,t2,a2
    6c5c:	02940633          	mul	a2,s0,s1
    6c60:	02c2                	slli	t0,t0,0x10
    6c62:	0108d313          	srli	t1,a7,0x10
    6c66:	0102d293          	srli	t0,t0,0x10
    6c6a:	08c2                	slli	a7,a7,0x10
    6c6c:	931e                	add	t1,t1,t2
    6c6e:	9896                	add	a7,a7,t0
    6c70:	03e40433          	mul	s0,s0,t5
    6c74:	01065e13          	srli	t3,a2,0x10
    6c78:	03e70f33          	mul	t5,a4,t5
    6c7c:	02970733          	mul	a4,a4,s1
    6c80:	9722                	add	a4,a4,s0
    6c82:	9e3a                	add	t3,t3,a4
    6c84:	008e7463          	bgeu	t3,s0,6c8c <__muldf3+0x2b4>
    6c88:	6741                	lui	a4,0x10
    6c8a:	9f3a                	add	t5,t5,a4
    6c8c:	0642                	slli	a2,a2,0x10
    6c8e:	010e1713          	slli	a4,t3,0x10
    6c92:	8241                	srli	a2,a2,0x10
    6c94:	96fe                	add	a3,a3,t6
    6c96:	9732                	add	a4,a4,a2
    6c98:	9eba                	add	t4,t4,a4
    6c9a:	00f6b7b3          	sltu	a5,a3,a5
    6c9e:	97f6                	add	a5,a5,t4
    6ca0:	98b6                	add	a7,a7,a3
    6ca2:	933e                	add	t1,t1,a5
    6ca4:	00d8b6b3          	sltu	a3,a7,a3
    6ca8:	00eeb633          	sltu	a2,t4,a4
    6cac:	969a                	add	a3,a3,t1
    6cae:	01d7beb3          	sltu	t4,a5,t4
    6cb2:	00f33733          	sltu	a4,t1,a5
    6cb6:	01d66633          	or	a2,a2,t4
    6cba:	0066b333          	sltu	t1,a3,t1
    6cbe:	010e5e13          	srli	t3,t3,0x10
    6cc2:	00989793          	slli	a5,a7,0x9
    6cc6:	9672                	add	a2,a2,t3
    6cc8:	00676733          	or	a4,a4,t1
    6ccc:	9732                	add	a4,a4,a2
    6cce:	0107e7b3          	or	a5,a5,a6
    6cd2:	977a                	add	a4,a4,t5
    6cd4:	00f037b3          	snez	a5,a5
    6cd8:	0178d893          	srli	a7,a7,0x17
    6cdc:	0726                	slli	a4,a4,0x9
    6cde:	0176d413          	srli	s0,a3,0x17
    6ce2:	0117e7b3          	or	a5,a5,a7
    6ce6:	06a6                	slli	a3,a3,0x9
    6ce8:	8fd5                	or	a5,a5,a3
    6cea:	00771693          	slli	a3,a4,0x7
    6cee:	8c59                	or	s0,s0,a4
    6cf0:	0806d863          	bgez	a3,6d80 <__muldf3+0x3a8>
    6cf4:	0017d713          	srli	a4,a5,0x1
    6cf8:	8b85                	andi	a5,a5,1
    6cfa:	8f5d                	or	a4,a4,a5
    6cfc:	01f41793          	slli	a5,s0,0x1f
    6d00:	8fd9                	or	a5,a5,a4
    6d02:	8005                	srli	s0,s0,0x1
    6d04:	3ff50713          	addi	a4,a0,1023
    6d08:	06e05e63          	blez	a4,6d84 <__muldf3+0x3ac>
    6d0c:	0077f693          	andi	a3,a5,7
    6d10:	ce81                	beqz	a3,6d28 <__muldf3+0x350>
    6d12:	00f7f693          	andi	a3,a5,15
    6d16:	4611                	li	a2,4
    6d18:	00c68863          	beq	a3,a2,6d28 <__muldf3+0x350>
    6d1c:	00c786b3          	add	a3,a5,a2
    6d20:	00f6b633          	sltu	a2,a3,a5
    6d24:	9432                	add	s0,s0,a2
    6d26:	87b6                	mv	a5,a3
    6d28:	00741693          	slli	a3,s0,0x7
    6d2c:	0006d863          	bgez	a3,6d3c <__muldf3+0x364>
    6d30:	ff000737          	lui	a4,0xff000
    6d34:	177d                	addi	a4,a4,-1 # feffffff <_sp+0xfeff408f>
    6d36:	8c79                	and	s0,s0,a4
    6d38:	40050713          	addi	a4,a0,1024
    6d3c:	7fe00693          	li	a3,2046
    6d40:	0ce6c863          	blt	a3,a4,6e10 <__muldf3+0x438>
    6d44:	01d41613          	slli	a2,s0,0x1d
    6d48:	838d                	srli	a5,a5,0x3
    6d4a:	8e5d                	or	a2,a2,a5
    6d4c:	800d                	srli	s0,s0,0x3
    6d4e:	0432                	slli	s0,s0,0xc
    6d50:	8031                	srli	s0,s0,0xc
    6d52:	0752                	slli	a4,a4,0x14
    6d54:	50b2                	lw	ra,44(sp)
    6d56:	8f41                	or	a4,a4,s0
    6d58:	5422                	lw	s0,40(sp)
    6d5a:	05fe                	slli	a1,a1,0x1f
    6d5c:	00b767b3          	or	a5,a4,a1
    6d60:	5492                	lw	s1,36(sp)
    6d62:	5902                	lw	s2,32(sp)
    6d64:	49f2                	lw	s3,28(sp)
    6d66:	4a62                	lw	s4,24(sp)
    6d68:	4ad2                	lw	s5,20(sp)
    6d6a:	4b42                	lw	s6,16(sp)
    6d6c:	4bb2                	lw	s7,12(sp)
    6d6e:	8532                	mv	a0,a2
    6d70:	85be                	mv	a1,a5
    6d72:	6145                	addi	sp,sp,48
    6d74:	8082                	ret
    6d76:	85ce                	mv	a1,s3
    6d78:	b329                	j	6a82 <__muldf3+0xaa>
    6d7a:	8426                	mv	s0,s1
    6d7c:	87ca                	mv	a5,s2
    6d7e:	b319                	j	6a84 <__muldf3+0xac>
    6d80:	8552                	mv	a0,s4
    6d82:	b749                	j	6d04 <__muldf3+0x32c>
    6d84:	c335                	beqz	a4,6de8 <__muldf3+0x410>
    6d86:	fc900693          	li	a3,-55
    6d8a:	d0d746e3          	blt	a4,a3,6a96 <__muldf3+0xbe>
    6d8e:	5689                	li	a3,-30
    6d90:	04d74e63          	blt	a4,a3,6dec <__muldf3+0x414>
    6d94:	4685                	li	a3,1
    6d96:	40e68733          	sub	a4,a3,a4
    6d9a:	41e50513          	addi	a0,a0,1054
    6d9e:	00e7d6b3          	srl	a3,a5,a4
    6da2:	00a797b3          	sll	a5,a5,a0
    6da6:	00f037b3          	snez	a5,a5
    6daa:	00a41533          	sll	a0,s0,a0
    6dae:	8fc9                	or	a5,a5,a0
    6db0:	8fd5                	or	a5,a5,a3
    6db2:	00e45433          	srl	s0,s0,a4
    6db6:	0077f713          	andi	a4,a5,7
    6dba:	cf01                	beqz	a4,6dd2 <__muldf3+0x3fa>
    6dbc:	00f7f713          	andi	a4,a5,15
    6dc0:	4691                	li	a3,4
    6dc2:	00d70863          	beq	a4,a3,6dd2 <__muldf3+0x3fa>
    6dc6:	00d78733          	add	a4,a5,a3
    6dca:	00f736b3          	sltu	a3,a4,a5
    6dce:	9436                	add	s0,s0,a3
    6dd0:	87ba                	mv	a5,a4
    6dd2:	00841713          	slli	a4,s0,0x8
    6dd6:	04074263          	bltz	a4,6e1a <__muldf3+0x442>
    6dda:	01d41613          	slli	a2,s0,0x1d
    6dde:	838d                	srli	a5,a5,0x3
    6de0:	8e5d                	or	a2,a2,a5
    6de2:	800d                	srli	s0,s0,0x3
    6de4:	4701                	li	a4,0
    6de6:	b7a5                	j	6d4e <__muldf3+0x376>
    6de8:	4705                	li	a4,1
    6dea:	bf45                	j	6d9a <__muldf3+0x3c2>
    6dec:	5805                	li	a6,-31
    6dee:	40e806b3          	sub	a3,a6,a4
    6df2:	00d456b3          	srl	a3,s0,a3
    6df6:	4601                	li	a2,0
    6df8:	01070663          	beq	a4,a6,6e04 <__muldf3+0x42c>
    6dfc:	43e50513          	addi	a0,a0,1086
    6e00:	00a41633          	sll	a2,s0,a0
    6e04:	8fd1                	or	a5,a5,a2
    6e06:	00f037b3          	snez	a5,a5
    6e0a:	8fd5                	or	a5,a5,a3
    6e0c:	4401                	li	s0,0
    6e0e:	b765                	j	6db6 <__muldf3+0x3de>
    6e10:	4401                	li	s0,0
    6e12:	4601                	li	a2,0
    6e14:	7ff00713          	li	a4,2047
    6e18:	bf1d                	j	6d4e <__muldf3+0x376>
    6e1a:	4401                	li	s0,0
    6e1c:	4601                	li	a2,0
    6e1e:	4705                	li	a4,1
    6e20:	b73d                	j	6d4e <__muldf3+0x376>

00006e22 <__subdf3>:
    6e22:	1101                	addi	sp,sp,-32
    6e24:	0145d713          	srli	a4,a1,0x14
    6e28:	00c59793          	slli	a5,a1,0xc
    6e2c:	cc22                	sw	s0,24(sp)
    6e2e:	83a5                	srli	a5,a5,0x9
    6e30:	7ff77413          	andi	s0,a4,2047
    6e34:	01d55713          	srli	a4,a0,0x1d
    6e38:	8fd9                	or	a5,a5,a4
    6e3a:	00c69713          	slli	a4,a3,0xc
    6e3e:	0146d893          	srli	a7,a3,0x14
    6e42:	ca26                	sw	s1,20(sp)
    6e44:	8325                	srli	a4,a4,0x9
    6e46:	01f5d493          	srli	s1,a1,0x1f
    6e4a:	01d65593          	srli	a1,a2,0x1d
    6e4e:	8f4d                	or	a4,a4,a1
    6e50:	ce06                	sw	ra,28(sp)
    6e52:	c84a                	sw	s2,16(sp)
    6e54:	c64e                	sw	s3,12(sp)
    6e56:	7ff8f893          	andi	a7,a7,2047
    6e5a:	7ff00593          	li	a1,2047
    6e5e:	050e                	slli	a0,a0,0x3
    6e60:	82fd                	srli	a3,a3,0x1f
    6e62:	060e                	slli	a2,a2,0x3
    6e64:	00b89563          	bne	a7,a1,6e6e <__subdf3+0x4c>
    6e68:	00c765b3          	or	a1,a4,a2
    6e6c:	e199                	bnez	a1,6e72 <__subdf3+0x50>
    6e6e:	0016c693          	xori	a3,a3,1
    6e72:	41140833          	sub	a6,s0,a7
    6e76:	7ff00313          	li	t1,2047
    6e7a:	24969863          	bne	a3,s1,70ca <__subdf3+0x2a8>
    6e7e:	11005963          	blez	a6,6f90 <__subdf3+0x16e>
    6e82:	06089563          	bnez	a7,6eec <__subdf3+0xca>
    6e86:	00c766b3          	or	a3,a4,a2
    6e8a:	ce91                	beqz	a3,6ea6 <__subdf3+0x84>
    6e8c:	fff40813          	addi	a6,s0,-1 # 7ffff <_sp+0x7408f>
    6e90:	00081963          	bnez	a6,6ea2 <__subdf3+0x80>
    6e94:	962a                	add	a2,a2,a0
    6e96:	97ba                	add	a5,a5,a4
    6e98:	00a63533          	sltu	a0,a2,a0
    6e9c:	97aa                	add	a5,a5,a0
    6e9e:	4405                	li	s0,1
    6ea0:	a851                	j	6f34 <__subdf3+0x112>
    6ea2:	04641a63          	bne	s0,t1,6ef6 <__subdf3+0xd4>
    6ea6:	01d79693          	slli	a3,a5,0x1d
    6eaa:	810d                	srli	a0,a0,0x3
    6eac:	7ff00713          	li	a4,2047
    6eb0:	8ec9                	or	a3,a3,a0
    6eb2:	838d                	srli	a5,a5,0x3
    6eb4:	00e41963          	bne	s0,a4,6ec6 <__subdf3+0xa4>
    6eb8:	8edd                	or	a3,a3,a5
    6eba:	4781                	li	a5,0
    6ebc:	c689                	beqz	a3,6ec6 <__subdf3+0xa4>
    6ebe:	000807b7          	lui	a5,0x80
    6ec2:	4681                	li	a3,0
    6ec4:	4481                	li	s1,0
    6ec6:	7ff47713          	andi	a4,s0,2047
    6eca:	07b2                	slli	a5,a5,0xc
    6ecc:	40f2                	lw	ra,28(sp)
    6ece:	4462                	lw	s0,24(sp)
    6ed0:	83b1                	srli	a5,a5,0xc
    6ed2:	0752                	slli	a4,a4,0x14
    6ed4:	01f49593          	slli	a1,s1,0x1f
    6ed8:	8f5d                	or	a4,a4,a5
    6eda:	00b767b3          	or	a5,a4,a1
    6ede:	44d2                	lw	s1,20(sp)
    6ee0:	4942                	lw	s2,16(sp)
    6ee2:	49b2                	lw	s3,12(sp)
    6ee4:	8536                	mv	a0,a3
    6ee6:	85be                	mv	a1,a5
    6ee8:	6105                	addi	sp,sp,32
    6eea:	8082                	ret
    6eec:	20640563          	beq	s0,t1,70f6 <__subdf3+0x2d4>
    6ef0:	008006b7          	lui	a3,0x800
    6ef4:	8f55                	or	a4,a4,a3
    6ef6:	03800693          	li	a3,56
    6efa:	0906c663          	blt	a3,a6,6f86 <__subdf3+0x164>
    6efe:	46fd                	li	a3,31
    6f00:	02000893          	li	a7,32
    6f04:	0506ce63          	blt	a3,a6,6f60 <__subdf3+0x13e>
    6f08:	410888b3          	sub	a7,a7,a6
    6f0c:	011716b3          	sll	a3,a4,a7
    6f10:	010655b3          	srl	a1,a2,a6
    6f14:	011618b3          	sll	a7,a2,a7
    6f18:	8ecd                	or	a3,a3,a1
    6f1a:	011038b3          	snez	a7,a7
    6f1e:	0116e6b3          	or	a3,a3,a7
    6f22:	01075833          	srl	a6,a4,a6
    6f26:	00a68633          	add	a2,a3,a0
    6f2a:	983e                	add	a6,a6,a5
    6f2c:	00d636b3          	sltu	a3,a2,a3
    6f30:	00d807b3          	add	a5,a6,a3
    6f34:	00879713          	slli	a4,a5,0x8
    6f38:	16075663          	bgez	a4,70a4 <__subdf3+0x282>
    6f3c:	0405                	addi	s0,s0,1
    6f3e:	7ff00713          	li	a4,2047
    6f42:	48e40163          	beq	s0,a4,73c4 <__subdf3+0x5a2>
    6f46:	ff800737          	lui	a4,0xff800
    6f4a:	177d                	addi	a4,a4,-1 # ff7fffff <_sp+0xff7f408f>
    6f4c:	8ff9                	and	a5,a5,a4
    6f4e:	00165713          	srli	a4,a2,0x1
    6f52:	8a05                	andi	a2,a2,1
    6f54:	8f51                	or	a4,a4,a2
    6f56:	01f79613          	slli	a2,a5,0x1f
    6f5a:	8e59                	or	a2,a2,a4
    6f5c:	8385                	srli	a5,a5,0x1
    6f5e:	a299                	j	70a4 <__subdf3+0x282>
    6f60:	fe080693          	addi	a3,a6,-32
    6f64:	00d756b3          	srl	a3,a4,a3
    6f68:	4581                	li	a1,0
    6f6a:	01180863          	beq	a6,a7,6f7a <__subdf3+0x158>
    6f6e:	04000593          	li	a1,64
    6f72:	410585b3          	sub	a1,a1,a6
    6f76:	00b715b3          	sll	a1,a4,a1
    6f7a:	8dd1                	or	a1,a1,a2
    6f7c:	00b035b3          	snez	a1,a1
    6f80:	8ecd                	or	a3,a3,a1
    6f82:	4801                	li	a6,0
    6f84:	b74d                	j	6f26 <__subdf3+0x104>
    6f86:	00c766b3          	or	a3,a4,a2
    6f8a:	00d036b3          	snez	a3,a3
    6f8e:	bfd5                	j	6f82 <__subdf3+0x160>
    6f90:	0a080463          	beqz	a6,7038 <__subdf3+0x216>
    6f94:	408886b3          	sub	a3,a7,s0
    6f98:	ec39                	bnez	s0,6ff6 <__subdf3+0x1d4>
    6f9a:	00a7e5b3          	or	a1,a5,a0
    6f9e:	e589                	bnez	a1,6fa8 <__subdf3+0x186>
    6fa0:	87ba                	mv	a5,a4
    6fa2:	8532                	mv	a0,a2
    6fa4:	8436                	mv	s0,a3
    6fa6:	b701                	j	6ea6 <__subdf3+0x84>
    6fa8:	fff68593          	addi	a1,a3,-1 # 7fffff <_sp+0x7f408f>
    6fac:	ee0584e3          	beqz	a1,6e94 <__subdf3+0x72>
    6fb0:	fe6688e3          	beq	a3,t1,6fa0 <__subdf3+0x17e>
    6fb4:	03800693          	li	a3,56
    6fb8:	06b6cb63          	blt	a3,a1,702e <__subdf3+0x20c>
    6fbc:	46fd                	li	a3,31
    6fbe:	02000313          	li	t1,32
    6fc2:	04b6c163          	blt	a3,a1,7004 <__subdf3+0x1e2>
    6fc6:	40b30333          	sub	t1,t1,a1
    6fca:	006796b3          	sll	a3,a5,t1
    6fce:	00b55833          	srl	a6,a0,a1
    6fd2:	00651333          	sll	t1,a0,t1
    6fd6:	0106e6b3          	or	a3,a3,a6
    6fda:	00603333          	snez	t1,t1
    6fde:	0066e6b3          	or	a3,a3,t1
    6fe2:	00b7d5b3          	srl	a1,a5,a1
    6fe6:	9636                	add	a2,a2,a3
    6fe8:	95ba                	add	a1,a1,a4
    6fea:	00d636b3          	sltu	a3,a2,a3
    6fee:	00d587b3          	add	a5,a1,a3
    6ff2:	8446                	mv	s0,a7
    6ff4:	b781                	j	6f34 <__subdf3+0x112>
    6ff6:	3c688d63          	beq	a7,t1,73d0 <__subdf3+0x5ae>
    6ffa:	008005b7          	lui	a1,0x800
    6ffe:	8fcd                	or	a5,a5,a1
    7000:	85b6                	mv	a1,a3
    7002:	bf4d                	j	6fb4 <__subdf3+0x192>
    7004:	fe058693          	addi	a3,a1,-32 # 7fffe0 <_sp+0x7f4070>
    7008:	00d7d6b3          	srl	a3,a5,a3
    700c:	4801                	li	a6,0
    700e:	00658863          	beq	a1,t1,701e <__subdf3+0x1fc>
    7012:	04000813          	li	a6,64
    7016:	40b80833          	sub	a6,a6,a1
    701a:	01079833          	sll	a6,a5,a6
    701e:	00a86833          	or	a6,a6,a0
    7022:	01003833          	snez	a6,a6
    7026:	0106e6b3          	or	a3,a3,a6
    702a:	4581                	li	a1,0
    702c:	bf6d                	j	6fe6 <__subdf3+0x1c4>
    702e:	00a7e6b3          	or	a3,a5,a0
    7032:	00d036b3          	snez	a3,a3
    7036:	bfd5                	j	702a <__subdf3+0x208>
    7038:	00140693          	addi	a3,s0,1
    703c:	7fe6f593          	andi	a1,a3,2046
    7040:	e5a9                	bnez	a1,708a <__subdf3+0x268>
    7042:	00a7e6b3          	or	a3,a5,a0
    7046:	e41d                	bnez	s0,7074 <__subdf3+0x252>
    7048:	34068e63          	beqz	a3,73a4 <__subdf3+0x582>
    704c:	00c766b3          	or	a3,a4,a2
    7050:	34068c63          	beqz	a3,73a8 <__subdf3+0x586>
    7054:	962a                	add	a2,a2,a0
    7056:	97ba                	add	a5,a5,a4
    7058:	00a63533          	sltu	a0,a2,a0
    705c:	97aa                	add	a5,a5,a0
    705e:	00879713          	slli	a4,a5,0x8
    7062:	22075c63          	bgez	a4,729a <__subdf3+0x478>
    7066:	ff800737          	lui	a4,0xff800
    706a:	177d                	addi	a4,a4,-1 # ff7fffff <_sp+0xff7f408f>
    706c:	8ff9                	and	a5,a5,a4
    706e:	8532                	mv	a0,a2
    7070:	4405                	li	s0,1
    7072:	bd15                	j	6ea6 <__subdf3+0x84>
    7074:	34068e63          	beqz	a3,73d0 <__subdf3+0x5ae>
    7078:	8f51                	or	a4,a4,a2
    707a:	841a                	mv	s0,t1
    707c:	e20705e3          	beqz	a4,6ea6 <__subdf3+0x84>
    7080:	4481                	li	s1,0
    7082:	004007b7          	lui	a5,0x400
    7086:	4501                	li	a0,0
    7088:	bd39                	j	6ea6 <__subdf3+0x84>
    708a:	32668c63          	beq	a3,t1,73c2 <__subdf3+0x5a0>
    708e:	962a                	add	a2,a2,a0
    7090:	97ba                	add	a5,a5,a4
    7092:	00a63533          	sltu	a0,a2,a0
    7096:	97aa                	add	a5,a5,a0
    7098:	01f79713          	slli	a4,a5,0x1f
    709c:	8205                	srli	a2,a2,0x1
    709e:	8e59                	or	a2,a2,a4
    70a0:	8385                	srli	a5,a5,0x1
    70a2:	8436                	mv	s0,a3
    70a4:	00767713          	andi	a4,a2,7
    70a8:	30071263          	bnez	a4,73ac <__subdf3+0x58a>
    70ac:	8532                	mv	a0,a2
    70ae:	00879713          	slli	a4,a5,0x8
    70b2:	de075ae3          	bgez	a4,6ea6 <__subdf3+0x84>
    70b6:	0405                	addi	s0,s0,1
    70b8:	7ff00713          	li	a4,2047
    70bc:	30e40463          	beq	s0,a4,73c4 <__subdf3+0x5a2>
    70c0:	ff800737          	lui	a4,0xff800
    70c4:	177d                	addi	a4,a4,-1 # ff7fffff <_sp+0xff7f408f>
    70c6:	8ff9                	and	a5,a5,a4
    70c8:	bbf9                	j	6ea6 <__subdf3+0x84>
    70ca:	0d005063          	blez	a6,718a <__subdf3+0x368>
    70ce:	02089763          	bnez	a7,70fc <__subdf3+0x2da>
    70d2:	00c766b3          	or	a3,a4,a2
    70d6:	dc0688e3          	beqz	a3,6ea6 <__subdf3+0x84>
    70da:	fff40813          	addi	a6,s0,-1
    70de:	00081a63          	bnez	a6,70f2 <__subdf3+0x2d0>
    70e2:	40c50633          	sub	a2,a0,a2
    70e6:	8f99                	sub	a5,a5,a4
    70e8:	00c53533          	sltu	a0,a0,a2
    70ec:	8f89                	sub	a5,a5,a0
    70ee:	4405                	li	s0,1
    70f0:	a899                	j	7146 <__subdf3+0x324>
    70f2:	00641a63          	bne	s0,t1,7106 <__subdf3+0x2e4>
    70f6:	7ff00413          	li	s0,2047
    70fa:	b375                	j	6ea6 <__subdf3+0x84>
    70fc:	da6405e3          	beq	s0,t1,6ea6 <__subdf3+0x84>
    7100:	008006b7          	lui	a3,0x800
    7104:	8f55                	or	a4,a4,a3
    7106:	03800693          	li	a3,56
    710a:	0706cb63          	blt	a3,a6,7180 <__subdf3+0x35e>
    710e:	46fd                	li	a3,31
    7110:	02000893          	li	a7,32
    7114:	0506c363          	blt	a3,a6,715a <__subdf3+0x338>
    7118:	410888b3          	sub	a7,a7,a6
    711c:	011716b3          	sll	a3,a4,a7
    7120:	010655b3          	srl	a1,a2,a6
    7124:	011618b3          	sll	a7,a2,a7
    7128:	8ecd                	or	a3,a3,a1
    712a:	011038b3          	snez	a7,a7
    712e:	0116e6b3          	or	a3,a3,a7
    7132:	01075833          	srl	a6,a4,a6
    7136:	40d50633          	sub	a2,a0,a3
    713a:	41078833          	sub	a6,a5,a6
    713e:	00c53533          	sltu	a0,a0,a2
    7142:	40a807b3          	sub	a5,a6,a0
    7146:	00879713          	slli	a4,a5,0x8
    714a:	f4075de3          	bgez	a4,70a4 <__subdf3+0x282>
    714e:	00979913          	slli	s2,a5,0x9
    7152:	00995913          	srli	s2,s2,0x9
    7156:	89b2                	mv	s3,a2
    7158:	a245                	j	72f8 <__subdf3+0x4d6>
    715a:	fe080693          	addi	a3,a6,-32
    715e:	00d756b3          	srl	a3,a4,a3
    7162:	4581                	li	a1,0
    7164:	01180863          	beq	a6,a7,7174 <__subdf3+0x352>
    7168:	04000593          	li	a1,64
    716c:	410585b3          	sub	a1,a1,a6
    7170:	00b715b3          	sll	a1,a4,a1
    7174:	8dd1                	or	a1,a1,a2
    7176:	00b035b3          	snez	a1,a1
    717a:	8ecd                	or	a3,a3,a1
    717c:	4801                	li	a6,0
    717e:	bf65                	j	7136 <__subdf3+0x314>
    7180:	00c766b3          	or	a3,a4,a2
    7184:	00d036b3          	snez	a3,a3
    7188:	bfd5                	j	717c <__subdf3+0x35a>
    718a:	0c080163          	beqz	a6,724c <__subdf3+0x42a>
    718e:	40888833          	sub	a6,a7,s0
    7192:	ec2d                	bnez	s0,720c <__subdf3+0x3ea>
    7194:	00a7e5b3          	or	a1,a5,a0
    7198:	e591                	bnez	a1,71a4 <__subdf3+0x382>
    719a:	84b6                	mv	s1,a3
    719c:	87ba                	mv	a5,a4
    719e:	8532                	mv	a0,a2
    71a0:	8442                	mv	s0,a6
    71a2:	b311                	j	6ea6 <__subdf3+0x84>
    71a4:	fff80593          	addi	a1,a6,-1
    71a8:	e999                	bnez	a1,71be <__subdf3+0x39c>
    71aa:	40a60533          	sub	a0,a2,a0
    71ae:	00a635b3          	sltu	a1,a2,a0
    71b2:	40f707b3          	sub	a5,a4,a5
    71b6:	862a                	mv	a2,a0
    71b8:	8f8d                	sub	a5,a5,a1
    71ba:	84b6                	mv	s1,a3
    71bc:	bf0d                	j	70ee <__subdf3+0x2cc>
    71be:	fc680ee3          	beq	a6,t1,719a <__subdf3+0x378>
    71c2:	03800813          	li	a6,56
    71c6:	06b84f63          	blt	a6,a1,7244 <__subdf3+0x422>
    71ca:	487d                	li	a6,31
    71cc:	02000e13          	li	t3,32
    71d0:	04b84563          	blt	a6,a1,721a <__subdf3+0x3f8>
    71d4:	40be0e33          	sub	t3,t3,a1
    71d8:	00b55333          	srl	t1,a0,a1
    71dc:	01c79833          	sll	a6,a5,t3
    71e0:	01c51e33          	sll	t3,a0,t3
    71e4:	00686833          	or	a6,a6,t1
    71e8:	01c03e33          	snez	t3,t3
    71ec:	01c86533          	or	a0,a6,t3
    71f0:	00b7d5b3          	srl	a1,a5,a1
    71f4:	40a60533          	sub	a0,a2,a0
    71f8:	00a637b3          	sltu	a5,a2,a0
    71fc:	40b705b3          	sub	a1,a4,a1
    7200:	862a                	mv	a2,a0
    7202:	40f587b3          	sub	a5,a1,a5
    7206:	8446                	mv	s0,a7
    7208:	84b6                	mv	s1,a3
    720a:	bf35                	j	7146 <__subdf3+0x324>
    720c:	1c688163          	beq	a7,t1,73ce <__subdf3+0x5ac>
    7210:	008005b7          	lui	a1,0x800
    7214:	8fcd                	or	a5,a5,a1
    7216:	85c2                	mv	a1,a6
    7218:	b76d                	j	71c2 <__subdf3+0x3a0>
    721a:	fe058813          	addi	a6,a1,-32 # 7fffe0 <_sp+0x7f4070>
    721e:	0107d833          	srl	a6,a5,a6
    7222:	4301                	li	t1,0
    7224:	01c58863          	beq	a1,t3,7234 <__subdf3+0x412>
    7228:	04000313          	li	t1,64
    722c:	40b30333          	sub	t1,t1,a1
    7230:	00679333          	sll	t1,a5,t1
    7234:	00a36333          	or	t1,t1,a0
    7238:	00603333          	snez	t1,t1
    723c:	00686533          	or	a0,a6,t1
    7240:	4581                	li	a1,0
    7242:	bf4d                	j	71f4 <__subdf3+0x3d2>
    7244:	8d5d                	or	a0,a0,a5
    7246:	00a03533          	snez	a0,a0
    724a:	bfdd                	j	7240 <__subdf3+0x41e>
    724c:	00140593          	addi	a1,s0,1
    7250:	7fe5f593          	andi	a1,a1,2046
    7254:	eda5                	bnez	a1,72cc <__subdf3+0x4aa>
    7256:	00c765b3          	or	a1,a4,a2
    725a:	00a7e833          	or	a6,a5,a0
    725e:	e831                	bnez	s0,72b2 <__subdf3+0x490>
    7260:	00081663          	bnez	a6,726c <__subdf3+0x44a>
    7264:	87ba                	mv	a5,a4
    7266:	e98d                	bnez	a1,7298 <__subdf3+0x476>
    7268:	4481                	li	s1,0
    726a:	aaa9                	j	73c4 <__subdf3+0x5a2>
    726c:	12058e63          	beqz	a1,73a8 <__subdf3+0x586>
    7270:	40c50833          	sub	a6,a0,a2
    7274:	010538b3          	sltu	a7,a0,a6
    7278:	40e785b3          	sub	a1,a5,a4
    727c:	411585b3          	sub	a1,a1,a7
    7280:	00859893          	slli	a7,a1,0x8
    7284:	0208d063          	bgez	a7,72a4 <__subdf3+0x482>
    7288:	40a60533          	sub	a0,a2,a0
    728c:	00a635b3          	sltu	a1,a2,a0
    7290:	40f707b3          	sub	a5,a4,a5
    7294:	862a                	mv	a2,a0
    7296:	8f8d                	sub	a5,a5,a1
    7298:	84b6                	mv	s1,a3
    729a:	00c7e533          	or	a0,a5,a2
    729e:	c95d                	beqz	a0,7354 <__subdf3+0x532>
    72a0:	4401                	li	s0,0
    72a2:	b509                	j	70a4 <__subdf3+0x282>
    72a4:	00b86533          	or	a0,a6,a1
    72a8:	12050063          	beqz	a0,73c8 <__subdf3+0x5a6>
    72ac:	87ae                	mv	a5,a1
    72ae:	8642                	mv	a2,a6
    72b0:	b7ed                	j	729a <__subdf3+0x478>
    72b2:	00081963          	bnez	a6,72c4 <__subdf3+0x4a2>
    72b6:	10059c63          	bnez	a1,73ce <__subdf3+0x5ac>
    72ba:	4481                	li	s1,0
    72bc:	4501                	li	a0,0
    72be:	004007b7          	lui	a5,0x400
    72c2:	bd15                	j	70f6 <__subdf3+0x2d4>
    72c4:	841a                	mv	s0,t1
    72c6:	be0580e3          	beqz	a1,6ea6 <__subdf3+0x84>
    72ca:	bb5d                	j	7080 <__subdf3+0x25e>
    72cc:	40c505b3          	sub	a1,a0,a2
    72d0:	00b53833          	sltu	a6,a0,a1
    72d4:	40e78933          	sub	s2,a5,a4
    72d8:	41090933          	sub	s2,s2,a6
    72dc:	00891813          	slli	a6,s2,0x8
    72e0:	89ae                	mv	s3,a1
    72e2:	06085563          	bgez	a6,734c <__subdf3+0x52a>
    72e6:	40a609b3          	sub	s3,a2,a0
    72ea:	40f70933          	sub	s2,a4,a5
    72ee:	01363633          	sltu	a2,a2,s3
    72f2:	40c90933          	sub	s2,s2,a2
    72f6:	84b6                	mv	s1,a3
    72f8:	06090163          	beqz	s2,735a <__subdf3+0x538>
    72fc:	854a                	mv	a0,s2
    72fe:	21a5                	jal	7766 <__clzsi2>
    7300:	ff850713          	addi	a4,a0,-8
    7304:	02000793          	li	a5,32
    7308:	8f99                	sub	a5,a5,a4
    730a:	00e91933          	sll	s2,s2,a4
    730e:	00f9d7b3          	srl	a5,s3,a5
    7312:	0127e7b3          	or	a5,a5,s2
    7316:	00e99633          	sll	a2,s3,a4
    731a:	06874f63          	blt	a4,s0,7398 <__subdf3+0x576>
    731e:	8f01                	sub	a4,a4,s0
    7320:	00170513          	addi	a0,a4,1
    7324:	46fd                	li	a3,31
    7326:	02000593          	li	a1,32
    732a:	04a6c563          	blt	a3,a0,7374 <__subdf3+0x552>
    732e:	8d89                	sub	a1,a1,a0
    7330:	00b79733          	sll	a4,a5,a1
    7334:	00a656b3          	srl	a3,a2,a0
    7338:	00b615b3          	sll	a1,a2,a1
    733c:	8f55                	or	a4,a4,a3
    733e:	00b035b3          	snez	a1,a1
    7342:	00b76633          	or	a2,a4,a1
    7346:	00a7d7b3          	srl	a5,a5,a0
    734a:	bf81                	j	729a <__subdf3+0x478>
    734c:	0125e533          	or	a0,a1,s2
    7350:	f545                	bnez	a0,72f8 <__subdf3+0x4d6>
    7352:	4481                	li	s1,0
    7354:	4781                	li	a5,0
    7356:	4401                	li	s0,0
    7358:	b6b9                	j	6ea6 <__subdf3+0x84>
    735a:	854e                	mv	a0,s3
    735c:	2129                	jal	7766 <__clzsi2>
    735e:	01850713          	addi	a4,a0,24
    7362:	47fd                	li	a5,31
    7364:	fae7d0e3          	bge	a5,a4,7304 <__subdf3+0x4e2>
    7368:	ff850793          	addi	a5,a0,-8
    736c:	00f997b3          	sll	a5,s3,a5
    7370:	4601                	li	a2,0
    7372:	b765                	j	731a <__subdf3+0x4f8>
    7374:	1705                	addi	a4,a4,-31
    7376:	00e7d733          	srl	a4,a5,a4
    737a:	4681                	li	a3,0
    737c:	00b50763          	beq	a0,a1,738a <__subdf3+0x568>
    7380:	04000693          	li	a3,64
    7384:	8e89                	sub	a3,a3,a0
    7386:	00d796b3          	sll	a3,a5,a3
    738a:	8ed1                	or	a3,a3,a2
    738c:	00d036b3          	snez	a3,a3
    7390:	00d76633          	or	a2,a4,a3
    7394:	4781                	li	a5,0
    7396:	b711                	j	729a <__subdf3+0x478>
    7398:	8c19                	sub	s0,s0,a4
    739a:	ff800737          	lui	a4,0xff800
    739e:	177d                	addi	a4,a4,-1 # ff7fffff <_sp+0xff7f408f>
    73a0:	8ff9                	and	a5,a5,a4
    73a2:	b309                	j	70a4 <__subdf3+0x282>
    73a4:	87ba                	mv	a5,a4
    73a6:	bdd5                	j	729a <__subdf3+0x478>
    73a8:	862a                	mv	a2,a0
    73aa:	bdc5                	j	729a <__subdf3+0x478>
    73ac:	00f67713          	andi	a4,a2,15
    73b0:	4691                	li	a3,4
    73b2:	ced70de3          	beq	a4,a3,70ac <__subdf3+0x28a>
    73b6:	00d60533          	add	a0,a2,a3
    73ba:	00c53633          	sltu	a2,a0,a2
    73be:	97b2                	add	a5,a5,a2
    73c0:	b1fd                	j	70ae <__subdf3+0x28c>
    73c2:	8436                	mv	s0,a3
    73c4:	4781                	li	a5,0
    73c6:	b1c1                	j	7086 <__subdf3+0x264>
    73c8:	4481                	li	s1,0
    73ca:	4781                	li	a5,0
    73cc:	bce9                	j	6ea6 <__subdf3+0x84>
    73ce:	84b6                	mv	s1,a3
    73d0:	87ba                	mv	a5,a4
    73d2:	8532                	mv	a0,a2
    73d4:	b30d                	j	70f6 <__subdf3+0x2d4>

000073d6 <__unorddf2>:
    73d6:	00c59713          	slli	a4,a1,0xc
    73da:	81d1                	srli	a1,a1,0x14
    73dc:	00c69793          	slli	a5,a3,0xc
    73e0:	7ff5f593          	andi	a1,a1,2047
    73e4:	82d1                	srli	a3,a3,0x14
    73e6:	7ff00813          	li	a6,2047
    73ea:	8331                	srli	a4,a4,0xc
    73ec:	83b1                	srli	a5,a5,0xc
    73ee:	7ff6f693          	andi	a3,a3,2047
    73f2:	01059563          	bne	a1,a6,73fc <__unorddf2+0x26>
    73f6:	8f49                	or	a4,a4,a0
    73f8:	4505                	li	a0,1
    73fa:	e719                	bnez	a4,7408 <__unorddf2+0x32>
    73fc:	4501                	li	a0,0
    73fe:	01069563          	bne	a3,a6,7408 <__unorddf2+0x32>
    7402:	8fd1                	or	a5,a5,a2
    7404:	00f03533          	snez	a0,a5
    7408:	8082                	ret

0000740a <__fixdfsi>:
    740a:	0145d713          	srli	a4,a1,0x14
    740e:	00c59793          	slli	a5,a1,0xc
    7412:	7ff77713          	andi	a4,a4,2047
    7416:	3fe00693          	li	a3,1022
    741a:	83b1                	srli	a5,a5,0xc
    741c:	81fd                	srli	a1,a1,0x1f
    741e:	04e6d563          	bge	a3,a4,7468 <__fixdfsi+0x5e>
    7422:	41d00693          	li	a3,1053
    7426:	00e6d763          	bge	a3,a4,7434 <__fixdfsi+0x2a>
    742a:	80000537          	lui	a0,0x80000
    742e:	157d                	addi	a0,a0,-1 # 7fffffff <_sp+0x7fff408f>
    7430:	952e                	add	a0,a0,a1
    7432:	8082                	ret
    7434:	001006b7          	lui	a3,0x100
    7438:	8fd5                	or	a5,a5,a3
    743a:	41300693          	li	a3,1043
    743e:	02e6d163          	bge	a3,a4,7460 <__fixdfsi+0x56>
    7442:	bed70693          	addi	a3,a4,-1043
    7446:	00d797b3          	sll	a5,a5,a3
    744a:	43300693          	li	a3,1075
    744e:	40e68733          	sub	a4,a3,a4
    7452:	00e55533          	srl	a0,a0,a4
    7456:	8d5d                	or	a0,a0,a5
    7458:	c989                	beqz	a1,746a <__fixdfsi+0x60>
    745a:	40a00533          	neg	a0,a0
    745e:	8082                	ret
    7460:	8e99                	sub	a3,a3,a4
    7462:	00d7d533          	srl	a0,a5,a3
    7466:	bfcd                	j	7458 <__fixdfsi+0x4e>
    7468:	4501                	li	a0,0
    746a:	8082                	ret

0000746c <__floatsidf>:
    746c:	1141                	addi	sp,sp,-16
    746e:	c606                	sw	ra,12(sp)
    7470:	c422                	sw	s0,8(sp)
    7472:	c226                	sw	s1,4(sp)
    7474:	87aa                	mv	a5,a0
    7476:	c929                	beqz	a0,74c8 <__floatsidf+0x5c>
    7478:	41f55713          	srai	a4,a0,0x1f
    747c:	00a74433          	xor	s0,a4,a0
    7480:	8c19                	sub	s0,s0,a4
    7482:	01f55493          	srli	s1,a0,0x1f
    7486:	8522                	mv	a0,s0
    7488:	2cf9                	jal	7766 <__clzsi2>
    748a:	41e00793          	li	a5,1054
    748e:	4729                	li	a4,10
    7490:	8f89                	sub	a5,a5,a0
    7492:	02a74663          	blt	a4,a0,74be <__floatsidf+0x52>
    7496:	472d                	li	a4,11
    7498:	8f09                	sub	a4,a4,a0
    749a:	0555                	addi	a0,a0,21
    749c:	00e45733          	srl	a4,s0,a4
    74a0:	00a41433          	sll	s0,s0,a0
    74a4:	40b2                	lw	ra,12(sp)
    74a6:	8522                	mv	a0,s0
    74a8:	0732                	slli	a4,a4,0xc
    74aa:	4422                	lw	s0,8(sp)
    74ac:	07d2                	slli	a5,a5,0x14
    74ae:	8331                	srli	a4,a4,0xc
    74b0:	04fe                	slli	s1,s1,0x1f
    74b2:	8fd9                	or	a5,a5,a4
    74b4:	0097e5b3          	or	a1,a5,s1
    74b8:	4492                	lw	s1,4(sp)
    74ba:	0141                	addi	sp,sp,16
    74bc:	8082                	ret
    74be:	1555                	addi	a0,a0,-11
    74c0:	00a41733          	sll	a4,s0,a0
    74c4:	4401                	li	s0,0
    74c6:	bff9                	j	74a4 <__floatsidf+0x38>
    74c8:	4481                	li	s1,0
    74ca:	4701                	li	a4,0
    74cc:	bfe5                	j	74c4 <__floatsidf+0x58>

000074ce <__floatunsidf>:
    74ce:	1141                	addi	sp,sp,-16
    74d0:	c422                	sw	s0,8(sp)
    74d2:	c606                	sw	ra,12(sp)
    74d4:	842a                	mv	s0,a0
    74d6:	cd15                	beqz	a0,7512 <__floatunsidf+0x44>
    74d8:	2479                	jal	7766 <__clzsi2>
    74da:	41e00713          	li	a4,1054
    74de:	47a9                	li	a5,10
    74e0:	8f09                	sub	a4,a4,a0
    74e2:	02a7c363          	blt	a5,a0,7508 <__floatunsidf+0x3a>
    74e6:	47ad                	li	a5,11
    74e8:	8f89                	sub	a5,a5,a0
    74ea:	0555                	addi	a0,a0,21
    74ec:	00f457b3          	srl	a5,s0,a5
    74f0:	00a41433          	sll	s0,s0,a0
    74f4:	40b2                	lw	ra,12(sp)
    74f6:	8522                	mv	a0,s0
    74f8:	4422                	lw	s0,8(sp)
    74fa:	07b2                	slli	a5,a5,0xc
    74fc:	0752                	slli	a4,a4,0x14
    74fe:	83b1                	srli	a5,a5,0xc
    7500:	00f765b3          	or	a1,a4,a5
    7504:	0141                	addi	sp,sp,16
    7506:	8082                	ret
    7508:	1555                	addi	a0,a0,-11
    750a:	00a417b3          	sll	a5,s0,a0
    750e:	4401                	li	s0,0
    7510:	b7d5                	j	74f4 <__floatunsidf+0x26>
    7512:	4781                	li	a5,0
    7514:	4701                	li	a4,0
    7516:	bff9                	j	74f4 <__floatunsidf+0x26>

00007518 <__trunctfdf2>:
    7518:	454c                	lw	a1,12(a0)
    751a:	451c                	lw	a5,8(a0)
    751c:	1101                	addi	sp,sp,-32
    751e:	4158                	lw	a4,4(a0)
    7520:	c43e                	sw	a5,8(sp)
    7522:	cc3e                	sw	a5,24(sp)
    7524:	01059793          	slli	a5,a1,0x10
    7528:	4114                	lw	a3,0(a0)
    752a:	83c1                	srli	a5,a5,0x10
    752c:	ce3e                	sw	a5,28(sp)
    752e:	00159793          	slli	a5,a1,0x1
    7532:	c23a                	sw	a4,4(sp)
    7534:	ca3a                	sw	a4,20(sp)
    7536:	0117d713          	srli	a4,a5,0x11
    753a:	081c                	addi	a5,sp,16
    753c:	c62e                	sw	a1,12(sp)
    753e:	c036                	sw	a3,0(sp)
    7540:	c836                	sw	a3,16(sp)
    7542:	81fd                	srli	a1,a1,0x1f
    7544:	00410893          	addi	a7,sp,4
    7548:	863e                	mv	a2,a5
    754a:	4648                	lw	a0,12(a2)
    754c:	00862803          	lw	a6,8(a2) # 10008 <_sp+0x4098>
    7550:	1671                	addi	a2,a2,-4
    7552:	050e                	slli	a0,a0,0x3
    7554:	01d85813          	srli	a6,a6,0x1d
    7558:	01056533          	or	a0,a0,a6
    755c:	ca08                	sw	a0,16(a2)
    755e:	ff1616e3          	bne	a2,a7,754a <__trunctfdf2+0x32>
    7562:	00369513          	slli	a0,a3,0x3
    7566:	00170693          	addi	a3,a4,1
    756a:	01169613          	slli	a2,a3,0x11
    756e:	c82a                	sw	a0,16(sp)
    7570:	8249                	srli	a2,a2,0x12
    7572:	16060563          	beqz	a2,76dc <__trunctfdf2+0x1c4>
    7576:	76f1                	lui	a3,0xffffc
    7578:	40068693          	addi	a3,a3,1024 # ffffc400 <_sp+0xffff0490>
    757c:	9736                	add	a4,a4,a3
    757e:	7fe00693          	li	a3,2046
    7582:	1ce6c863          	blt	a3,a4,7752 <__trunctfdf2+0x23a>
    7586:	02e05963          	blez	a4,75b8 <__trunctfdf2+0xa0>
    758a:	4862                	lw	a6,24(sp)
    758c:	47f2                	lw	a5,28(sp)
    758e:	4652                	lw	a2,20(sp)
    7590:	01c85693          	srli	a3,a6,0x1c
    7594:	0792                	slli	a5,a5,0x4
    7596:	8fd5                	or	a5,a5,a3
    7598:	00461693          	slli	a3,a2,0x4
    759c:	8ec9                	or	a3,a3,a0
    759e:	8271                	srli	a2,a2,0x1c
    75a0:	0812                	slli	a6,a6,0x4
    75a2:	00d036b3          	snez	a3,a3
    75a6:	01066633          	or	a2,a2,a6
    75aa:	8ed1                	or	a3,a3,a2
    75ac:	0076f613          	andi	a2,a3,7
    75b0:	18061963          	bnez	a2,7742 <__trunctfdf2+0x22a>
    75b4:	8636                	mv	a2,a3
    75b6:	a2ad                	j	7720 <__trunctfdf2+0x208>
    75b8:	fcc00693          	li	a3,-52
    75bc:	18d74063          	blt	a4,a3,773c <__trunctfdf2+0x224>
    75c0:	4672                	lw	a2,28(sp)
    75c2:	000806b7          	lui	a3,0x80
    75c6:	853e                	mv	a0,a5
    75c8:	00d66e33          	or	t3,a2,a3
    75cc:	03d00613          	li	a2,61
    75d0:	40e60733          	sub	a4,a2,a4
    75d4:	40575e93          	srai	t4,a4,0x5
    75d8:	01f77613          	andi	a2,a4,31
    75dc:	ce72                	sw	t3,28(sp)
    75de:	4701                	li	a4,0
    75e0:	4681                	li	a3,0
    75e2:	00052803          	lw	a6,0(a0)
    75e6:	0705                	addi	a4,a4,1
    75e8:	0511                	addi	a0,a0,4
    75ea:	0106e6b3          	or	a3,a3,a6
    75ee:	feee9ae3          	bne	t4,a4,75e2 <__trunctfdf2+0xca>
    75f2:	002e9813          	slli	a6,t4,0x2
    75f6:	ee19                	bnez	a2,7614 <__trunctfdf2+0xfc>
    75f8:	983e                	add	a6,a6,a5
    75fa:	00082603          	lw	a2,0(a6)
    75fe:	ffee8713          	addi	a4,t4,-2
    7602:	00173713          	seqz	a4,a4
    7606:	c832                	sw	a2,16(sp)
    7608:	4609                	li	a2,2
    760a:	00ce9363          	bne	t4,a2,7610 <__trunctfdf2+0xf8>
    760e:	ca72                	sw	t3,20(sp)
    7610:	0705                	addi	a4,a4,1
    7612:	a80d                	j	7644 <__trunctfdf2+0x12c>
    7614:	01078733          	add	a4,a5,a6
    7618:	4308                	lw	a0,0(a4)
    761a:	02000313          	li	t1,32
    761e:	40c30333          	sub	t1,t1,a2
    7622:	00651533          	sll	a0,a0,t1
    7626:	8ec9                	or	a3,a3,a0
    7628:	450d                	li	a0,3
    762a:	41d50533          	sub	a0,a0,t4
    762e:	4f01                	li	t5,0
    7630:	09e51563          	bne	a0,t5,76ba <__trunctfdf2+0x1a2>
    7634:	050a                	slli	a0,a0,0x2
    7636:	4711                	li	a4,4
    7638:	953e                	add	a0,a0,a5
    763a:	00ce5633          	srl	a2,t3,a2
    763e:	41d70733          	sub	a4,a4,t4
    7642:	c110                	sw	a2,0(a0)
    7644:	4611                	li	a2,4
    7646:	8e19                	sub	a2,a2,a4
    7648:	070a                	slli	a4,a4,0x2
    764a:	97ba                	add	a5,a5,a4
    764c:	00261713          	slli	a4,a2,0x2
    7650:	4621                	li	a2,8
    7652:	00c76863          	bltu	a4,a2,7662 <__trunctfdf2+0x14a>
    7656:	0007a023          	sw	zero,0(a5) # 400000 <_sp+0x3f4090>
    765a:	0007a223          	sw	zero,4(a5)
    765e:	1761                	addi	a4,a4,-8
    7660:	97b2                	add	a5,a5,a2
    7662:	4611                	li	a2,4
    7664:	00c76463          	bltu	a4,a2,766c <__trunctfdf2+0x154>
    7668:	0007a023          	sw	zero,0(a5)
    766c:	47c2                	lw	a5,16(sp)
    766e:	00d036b3          	snez	a3,a3
    7672:	8edd                	or	a3,a3,a5
    7674:	47d2                	lw	a5,20(sp)
    7676:	00f6e633          	or	a2,a3,a5
    767a:	ea71                	bnez	a2,774e <__trunctfdf2+0x236>
    767c:	4781                	li	a5,0
    767e:	4701                	li	a4,0
    7680:	820d                	srli	a2,a2,0x3
    7682:	01d79693          	slli	a3,a5,0x1d
    7686:	8ed1                	or	a3,a3,a2
    7688:	7ff00613          	li	a2,2047
    768c:	838d                	srli	a5,a5,0x3
    768e:	00c71963          	bne	a4,a2,76a0 <__trunctfdf2+0x188>
    7692:	8edd                	or	a3,a3,a5
    7694:	4781                	li	a5,0
    7696:	c689                	beqz	a3,76a0 <__trunctfdf2+0x188>
    7698:	4581                	li	a1,0
    769a:	000807b7          	lui	a5,0x80
    769e:	4681                	li	a3,0
    76a0:	7ff77713          	andi	a4,a4,2047
    76a4:	07b2                	slli	a5,a5,0xc
    76a6:	83b1                	srli	a5,a5,0xc
    76a8:	0752                	slli	a4,a4,0x14
    76aa:	05fe                	slli	a1,a1,0x1f
    76ac:	8f5d                	or	a4,a4,a5
    76ae:	00b767b3          	or	a5,a4,a1
    76b2:	8536                	mv	a0,a3
    76b4:	85be                	mv	a1,a5
    76b6:	6105                	addi	sp,sp,32
    76b8:	8082                	ret
    76ba:	00072883          	lw	a7,0(a4)
    76be:	00472f83          	lw	t6,4(a4)
    76c2:	410702b3          	sub	t0,a4,a6
    76c6:	00c8d8b3          	srl	a7,a7,a2
    76ca:	006f9fb3          	sll	t6,t6,t1
    76ce:	01f8e8b3          	or	a7,a7,t6
    76d2:	0112a023          	sw	a7,0(t0)
    76d6:	0f05                	addi	t5,t5,1
    76d8:	0711                	addi	a4,a4,4
    76da:	bf99                	j	7630 <__trunctfdf2+0x118>
    76dc:	46d2                	lw	a3,20(sp)
    76de:	47e2                	lw	a5,24(sp)
    76e0:	4872                	lw	a6,28(sp)
    76e2:	00f6e633          	or	a2,a3,a5
    76e6:	01066633          	or	a2,a2,a6
    76ea:	8e49                	or	a2,a2,a0
    76ec:	eb11                	bnez	a4,7700 <__trunctfdf2+0x1e8>
    76ee:	4781                	li	a5,0
    76f0:	4685                	li	a3,1
    76f2:	d659                	beqz	a2,7680 <__trunctfdf2+0x168>
    76f4:	00468613          	addi	a2,a3,4 # 80004 <_sp+0x74094>
    76f8:	00d636b3          	sltu	a3,a2,a3
    76fc:	97b6                	add	a5,a5,a3
    76fe:	a00d                	j	7720 <__trunctfdf2+0x208>
    7700:	ce31                	beqz	a2,775c <__trunctfdf2+0x244>
    7702:	00479713          	slli	a4,a5,0x4
    7706:	82f1                	srli	a3,a3,0x1c
    7708:	83f1                	srli	a5,a5,0x1c
    770a:	0812                	slli	a6,a6,0x4
    770c:	8ed9                	or	a3,a3,a4
    770e:	0107e7b3          	or	a5,a5,a6
    7712:	00400737          	lui	a4,0x400
    7716:	8fd9                	or	a5,a5,a4
    7718:	ff86f613          	andi	a2,a3,-8
    771c:	7ff00713          	li	a4,2047
    7720:	00879693          	slli	a3,a5,0x8
    7724:	f406dee3          	bgez	a3,7680 <__trunctfdf2+0x168>
    7728:	0705                	addi	a4,a4,1 # 400001 <_sp+0x3f4091>
    772a:	7ff00693          	li	a3,2047
    772e:	02d70963          	beq	a4,a3,7760 <__trunctfdf2+0x248>
    7732:	ff8006b7          	lui	a3,0xff800
    7736:	16fd                	addi	a3,a3,-1 # ff7fffff <_sp+0xff7f408f>
    7738:	8ff5                	and	a5,a5,a3
    773a:	b799                	j	7680 <__trunctfdf2+0x168>
    773c:	4701                	li	a4,0
    773e:	4685                	li	a3,1
    7740:	4781                	li	a5,0
    7742:	00f6f613          	andi	a2,a3,15
    7746:	4511                	li	a0,4
    7748:	faa616e3          	bne	a2,a0,76f4 <__trunctfdf2+0x1dc>
    774c:	b5a5                	j	75b4 <__trunctfdf2+0x9c>
    774e:	4701                	li	a4,0
    7750:	bdb1                	j	75ac <__trunctfdf2+0x94>
    7752:	4781                	li	a5,0
    7754:	4601                	li	a2,0
    7756:	7ff00713          	li	a4,2047
    775a:	b71d                	j	7680 <__trunctfdf2+0x168>
    775c:	4781                	li	a5,0
    775e:	bfe5                	j	7756 <__trunctfdf2+0x23e>
    7760:	4781                	li	a5,0
    7762:	4601                	li	a2,0
    7764:	bf31                	j	7680 <__trunctfdf2+0x168>

00007766 <__clzsi2>:
    7766:	67c1                	lui	a5,0x10
    7768:	02f57563          	bgeu	a0,a5,7792 <__clzsi2+0x2c>
    776c:	10053793          	sltiu	a5,a0,256
    7770:	0017b793          	seqz	a5,a5
    7774:	078e                	slli	a5,a5,0x3
    7776:	6721                	lui	a4,0x8
    7778:	00f55533          	srl	a0,a0,a5
    777c:	3f870713          	addi	a4,a4,1016 # 83f8 <__clz_tab>
    7780:	972a                	add	a4,a4,a0
    7782:	00074503          	lbu	a0,0(a4)
    7786:	02000693          	li	a3,32
    778a:	8e9d                	sub	a3,a3,a5
    778c:	40a68533          	sub	a0,a3,a0
    7790:	8082                	ret
    7792:	01000737          	lui	a4,0x1000
    7796:	47e1                	li	a5,24
    7798:	fce57fe3          	bgeu	a0,a4,7776 <__clzsi2+0x10>
    779c:	47c1                	li	a5,16
    779e:	bfe1                	j	7776 <__clzsi2+0x10>
